
space_check.o:     file format elf64-x86-64


Disassembly of section .text:

0000000000000000 <main>:
   0:	f3 0f 1e fa          	endbr64 
   4:	55                   	push   %rbp
   5:	48 89 e5             	mov    %rsp,%rbp
   8:	41 55                	push   %r13
   a:	41 54                	push   %r12
   c:	53                   	push   %rbx
   d:	48 81 ec 98 03 00 00 	sub    $0x398,%rsp
  14:	64 48 8b 04 25 28 00 	mov    %fs:0x28,%rax
  1b:	00 00 
  1d:	48 89 45 d8          	mov    %rax,-0x28(%rbp)
  21:	31 c0                	xor    %eax,%eax
  23:	48 8d 85 50 fc ff ff 	lea    -0x3b0(%rbp),%rax
  2a:	48 89 c6             	mov    %rax,%rsi
  2d:	48 8d 05 00 00 00 00 	lea    0x0(%rip),%rax        # 34 <main+0x34>
  34:	48 89 c7             	mov    %rax,%rdi
  37:	e8 00 00 00 00       	call   3c <main+0x3c>
  3c:	4c 8d a5 b0 fc ff ff 	lea    -0x350(%rbp),%r12
  43:	bb 09 00 00 00       	mov    $0x9,%ebx
  48:	4d 89 e5             	mov    %r12,%r13
  4b:	eb 10                	jmp    5d <main+0x5d>
  4d:	4c 89 ef             	mov    %r13,%rdi
  50:	e8 00 00 00 00       	call   55 <main+0x55>
  55:	49 83 c5 50          	add    $0x50,%r13
  59:	48 83 eb 01          	sub    $0x1,%rbx
  5d:	48 85 db             	test   %rbx,%rbx
  60:	79 eb                	jns    4d <main+0x4d>
  62:	c7 85 60 fc ff ff 04 	movl   $0x4,-0x3a0(%rbp)
  69:	00 00 00 
  6c:	48 8d 95 60 fc ff ff 	lea    -0x3a0(%rbp),%rdx
  73:	48 8d 85 b0 fc ff ff 	lea    -0x350(%rbp),%rax
  7a:	48 89 d6             	mov    %rdx,%rsi
  7d:	48 89 c7             	mov    %rax,%rdi
  80:	e8 00 00 00 00       	call   85 <main+0x85>
  85:	48 8d 85 b0 fc ff ff 	lea    -0x350(%rbp),%rax
  8c:	48 89 85 58 fc ff ff 	mov    %rax,-0x3a8(%rbp)
  93:	48 8d 85 b0 fc ff ff 	lea    -0x350(%rbp),%rax
  9a:	48 89 c7             	mov    %rax,%rdi
  9d:	e8 00 00 00 00       	call   a2 <main+0xa2>
  a2:	8b 00                	mov    (%rax),%eax
  a4:	89 c6                	mov    %eax,%esi
  a6:	48 8d 05 00 00 00 00 	lea    0x0(%rip),%rax        # ad <main+0xad>
  ad:	48 89 c7             	mov    %rax,%rdi
  b0:	e8 00 00 00 00       	call   b5 <main+0xb5>
  b5:	48 8d 85 60 fc ff ff 	lea    -0x3a0(%rbp),%rax
  bc:	48 89 c7             	mov    %rax,%rdi
  bf:	e8 00 00 00 00       	call   c4 <main+0xc4>
  c4:	c7 85 54 fc ff ff 01 	movl   $0x1,-0x3ac(%rbp)
  cb:	00 00 00 
  ce:	48 8d 95 54 fc ff ff 	lea    -0x3ac(%rbp),%rdx
  d5:	48 8d 85 60 fc ff ff 	lea    -0x3a0(%rbp),%rax
  dc:	48 89 d6             	mov    %rdx,%rsi
  df:	48 89 c7             	mov    %rax,%rdi
  e2:	e8 00 00 00 00       	call   e7 <main+0xe7>
  e7:	48 8d 95 60 fc ff ff 	lea    -0x3a0(%rbp),%rdx
  ee:	48 8d 85 b0 fc ff ff 	lea    -0x350(%rbp),%rax
  f5:	48 89 d6             	mov    %rdx,%rsi
  f8:	48 89 c7             	mov    %rax,%rdi
  fb:	e8 00 00 00 00       	call   100 <main+0x100>
 100:	48 8b 85 58 fc ff ff 	mov    -0x3a8(%rbp),%rax
 107:	48 89 c7             	mov    %rax,%rdi
 10a:	e8 00 00 00 00       	call   10f <main+0x10f>
 10f:	8b 00                	mov    (%rax),%eax
 111:	89 c6                	mov    %eax,%esi
 113:	48 8d 05 00 00 00 00 	lea    0x0(%rip),%rax        # 11a <main+0x11a>
 11a:	48 89 c7             	mov    %rax,%rdi
 11d:	e8 00 00 00 00       	call   122 <main+0x122>
 122:	48 8d 85 60 fc ff ff 	lea    -0x3a0(%rbp),%rax
 129:	48 89 c7             	mov    %rax,%rdi
 12c:	e8 00 00 00 00       	call   131 <main+0x131>
 131:	48 8d 9d b0 fc ff ff 	lea    -0x350(%rbp),%rbx
 138:	48 81 c3 20 03 00 00 	add    $0x320,%rbx
 13f:	48 8d 85 b0 fc ff ff 	lea    -0x350(%rbp),%rax
 146:	48 39 c3             	cmp    %rax,%rbx
 149:	74 0e                	je     159 <main+0x159>
 14b:	48 83 eb 50          	sub    $0x50,%rbx
 14f:	48 89 df             	mov    %rbx,%rdi
 152:	e8 00 00 00 00       	call   157 <main+0x157>
 157:	eb e6                	jmp    13f <main+0x13f>
 159:	90                   	nop
 15a:	b8 00 00 00 00       	mov    $0x0,%eax
 15f:	48 8b 55 d8          	mov    -0x28(%rbp),%rdx
 163:	64 48 2b 14 25 28 00 	sub    %fs:0x28,%rdx
 16a:	00 00 
 16c:	0f 84 a7 00 00 00    	je     219 <main+0x219>
 172:	e9 9d 00 00 00       	jmp    214 <main+0x214>
 177:	f3 0f 1e fa          	endbr64 
 17b:	49 89 c5             	mov    %rax,%r13
 17e:	4d 85 e4             	test   %r12,%r12
 181:	74 30                	je     1b3 <main+0x1b3>
 183:	b8 09 00 00 00       	mov    $0x9,%eax
 188:	48 29 d8             	sub    %rbx,%rax
 18b:	48 89 c2             	mov    %rax,%rdx
 18e:	48 89 d0             	mov    %rdx,%rax
 191:	48 c1 e0 02          	shl    $0x2,%rax
 195:	48 01 d0             	add    %rdx,%rax
 198:	48 c1 e0 04          	shl    $0x4,%rax
 19c:	49 8d 1c 04          	lea    (%r12,%rax,1),%rbx
 1a0:	4c 39 e3             	cmp    %r12,%rbx
 1a3:	74 0e                	je     1b3 <main+0x1b3>
 1a5:	48 83 eb 50          	sub    $0x50,%rbx
 1a9:	48 89 df             	mov    %rbx,%rdi
 1ac:	e8 00 00 00 00       	call   1b1 <main+0x1b1>
 1b1:	eb ed                	jmp    1a0 <main+0x1a0>
 1b3:	4c 89 e8             	mov    %r13,%rax
 1b6:	48 89 c7             	mov    %rax,%rdi
 1b9:	e8 00 00 00 00       	call   1be <main+0x1be>
 1be:	f3 0f 1e fa          	endbr64 
 1c2:	48 89 c3             	mov    %rax,%rbx
 1c5:	48 8d 85 60 fc ff ff 	lea    -0x3a0(%rbp),%rax
 1cc:	48 89 c7             	mov    %rax,%rdi
 1cf:	e8 00 00 00 00       	call   1d4 <main+0x1d4>
 1d4:	49 89 dc             	mov    %rbx,%r12
 1d7:	eb 07                	jmp    1e0 <main+0x1e0>
 1d9:	f3 0f 1e fa          	endbr64 
 1dd:	49 89 c4             	mov    %rax,%r12
 1e0:	48 8d 9d b0 fc ff ff 	lea    -0x350(%rbp),%rbx
 1e7:	48 81 c3 20 03 00 00 	add    $0x320,%rbx
 1ee:	48 8d 85 b0 fc ff ff 	lea    -0x350(%rbp),%rax
 1f5:	48 39 c3             	cmp    %rax,%rbx
 1f8:	74 0e                	je     208 <main+0x208>
 1fa:	48 83 eb 50          	sub    $0x50,%rbx
 1fe:	48 89 df             	mov    %rbx,%rdi
 201:	e8 00 00 00 00       	call   206 <main+0x206>
 206:	eb e6                	jmp    1ee <main+0x1ee>
 208:	90                   	nop
 209:	4c 89 e0             	mov    %r12,%rax
 20c:	48 89 c7             	mov    %rax,%rdi
 20f:	e8 00 00 00 00       	call   214 <main+0x214>
 214:	e8 00 00 00 00       	call   219 <main+0x219>
 219:	48 81 c4 98 03 00 00 	add    $0x398,%rsp
 220:	5b                   	pop    %rbx
 221:	41 5c                	pop    %r12
 223:	41 5d                	pop    %r13
 225:	5d                   	pop    %rbp
 226:	c3                   	ret    

0000000000000227 <_Z41__static_initialization_and_destruction_0ii>:
 227:	f3 0f 1e fa          	endbr64 
 22b:	55                   	push   %rbp
 22c:	48 89 e5             	mov    %rsp,%rbp
 22f:	48 83 ec 10          	sub    $0x10,%rsp
 233:	89 7d fc             	mov    %edi,-0x4(%rbp)
 236:	89 75 f8             	mov    %esi,-0x8(%rbp)
 239:	83 7d fc 01          	cmpl   $0x1,-0x4(%rbp)
 23d:	75 3b                	jne    27a <_Z41__static_initialization_and_destruction_0ii+0x53>
 23f:	81 7d f8 ff ff 00 00 	cmpl   $0xffff,-0x8(%rbp)
 246:	75 32                	jne    27a <_Z41__static_initialization_and_destruction_0ii+0x53>
 248:	48 8d 05 00 00 00 00 	lea    0x0(%rip),%rax        # 24f <_Z41__static_initialization_and_destruction_0ii+0x28>
 24f:	48 89 c7             	mov    %rax,%rdi
 252:	e8 00 00 00 00       	call   257 <_Z41__static_initialization_and_destruction_0ii+0x30>
 257:	48 8d 05 00 00 00 00 	lea    0x0(%rip),%rax        # 25e <_Z41__static_initialization_and_destruction_0ii+0x37>
 25e:	48 89 c2             	mov    %rax,%rdx
 261:	48 8d 05 00 00 00 00 	lea    0x0(%rip),%rax        # 268 <_Z41__static_initialization_and_destruction_0ii+0x41>
 268:	48 89 c6             	mov    %rax,%rsi
 26b:	48 8b 05 00 00 00 00 	mov    0x0(%rip),%rax        # 272 <_Z41__static_initialization_and_destruction_0ii+0x4b>
 272:	48 89 c7             	mov    %rax,%rdi
 275:	e8 00 00 00 00       	call   27a <_Z41__static_initialization_and_destruction_0ii+0x53>
 27a:	90                   	nop
 27b:	c9                   	leave  
 27c:	c3                   	ret    

000000000000027d <_GLOBAL__sub_I_main>:
 27d:	f3 0f 1e fa          	endbr64 
 281:	55                   	push   %rbp
 282:	48 89 e5             	mov    %rsp,%rbp
 285:	be ff ff 00 00       	mov    $0xffff,%esi
 28a:	bf 01 00 00 00       	mov    $0x1,%edi
 28f:	e8 93 ff ff ff       	call   227 <_Z41__static_initialization_and_destruction_0ii>
 294:	5d                   	pop    %rbp
 295:	c3                   	ret    

Disassembly of section .text._ZnwmPv:

0000000000000000 <_ZnwmPv>:
   0:	f3 0f 1e fa          	endbr64 
   4:	55                   	push   %rbp
   5:	48 89 e5             	mov    %rsp,%rbp
   8:	48 89 7d f8          	mov    %rdi,-0x8(%rbp)
   c:	48 89 75 f0          	mov    %rsi,-0x10(%rbp)
  10:	48 8b 45 f0          	mov    -0x10(%rbp),%rax
  14:	5d                   	pop    %rbp
  15:	c3                   	ret    

Disassembly of section .text._ZSt16__deque_buf_sizem:

0000000000000000 <_ZSt16__deque_buf_sizem>:
   0:	f3 0f 1e fa          	endbr64 
   4:	55                   	push   %rbp
   5:	48 89 e5             	mov    %rsp,%rbp
   8:	48 89 7d f8          	mov    %rdi,-0x8(%rbp)
   c:	48 81 7d f8 ff 01 00 	cmpq   $0x1ff,-0x8(%rbp)
  13:	00 
  14:	77 10                	ja     26 <_ZSt16__deque_buf_sizem+0x26>
  16:	b8 00 02 00 00       	mov    $0x200,%eax
  1b:	ba 00 00 00 00       	mov    $0x0,%edx
  20:	48 f7 75 f8          	divq   -0x8(%rbp)
  24:	eb 05                	jmp    2b <_ZSt16__deque_buf_sizem+0x2b>
  26:	b8 01 00 00 00       	mov    $0x1,%eax
  2b:	5d                   	pop    %rbp
  2c:	c3                   	ret    

Disassembly of section .text._ZNSt5stackIiSt5dequeIiSaIiEEED2Ev:

0000000000000000 <_ZNSt5stackIiSt5dequeIiSaIiEEED1Ev>:
   0:	f3 0f 1e fa          	endbr64 
   4:	55                   	push   %rbp
   5:	48 89 e5             	mov    %rsp,%rbp
   8:	48 83 ec 10          	sub    $0x10,%rsp
   c:	48 89 7d f8          	mov    %rdi,-0x8(%rbp)
  10:	48 8b 45 f8          	mov    -0x8(%rbp),%rax
  14:	48 89 c7             	mov    %rax,%rdi
  17:	e8 00 00 00 00       	call   1c <_ZNSt5stackIiSt5dequeIiSaIiEEED1Ev+0x1c>
  1c:	90                   	nop
  1d:	c9                   	leave  
  1e:	c3                   	ret    

Disassembly of section .text._ZNSt5stackIiSt5dequeIiSaIiEEEaSERKS3_:

0000000000000000 <_ZNSt5stackIiSt5dequeIiSaIiEEEaSERKS3_>:
   0:	f3 0f 1e fa          	endbr64 
   4:	55                   	push   %rbp
   5:	48 89 e5             	mov    %rsp,%rbp
   8:	48 83 ec 10          	sub    $0x10,%rsp
   c:	48 89 7d f8          	mov    %rdi,-0x8(%rbp)
  10:	48 89 75 f0          	mov    %rsi,-0x10(%rbp)
  14:	48 8b 55 f0          	mov    -0x10(%rbp),%rdx
  18:	48 8b 45 f8          	mov    -0x8(%rbp),%rax
  1c:	48 89 d6             	mov    %rdx,%rsi
  1f:	48 89 c7             	mov    %rax,%rdi
  22:	e8 00 00 00 00       	call   27 <_ZNSt5stackIiSt5dequeIiSaIiEEEaSERKS3_+0x27>
  27:	48 8b 45 f8          	mov    -0x8(%rbp),%rax
  2b:	c9                   	leave  
  2c:	c3                   	ret    

Disassembly of section .text._ZNSt5dequeIiSaIiEEC2Ev:

0000000000000000 <_ZNSt5dequeIiSaIiEEC1Ev>:
   0:	f3 0f 1e fa          	endbr64 
   4:	55                   	push   %rbp
   5:	48 89 e5             	mov    %rsp,%rbp
   8:	48 83 ec 10          	sub    $0x10,%rsp
   c:	48 89 7d f8          	mov    %rdi,-0x8(%rbp)
  10:	48 8b 45 f8          	mov    -0x8(%rbp),%rax
  14:	48 89 c7             	mov    %rax,%rdi
  17:	e8 00 00 00 00       	call   1c <_ZNSt5dequeIiSaIiEEC1Ev+0x1c>
  1c:	90                   	nop
  1d:	c9                   	leave  
  1e:	c3                   	ret    

Disassembly of section .text._ZNSt5stackIiSt5dequeIiSaIiEEEC2IS2_vEEv:

0000000000000000 <_ZNSt5stackIiSt5dequeIiSaIiEEEC1IS2_vEEv>:
   0:	f3 0f 1e fa          	endbr64 
   4:	55                   	push   %rbp
   5:	48 89 e5             	mov    %rsp,%rbp
   8:	48 83 ec 10          	sub    $0x10,%rsp
   c:	48 89 7d f8          	mov    %rdi,-0x8(%rbp)
  10:	48 8b 45 f8          	mov    -0x8(%rbp),%rax
  14:	48 c7 00 00 00 00 00 	movq   $0x0,(%rax)
  1b:	48 c7 40 08 00 00 00 	movq   $0x0,0x8(%rax)
  22:	00 
  23:	48 c7 40 10 00 00 00 	movq   $0x0,0x10(%rax)
  2a:	00 
  2b:	48 c7 40 18 00 00 00 	movq   $0x0,0x18(%rax)
  32:	00 
  33:	48 c7 40 20 00 00 00 	movq   $0x0,0x20(%rax)
  3a:	00 
  3b:	48 c7 40 28 00 00 00 	movq   $0x0,0x28(%rax)
  42:	00 
  43:	48 c7 40 30 00 00 00 	movq   $0x0,0x30(%rax)
  4a:	00 
  4b:	48 c7 40 38 00 00 00 	movq   $0x0,0x38(%rax)
  52:	00 
  53:	48 c7 40 40 00 00 00 	movq   $0x0,0x40(%rax)
  5a:	00 
  5b:	48 c7 40 48 00 00 00 	movq   $0x0,0x48(%rax)
  62:	00 
  63:	48 8b 45 f8          	mov    -0x8(%rbp),%rax
  67:	48 89 c7             	mov    %rax,%rdi
  6a:	e8 00 00 00 00       	call   6f <_ZNSt5stackIiSt5dequeIiSaIiEEEC1IS2_vEEv+0x6f>
  6f:	90                   	nop
  70:	c9                   	leave  
  71:	c3                   	ret    

Disassembly of section .text._ZNSt5dequeIiSaIiEED2Ev:

0000000000000000 <_ZNSt5dequeIiSaIiEED1Ev>:
   0:	f3 0f 1e fa          	endbr64 
   4:	55                   	push   %rbp
   5:	48 89 e5             	mov    %rsp,%rbp
   8:	53                   	push   %rbx
   9:	48 83 ec 68          	sub    $0x68,%rsp
   d:	48 89 7d 98          	mov    %rdi,-0x68(%rbp)
  11:	64 48 8b 04 25 28 00 	mov    %fs:0x28,%rax
  18:	00 00 
  1a:	48 89 45 e8          	mov    %rax,-0x18(%rbp)
  1e:	31 c0                	xor    %eax,%eax
  20:	48 8b 45 98          	mov    -0x68(%rbp),%rax
  24:	48 89 c7             	mov    %rax,%rdi
  27:	e8 00 00 00 00       	call   2c <_ZNSt5dequeIiSaIiEED1Ev+0x2c>
  2c:	48 89 c3             	mov    %rax,%rbx
  2f:	48 8d 45 c0          	lea    -0x40(%rbp),%rax
  33:	48 8b 55 98          	mov    -0x68(%rbp),%rdx
  37:	48 89 d6             	mov    %rdx,%rsi
  3a:	48 89 c7             	mov    %rax,%rdi
  3d:	e8 00 00 00 00       	call   42 <_ZNSt5dequeIiSaIiEED1Ev+0x42>
  42:	48 8d 45 a0          	lea    -0x60(%rbp),%rax
  46:	48 8b 55 98          	mov    -0x68(%rbp),%rdx
  4a:	48 89 d6             	mov    %rdx,%rsi
  4d:	48 89 c7             	mov    %rax,%rdi
  50:	e8 00 00 00 00       	call   55 <_ZNSt5dequeIiSaIiEED1Ev+0x55>
  55:	48 8d 55 c0          	lea    -0x40(%rbp),%rdx
  59:	48 8d 75 a0          	lea    -0x60(%rbp),%rsi
  5d:	48 8b 45 98          	mov    -0x68(%rbp),%rax
  61:	48 89 d9             	mov    %rbx,%rcx
  64:	48 89 c7             	mov    %rax,%rdi
  67:	e8 00 00 00 00       	call   6c <_ZNSt5dequeIiSaIiEED1Ev+0x6c>
  6c:	48 8b 45 98          	mov    -0x68(%rbp),%rax
  70:	48 89 c7             	mov    %rax,%rdi
  73:	e8 00 00 00 00       	call   78 <_ZNSt5dequeIiSaIiEED1Ev+0x78>
  78:	90                   	nop
  79:	48 8b 45 e8          	mov    -0x18(%rbp),%rax
  7d:	64 48 2b 04 25 28 00 	sub    %fs:0x28,%rax
  84:	00 00 
  86:	74 05                	je     8d <_ZNSt5dequeIiSaIiEED1Ev+0x8d>
  88:	e8 00 00 00 00       	call   8d <_ZNSt5dequeIiSaIiEED1Ev+0x8d>
  8d:	48 8b 5d f8          	mov    -0x8(%rbp),%rbx
  91:	c9                   	leave  
  92:	c3                   	ret    

Disassembly of section .text._ZNSt5stackIiSt5dequeIiSaIiEEE4pushEOi:

0000000000000000 <_ZNSt5stackIiSt5dequeIiSaIiEEE4pushEOi>:
   0:	f3 0f 1e fa          	endbr64 
   4:	55                   	push   %rbp
   5:	48 89 e5             	mov    %rsp,%rbp
   8:	53                   	push   %rbx
   9:	48 83 ec 18          	sub    $0x18,%rsp
   d:	48 89 7d e8          	mov    %rdi,-0x18(%rbp)
  11:	48 89 75 e0          	mov    %rsi,-0x20(%rbp)
  15:	48 8b 5d e8          	mov    -0x18(%rbp),%rbx
  19:	48 8b 45 e0          	mov    -0x20(%rbp),%rax
  1d:	48 89 c7             	mov    %rax,%rdi
  20:	e8 00 00 00 00       	call   25 <_ZNSt5stackIiSt5dequeIiSaIiEEE4pushEOi+0x25>
  25:	48 89 c6             	mov    %rax,%rsi
  28:	48 89 df             	mov    %rbx,%rdi
  2b:	e8 00 00 00 00       	call   30 <_ZNSt5stackIiSt5dequeIiSaIiEEE4pushEOi+0x30>
  30:	90                   	nop
  31:	48 8b 5d f8          	mov    -0x8(%rbp),%rbx
  35:	c9                   	leave  
  36:	c3                   	ret    

Disassembly of section .text._ZNSt5stackIiSt5dequeIiSaIiEEE3topEv:

0000000000000000 <_ZNSt5stackIiSt5dequeIiSaIiEEE3topEv>:
   0:	f3 0f 1e fa          	endbr64 
   4:	55                   	push   %rbp
   5:	48 89 e5             	mov    %rsp,%rbp
   8:	48 83 ec 10          	sub    $0x10,%rsp
   c:	48 89 7d f8          	mov    %rdi,-0x8(%rbp)
  10:	48 8b 45 f8          	mov    -0x8(%rbp),%rax
  14:	48 89 c7             	mov    %rax,%rdi
  17:	e8 00 00 00 00       	call   1c <_ZNSt5stackIiSt5dequeIiSaIiEEE3topEv+0x1c>
  1c:	c9                   	leave  
  1d:	c3                   	ret    

Disassembly of section .text._ZN9__gnu_cxx14__alloc_traitsISaIiEiE27_S_propagate_on_copy_assignEv:

0000000000000000 <_ZN9__gnu_cxx14__alloc_traitsISaIiEiE27_S_propagate_on_copy_assignEv>:
   0:	f3 0f 1e fa          	endbr64 
   4:	55                   	push   %rbp
   5:	48 89 e5             	mov    %rsp,%rbp
   8:	b8 00 00 00 00       	mov    $0x0,%eax
   d:	5d                   	pop    %rbp
   e:	c3                   	ret    

Disassembly of section .text._ZN9__gnu_cxx14__alloc_traitsISaIiEiE15_S_always_equalEv:

0000000000000000 <_ZN9__gnu_cxx14__alloc_traitsISaIiEiE15_S_always_equalEv>:
   0:	f3 0f 1e fa          	endbr64 
   4:	55                   	push   %rbp
   5:	48 89 e5             	mov    %rsp,%rbp
   8:	b8 01 00 00 00       	mov    $0x1,%eax
   d:	5d                   	pop    %rbp
   e:	c3                   	ret    

Disassembly of section .text._ZNSt5dequeIiSaIiEEaSERKS1_:

0000000000000000 <_ZNSt5dequeIiSaIiEEaSERKS1_>:
   0:	f3 0f 1e fa          	endbr64 
   4:	55                   	push   %rbp
   5:	48 89 e5             	mov    %rsp,%rbp
   8:	53                   	push   %rbx
   9:	48 81 ec d8 00 00 00 	sub    $0xd8,%rsp
  10:	48 89 bd 28 ff ff ff 	mov    %rdi,-0xd8(%rbp)
  17:	48 89 b5 20 ff ff ff 	mov    %rsi,-0xe0(%rbp)
  1e:	64 48 8b 04 25 28 00 	mov    %fs:0x28,%rax
  25:	00 00 
  27:	48 89 45 e8          	mov    %rax,-0x18(%rbp)
  2b:	31 c0                	xor    %eax,%eax
  2d:	48 8b 85 20 ff ff ff 	mov    -0xe0(%rbp),%rax
  34:	48 3b 85 28 ff ff ff 	cmp    -0xd8(%rbp),%rax
  3b:	0f 84 a9 02 00 00    	je     2ea <_ZNSt5dequeIiSaIiEEaSERKS1_+0x2ea>
  41:	e8 00 00 00 00       	call   46 <_ZNSt5dequeIiSaIiEEaSERKS1_+0x46>
  46:	84 c0                	test   %al,%al
  48:	0f 84 ef 00 00 00    	je     13d <_ZNSt5dequeIiSaIiEEaSERKS1_+0x13d>
  4e:	e8 00 00 00 00       	call   53 <_ZNSt5dequeIiSaIiEEaSERKS1_+0x53>
  53:	83 f0 01             	xor    $0x1,%eax
  56:	84 c0                	test   %al,%al
  58:	74 37                	je     91 <_ZNSt5dequeIiSaIiEEaSERKS1_+0x91>
  5a:	48 8b 85 20 ff ff ff 	mov    -0xe0(%rbp),%rax
  61:	48 89 c7             	mov    %rax,%rdi
  64:	e8 00 00 00 00       	call   69 <_ZNSt5dequeIiSaIiEEaSERKS1_+0x69>
  69:	48 89 c3             	mov    %rax,%rbx
  6c:	48 8b 85 28 ff ff ff 	mov    -0xd8(%rbp),%rax
  73:	48 89 c7             	mov    %rax,%rdi
  76:	e8 00 00 00 00       	call   7b <_ZNSt5dequeIiSaIiEEaSERKS1_+0x7b>
  7b:	48 89 de             	mov    %rbx,%rsi
  7e:	48 89 c7             	mov    %rax,%rdi
  81:	e8 00 00 00 00       	call   86 <_ZNSt5dequeIiSaIiEEaSERKS1_+0x86>
  86:	84 c0                	test   %al,%al
  88:	74 07                	je     91 <_ZNSt5dequeIiSaIiEEaSERKS1_+0x91>
  8a:	b8 01 00 00 00       	mov    $0x1,%eax
  8f:	eb 05                	jmp    96 <_ZNSt5dequeIiSaIiEEaSERKS1_+0x96>
  91:	b8 00 00 00 00       	mov    $0x0,%eax
  96:	84 c0                	test   %al,%al
  98:	74 77                	je     111 <_ZNSt5dequeIiSaIiEEaSERKS1_+0x111>
  9a:	48 8d 45 c0          	lea    -0x40(%rbp),%rax
  9e:	48 8b 95 20 ff ff ff 	mov    -0xe0(%rbp),%rdx
  a5:	48 89 d6             	mov    %rdx,%rsi
  a8:	48 89 c7             	mov    %rax,%rdi
  ab:	e8 00 00 00 00       	call   b0 <_ZNSt5dequeIiSaIiEEaSERKS1_+0xb0>
  b0:	48 8d 55 c0          	lea    -0x40(%rbp),%rdx
  b4:	48 8b 8d 20 ff ff ff 	mov    -0xe0(%rbp),%rcx
  bb:	48 8b 85 28 ff ff ff 	mov    -0xd8(%rbp),%rax
  c2:	48 89 ce             	mov    %rcx,%rsi
  c5:	48 89 c7             	mov    %rax,%rdi
  c8:	e8 00 00 00 00       	call   cd <_ZNSt5dequeIiSaIiEEaSERKS1_+0xcd>
  cd:	48 8d 45 c0          	lea    -0x40(%rbp),%rax
  d1:	48 89 c7             	mov    %rax,%rdi
  d4:	e8 00 00 00 00       	call   d9 <_ZNSt5dequeIiSaIiEEaSERKS1_+0xd9>
  d9:	48 8b 85 20 ff ff ff 	mov    -0xe0(%rbp),%rax
  e0:	48 89 c7             	mov    %rax,%rdi
  e3:	e8 00 00 00 00       	call   e8 <_ZNSt5dequeIiSaIiEEaSERKS1_+0xe8>
  e8:	48 89 c3             	mov    %rax,%rbx
  eb:	48 8b 85 28 ff ff ff 	mov    -0xd8(%rbp),%rax
  f2:	48 89 c7             	mov    %rax,%rdi
  f5:	e8 00 00 00 00       	call   fa <_ZNSt5dequeIiSaIiEEaSERKS1_+0xfa>
  fa:	48 89 de             	mov    %rbx,%rsi
  fd:	48 89 c7             	mov    %rax,%rdi
 100:	e8 00 00 00 00       	call   105 <_ZNSt5dequeIiSaIiEEaSERKS1_+0x105>
 105:	48 8b 85 28 ff ff ff 	mov    -0xd8(%rbp),%rax
 10c:	e9 e0 01 00 00       	jmp    2f1 <_ZNSt5dequeIiSaIiEEaSERKS1_+0x2f1>
 111:	48 8b 85 20 ff ff ff 	mov    -0xe0(%rbp),%rax
 118:	48 89 c7             	mov    %rax,%rdi
 11b:	e8 00 00 00 00       	call   120 <_ZNSt5dequeIiSaIiEEaSERKS1_+0x120>
 120:	48 89 c3             	mov    %rax,%rbx
 123:	48 8b 85 28 ff ff ff 	mov    -0xd8(%rbp),%rax
 12a:	48 89 c7             	mov    %rax,%rdi
 12d:	e8 00 00 00 00       	call   132 <_ZNSt5dequeIiSaIiEEaSERKS1_+0x132>
 132:	48 89 de             	mov    %rbx,%rsi
 135:	48 89 c7             	mov    %rax,%rdi
 138:	e8 00 00 00 00       	call   13d <_ZNSt5dequeIiSaIiEEaSERKS1_+0x13d>
 13d:	48 8b 85 28 ff ff ff 	mov    -0xd8(%rbp),%rax
 144:	48 89 c7             	mov    %rax,%rdi
 147:	e8 00 00 00 00       	call   14c <_ZNSt5dequeIiSaIiEEaSERKS1_+0x14c>
 14c:	48 89 85 38 ff ff ff 	mov    %rax,-0xc8(%rbp)
 153:	48 8b 85 20 ff ff ff 	mov    -0xe0(%rbp),%rax
 15a:	48 89 c7             	mov    %rax,%rdi
 15d:	e8 00 00 00 00       	call   162 <_ZNSt5dequeIiSaIiEEaSERKS1_+0x162>
 162:	48 39 85 38 ff ff ff 	cmp    %rax,-0xc8(%rbp)
 169:	0f 93 c0             	setae  %al
 16c:	84 c0                	test   %al,%al
 16e:	74 7f                	je     1ef <_ZNSt5dequeIiSaIiEEaSERKS1_+0x1ef>
 170:	48 8b 85 28 ff ff ff 	mov    -0xd8(%rbp),%rax
 177:	48 8d 50 10          	lea    0x10(%rax),%rdx
 17b:	48 8d 45 a0          	lea    -0x60(%rbp),%rax
 17f:	48 89 d6             	mov    %rdx,%rsi
 182:	48 89 c7             	mov    %rax,%rdi
 185:	e8 00 00 00 00       	call   18a <_ZNSt5dequeIiSaIiEEaSERKS1_+0x18a>
 18a:	48 8d 45 80          	lea    -0x80(%rbp),%rax
 18e:	48 8b 95 20 ff ff ff 	mov    -0xe0(%rbp),%rdx
 195:	48 89 d6             	mov    %rdx,%rsi
 198:	48 89 c7             	mov    %rax,%rdi
 19b:	e8 00 00 00 00       	call   1a0 <_ZNSt5dequeIiSaIiEEaSERKS1_+0x1a0>
 1a0:	48 8d 85 60 ff ff ff 	lea    -0xa0(%rbp),%rax
 1a7:	48 8b 95 20 ff ff ff 	mov    -0xe0(%rbp),%rdx
 1ae:	48 89 d6             	mov    %rdx,%rsi
 1b1:	48 89 c7             	mov    %rax,%rdi
 1b4:	e8 00 00 00 00       	call   1b9 <_ZNSt5dequeIiSaIiEEaSERKS1_+0x1b9>
 1b9:	48 8d 45 c0          	lea    -0x40(%rbp),%rax
 1bd:	48 8d 4d a0          	lea    -0x60(%rbp),%rcx
 1c1:	48 8d 55 80          	lea    -0x80(%rbp),%rdx
 1c5:	48 8d b5 60 ff ff ff 	lea    -0xa0(%rbp),%rsi
 1cc:	48 89 c7             	mov    %rax,%rdi
 1cf:	e8 00 00 00 00       	call   1d4 <_ZNSt5dequeIiSaIiEEaSERKS1_+0x1d4>
 1d4:	48 8d 55 c0          	lea    -0x40(%rbp),%rdx
 1d8:	48 8b 85 28 ff ff ff 	mov    -0xd8(%rbp),%rax
 1df:	48 89 d6             	mov    %rdx,%rsi
 1e2:	48 89 c7             	mov    %rax,%rdi
 1e5:	e8 00 00 00 00       	call   1ea <_ZNSt5dequeIiSaIiEEaSERKS1_+0x1ea>
 1ea:	e9 fb 00 00 00       	jmp    2ea <_ZNSt5dequeIiSaIiEEaSERKS1_+0x2ea>
 1ef:	48 8b 9d 38 ff ff ff 	mov    -0xc8(%rbp),%rbx
 1f6:	48 8d 45 c0          	lea    -0x40(%rbp),%rax
 1fa:	48 8b 95 20 ff ff ff 	mov    -0xe0(%rbp),%rdx
 201:	48 89 d6             	mov    %rdx,%rsi
 204:	48 89 c7             	mov    %rax,%rdi
 207:	e8 00 00 00 00       	call   20c <_ZNSt5dequeIiSaIiEEaSERKS1_+0x20c>
 20c:	48 8d 85 40 ff ff ff 	lea    -0xc0(%rbp),%rax
 213:	48 8d 4d c0          	lea    -0x40(%rbp),%rcx
 217:	48 89 da             	mov    %rbx,%rdx
 21a:	48 89 ce             	mov    %rcx,%rsi
 21d:	48 89 c7             	mov    %rax,%rdi
 220:	e8 00 00 00 00       	call   225 <_ZNSt5dequeIiSaIiEEaSERKS1_+0x225>
 225:	48 8b 85 28 ff ff ff 	mov    -0xd8(%rbp),%rax
 22c:	48 8d 50 10          	lea    0x10(%rax),%rdx
 230:	48 8d 45 a0          	lea    -0x60(%rbp),%rax
 234:	48 89 d6             	mov    %rdx,%rsi
 237:	48 89 c7             	mov    %rax,%rdi
 23a:	e8 00 00 00 00       	call   23f <_ZNSt5dequeIiSaIiEEaSERKS1_+0x23f>
 23f:	48 8d 95 40 ff ff ff 	lea    -0xc0(%rbp),%rdx
 246:	48 8d 45 80          	lea    -0x80(%rbp),%rax
 24a:	48 89 d6             	mov    %rdx,%rsi
 24d:	48 89 c7             	mov    %rax,%rdi
 250:	e8 00 00 00 00       	call   255 <_ZNSt5dequeIiSaIiEEaSERKS1_+0x255>
 255:	48 8d 85 60 ff ff ff 	lea    -0xa0(%rbp),%rax
 25c:	48 8b 95 20 ff ff ff 	mov    -0xe0(%rbp),%rdx
 263:	48 89 d6             	mov    %rdx,%rsi
 266:	48 89 c7             	mov    %rax,%rdi
 269:	e8 00 00 00 00       	call   26e <_ZNSt5dequeIiSaIiEEaSERKS1_+0x26e>
 26e:	48 8d 45 c0          	lea    -0x40(%rbp),%rax
 272:	48 8d 4d a0          	lea    -0x60(%rbp),%rcx
 276:	48 8d 55 80          	lea    -0x80(%rbp),%rdx
 27a:	48 8d b5 60 ff ff ff 	lea    -0xa0(%rbp),%rsi
 281:	48 89 c7             	mov    %rax,%rdi
 284:	e8 00 00 00 00       	call   289 <_ZNSt5dequeIiSaIiEEaSERKS1_+0x289>
 289:	48 8d 45 80          	lea    -0x80(%rbp),%rax
 28d:	48 8b 95 20 ff ff ff 	mov    -0xe0(%rbp),%rdx
 294:	48 89 d6             	mov    %rdx,%rsi
 297:	48 89 c7             	mov    %rax,%rdi
 29a:	e8 00 00 00 00       	call   29f <_ZNSt5dequeIiSaIiEEaSERKS1_+0x29f>
 29f:	48 8d 95 40 ff ff ff 	lea    -0xc0(%rbp),%rdx
 2a6:	48 8d 45 c0          	lea    -0x40(%rbp),%rax
 2aa:	48 89 d6             	mov    %rdx,%rsi
 2ad:	48 89 c7             	mov    %rax,%rdi
 2b0:	e8 00 00 00 00       	call   2b5 <_ZNSt5dequeIiSaIiEEaSERKS1_+0x2b5>
 2b5:	48 8b 85 28 ff ff ff 	mov    -0xd8(%rbp),%rax
 2bc:	48 8d 50 30          	lea    0x30(%rax),%rdx
 2c0:	48 8d 45 a0          	lea    -0x60(%rbp),%rax
 2c4:	48 89 d6             	mov    %rdx,%rsi
 2c7:	48 89 c7             	mov    %rax,%rdi
 2ca:	e8 00 00 00 00       	call   2cf <_ZNSt5dequeIiSaIiEEaSERKS1_+0x2cf>
 2cf:	48 8d 4d 80          	lea    -0x80(%rbp),%rcx
 2d3:	48 8d 55 c0          	lea    -0x40(%rbp),%rdx
 2d7:	48 8d 75 a0          	lea    -0x60(%rbp),%rsi
 2db:	48 8b 85 28 ff ff ff 	mov    -0xd8(%rbp),%rax
 2e2:	48 89 c7             	mov    %rax,%rdi
 2e5:	e8 00 00 00 00       	call   2ea <_ZNSt5dequeIiSaIiEEaSERKS1_+0x2ea>
 2ea:	48 8b 85 28 ff ff ff 	mov    -0xd8(%rbp),%rax
 2f1:	48 8b 55 e8          	mov    -0x18(%rbp),%rdx
 2f5:	64 48 2b 14 25 28 00 	sub    %fs:0x28,%rdx
 2fc:	00 00 
 2fe:	74 25                	je     325 <_ZNSt5dequeIiSaIiEEaSERKS1_+0x325>
 300:	eb 1e                	jmp    320 <_ZNSt5dequeIiSaIiEEaSERKS1_+0x320>
 302:	f3 0f 1e fa          	endbr64 
 306:	48 89 c3             	mov    %rax,%rbx
 309:	48 8d 45 c0          	lea    -0x40(%rbp),%rax
 30d:	48 89 c7             	mov    %rax,%rdi
 310:	e8 00 00 00 00       	call   315 <_ZNSt5dequeIiSaIiEEaSERKS1_+0x315>
 315:	48 89 d8             	mov    %rbx,%rax
 318:	48 89 c7             	mov    %rax,%rdi
 31b:	e8 00 00 00 00       	call   320 <_ZNSt5dequeIiSaIiEEaSERKS1_+0x320>
 320:	e8 00 00 00 00       	call   325 <_ZNSt5dequeIiSaIiEEaSERKS1_+0x325>
 325:	48 8b 5d f8          	mov    -0x8(%rbp),%rbx
 329:	c9                   	leave  
 32a:	c3                   	ret    

Disassembly of section .text._ZNSt11_Deque_baseIiSaIiEE11_Deque_implD2Ev:

0000000000000000 <_ZNSt11_Deque_baseIiSaIiEE11_Deque_implD1Ev>:
   0:	f3 0f 1e fa          	endbr64 
   4:	55                   	push   %rbp
   5:	48 89 e5             	mov    %rsp,%rbp
   8:	48 83 ec 10          	sub    $0x10,%rsp
   c:	48 89 7d f8          	mov    %rdi,-0x8(%rbp)
  10:	48 8b 45 f8          	mov    -0x8(%rbp),%rax
  14:	48 89 c7             	mov    %rax,%rdi
  17:	e8 00 00 00 00       	call   1c <_ZNSt11_Deque_baseIiSaIiEE11_Deque_implD1Ev+0x1c>
  1c:	90                   	nop
  1d:	c9                   	leave  
  1e:	c3                   	ret    

Disassembly of section .text._ZNSt11_Deque_baseIiSaIiEEC2Ev:

0000000000000000 <_ZNSt11_Deque_baseIiSaIiEEC1Ev>:
   0:	f3 0f 1e fa          	endbr64 
   4:	55                   	push   %rbp
   5:	48 89 e5             	mov    %rsp,%rbp
   8:	53                   	push   %rbx
   9:	48 83 ec 18          	sub    $0x18,%rsp
   d:	48 89 7d e8          	mov    %rdi,-0x18(%rbp)
  11:	48 8b 45 e8          	mov    -0x18(%rbp),%rax
  15:	48 89 c7             	mov    %rax,%rdi
  18:	e8 00 00 00 00       	call   1d <_ZNSt11_Deque_baseIiSaIiEEC1Ev+0x1d>
  1d:	48 8b 45 e8          	mov    -0x18(%rbp),%rax
  21:	be 00 00 00 00       	mov    $0x0,%esi
  26:	48 89 c7             	mov    %rax,%rdi
  29:	e8 00 00 00 00       	call   2e <_ZNSt11_Deque_baseIiSaIiEEC1Ev+0x2e>
  2e:	eb 1e                	jmp    4e <_ZNSt11_Deque_baseIiSaIiEEC1Ev+0x4e>
  30:	f3 0f 1e fa          	endbr64 
  34:	48 89 c3             	mov    %rax,%rbx
  37:	48 8b 45 e8          	mov    -0x18(%rbp),%rax
  3b:	48 89 c7             	mov    %rax,%rdi
  3e:	e8 00 00 00 00       	call   43 <_ZNSt11_Deque_baseIiSaIiEEC1Ev+0x43>
  43:	48 89 d8             	mov    %rbx,%rax
  46:	48 89 c7             	mov    %rax,%rdi
  49:	e8 00 00 00 00       	call   4e <_ZNSt11_Deque_baseIiSaIiEEC1Ev+0x4e>
  4e:	48 8b 5d f8          	mov    -0x8(%rbp),%rbx
  52:	c9                   	leave  
  53:	c3                   	ret    

Disassembly of section .text._ZNSt11_Deque_baseIiSaIiEED2Ev:

0000000000000000 <_ZNSt11_Deque_baseIiSaIiEED1Ev>:
   0:	f3 0f 1e fa          	endbr64 
   4:	55                   	push   %rbp
   5:	48 89 e5             	mov    %rsp,%rbp
   8:	48 83 ec 10          	sub    $0x10,%rsp
   c:	48 89 7d f8          	mov    %rdi,-0x8(%rbp)
  10:	48 8b 45 f8          	mov    -0x8(%rbp),%rax
  14:	48 8b 00             	mov    (%rax),%rax
  17:	48 85 c0             	test   %rax,%rax
  1a:	74 41                	je     5d <_ZNSt11_Deque_baseIiSaIiEED1Ev+0x5d>
  1c:	48 8b 45 f8          	mov    -0x8(%rbp),%rax
  20:	48 8b 40 48          	mov    0x48(%rax),%rax
  24:	48 8d 50 08          	lea    0x8(%rax),%rdx
  28:	48 8b 45 f8          	mov    -0x8(%rbp),%rax
  2c:	48 8b 48 28          	mov    0x28(%rax),%rcx
  30:	48 8b 45 f8          	mov    -0x8(%rbp),%rax
  34:	48 89 ce             	mov    %rcx,%rsi
  37:	48 89 c7             	mov    %rax,%rdi
  3a:	e8 00 00 00 00       	call   3f <_ZNSt11_Deque_baseIiSaIiEED1Ev+0x3f>
  3f:	48 8b 45 f8          	mov    -0x8(%rbp),%rax
  43:	48 8b 50 08          	mov    0x8(%rax),%rdx
  47:	48 8b 45 f8          	mov    -0x8(%rbp),%rax
  4b:	48 8b 08             	mov    (%rax),%rcx
  4e:	48 8b 45 f8          	mov    -0x8(%rbp),%rax
  52:	48 89 ce             	mov    %rcx,%rsi
  55:	48 89 c7             	mov    %rax,%rdi
  58:	e8 00 00 00 00       	call   5d <_ZNSt11_Deque_baseIiSaIiEED1Ev+0x5d>
  5d:	48 8b 45 f8          	mov    -0x8(%rbp),%rax
  61:	48 89 c7             	mov    %rax,%rdi
  64:	e8 00 00 00 00       	call   69 <_ZNSt11_Deque_baseIiSaIiEED1Ev+0x69>
  69:	90                   	nop
  6a:	c9                   	leave  
  6b:	c3                   	ret    

Disassembly of section .text._ZNSt5dequeIiSaIiEE5beginEv:

0000000000000000 <_ZNSt5dequeIiSaIiEE5beginEv>:
   0:	f3 0f 1e fa          	endbr64 
   4:	55                   	push   %rbp
   5:	48 89 e5             	mov    %rsp,%rbp
   8:	48 83 ec 10          	sub    $0x10,%rsp
   c:	48 89 7d f8          	mov    %rdi,-0x8(%rbp)
  10:	48 89 75 f0          	mov    %rsi,-0x10(%rbp)
  14:	48 8b 45 f0          	mov    -0x10(%rbp),%rax
  18:	48 8d 50 10          	lea    0x10(%rax),%rdx
  1c:	48 8b 45 f8          	mov    -0x8(%rbp),%rax
  20:	48 89 d6             	mov    %rdx,%rsi
  23:	48 89 c7             	mov    %rax,%rdi
  26:	e8 00 00 00 00       	call   2b <_ZNSt5dequeIiSaIiEE5beginEv+0x2b>
  2b:	48 8b 45 f8          	mov    -0x8(%rbp),%rax
  2f:	c9                   	leave  
  30:	c3                   	ret    

Disassembly of section .text._ZNSt5dequeIiSaIiEE3endEv:

0000000000000000 <_ZNSt5dequeIiSaIiEE3endEv>:
   0:	f3 0f 1e fa          	endbr64 
   4:	55                   	push   %rbp
   5:	48 89 e5             	mov    %rsp,%rbp
   8:	48 83 ec 10          	sub    $0x10,%rsp
   c:	48 89 7d f8          	mov    %rdi,-0x8(%rbp)
  10:	48 89 75 f0          	mov    %rsi,-0x10(%rbp)
  14:	48 8b 45 f0          	mov    -0x10(%rbp),%rax
  18:	48 8d 50 30          	lea    0x30(%rax),%rdx
  1c:	48 8b 45 f8          	mov    -0x8(%rbp),%rax
  20:	48 89 d6             	mov    %rdx,%rsi
  23:	48 89 c7             	mov    %rax,%rdi
  26:	e8 00 00 00 00       	call   2b <_ZNSt5dequeIiSaIiEE3endEv+0x2b>
  2b:	48 8b 45 f8          	mov    -0x8(%rbp),%rax
  2f:	c9                   	leave  
  30:	c3                   	ret    

Disassembly of section .text._ZNSt11_Deque_baseIiSaIiEE19_M_get_Tp_allocatorEv:

0000000000000000 <_ZNSt11_Deque_baseIiSaIiEE19_M_get_Tp_allocatorEv>:
   0:	f3 0f 1e fa          	endbr64 
   4:	55                   	push   %rbp
   5:	48 89 e5             	mov    %rsp,%rbp
   8:	48 89 7d f8          	mov    %rdi,-0x8(%rbp)
   c:	48 8b 45 f8          	mov    -0x8(%rbp),%rax
  10:	5d                   	pop    %rbp
  11:	c3                   	ret    

Disassembly of section .text._ZNSt5dequeIiSaIiEE15_M_destroy_dataESt15_Deque_iteratorIiRiPiES5_RKS0_:

0000000000000000 <_ZNSt5dequeIiSaIiEE15_M_destroy_dataESt15_Deque_iteratorIiRiPiES5_RKS0_>:
   0:	f3 0f 1e fa          	endbr64 
   4:	55                   	push   %rbp
   5:	48 89 e5             	mov    %rsp,%rbp
   8:	48 83 ec 50          	sub    $0x50,%rsp
   c:	48 89 7d c8          	mov    %rdi,-0x38(%rbp)
  10:	48 89 75 c0          	mov    %rsi,-0x40(%rbp)
  14:	48 89 55 b8          	mov    %rdx,-0x48(%rbp)
  18:	48 89 4d b0          	mov    %rcx,-0x50(%rbp)
  1c:	64 48 8b 04 25 28 00 	mov    %fs:0x28,%rax
  23:	00 00 
  25:	48 89 45 f8          	mov    %rax,-0x8(%rbp)
  29:	31 c0                	xor    %eax,%eax
  2b:	90                   	nop
  2c:	48 8b 45 f8          	mov    -0x8(%rbp),%rax
  30:	64 48 2b 04 25 28 00 	sub    %fs:0x28,%rax
  37:	00 00 
  39:	74 05                	je     40 <_ZNSt5dequeIiSaIiEE15_M_destroy_dataESt15_Deque_iteratorIiRiPiES5_RKS0_+0x40>
  3b:	e8 00 00 00 00       	call   40 <_ZNSt5dequeIiSaIiEE15_M_destroy_dataESt15_Deque_iteratorIiRiPiES5_RKS0_+0x40>
  40:	c9                   	leave  
  41:	c3                   	ret    

Disassembly of section .text._ZSt4moveIRiEONSt16remove_referenceIT_E4typeEOS2_:

0000000000000000 <_ZSt4moveIRiEONSt16remove_referenceIT_E4typeEOS2_>:
   0:	f3 0f 1e fa          	endbr64 
   4:	55                   	push   %rbp
   5:	48 89 e5             	mov    %rsp,%rbp
   8:	48 89 7d f8          	mov    %rdi,-0x8(%rbp)
   c:	48 8b 45 f8          	mov    -0x8(%rbp),%rax
  10:	5d                   	pop    %rbp
  11:	c3                   	ret    

Disassembly of section .text._ZNSt5dequeIiSaIiEE9push_backEOi:

0000000000000000 <_ZNSt5dequeIiSaIiEE9push_backEOi>:
   0:	f3 0f 1e fa          	endbr64 
   4:	55                   	push   %rbp
   5:	48 89 e5             	mov    %rsp,%rbp
   8:	48 83 ec 10          	sub    $0x10,%rsp
   c:	48 89 7d f8          	mov    %rdi,-0x8(%rbp)
  10:	48 89 75 f0          	mov    %rsi,-0x10(%rbp)
  14:	48 8b 45 f0          	mov    -0x10(%rbp),%rax
  18:	48 89 c7             	mov    %rax,%rdi
  1b:	e8 00 00 00 00       	call   20 <_ZNSt5dequeIiSaIiEE9push_backEOi+0x20>
  20:	48 89 c2             	mov    %rax,%rdx
  23:	48 8b 45 f8          	mov    -0x8(%rbp),%rax
  27:	48 89 d6             	mov    %rdx,%rsi
  2a:	48 89 c7             	mov    %rax,%rdi
  2d:	e8 00 00 00 00       	call   32 <_ZNSt5dequeIiSaIiEE9push_backEOi+0x32>
  32:	90                   	nop
  33:	c9                   	leave  
  34:	c3                   	ret    

Disassembly of section .text._ZNSt5dequeIiSaIiEE4backEv:

0000000000000000 <_ZNSt5dequeIiSaIiEE4backEv>:
   0:	f3 0f 1e fa          	endbr64 
   4:	55                   	push   %rbp
   5:	48 89 e5             	mov    %rsp,%rbp
   8:	48 83 ec 40          	sub    $0x40,%rsp
   c:	48 89 7d c8          	mov    %rdi,-0x38(%rbp)
  10:	64 48 8b 04 25 28 00 	mov    %fs:0x28,%rax
  17:	00 00 
  19:	48 89 45 f8          	mov    %rax,-0x8(%rbp)
  1d:	31 c0                	xor    %eax,%eax
  1f:	48 8d 45 d0          	lea    -0x30(%rbp),%rax
  23:	48 8b 55 c8          	mov    -0x38(%rbp),%rdx
  27:	48 89 d6             	mov    %rdx,%rsi
  2a:	48 89 c7             	mov    %rax,%rdi
  2d:	e8 00 00 00 00       	call   32 <_ZNSt5dequeIiSaIiEE4backEv+0x32>
  32:	48 8d 45 d0          	lea    -0x30(%rbp),%rax
  36:	48 89 c7             	mov    %rax,%rdi
  39:	e8 00 00 00 00       	call   3e <_ZNSt5dequeIiSaIiEE4backEv+0x3e>
  3e:	48 8d 45 d0          	lea    -0x30(%rbp),%rax
  42:	48 89 c7             	mov    %rax,%rdi
  45:	e8 00 00 00 00       	call   4a <_ZNSt5dequeIiSaIiEE4backEv+0x4a>
  4a:	48 8b 55 f8          	mov    -0x8(%rbp),%rdx
  4e:	64 48 2b 14 25 28 00 	sub    %fs:0x28,%rdx
  55:	00 00 
  57:	74 05                	je     5e <_ZNSt5dequeIiSaIiEE4backEv+0x5e>
  59:	e8 00 00 00 00       	call   5e <_ZNSt5dequeIiSaIiEE4backEv+0x5e>
  5e:	c9                   	leave  
  5f:	c3                   	ret    

Disassembly of section .text._ZNKSt11_Deque_baseIiSaIiEE19_M_get_Tp_allocatorEv:

0000000000000000 <_ZNKSt11_Deque_baseIiSaIiEE19_M_get_Tp_allocatorEv>:
   0:	f3 0f 1e fa          	endbr64 
   4:	55                   	push   %rbp
   5:	48 89 e5             	mov    %rsp,%rbp
   8:	48 89 7d f8          	mov    %rdi,-0x8(%rbp)
   c:	48 8b 45 f8          	mov    -0x8(%rbp),%rax
  10:	5d                   	pop    %rbp
  11:	c3                   	ret    

Disassembly of section .text._ZStneRKSaIiES1_:

0000000000000000 <_ZStneRKSaIiES1_>:
   0:	f3 0f 1e fa          	endbr64 
   4:	55                   	push   %rbp
   5:	48 89 e5             	mov    %rsp,%rbp
   8:	48 89 7d f8          	mov    %rdi,-0x8(%rbp)
   c:	48 89 75 f0          	mov    %rsi,-0x10(%rbp)
  10:	b8 00 00 00 00       	mov    $0x0,%eax
  15:	5d                   	pop    %rbp
  16:	c3                   	ret    

Disassembly of section .text._ZNKSt5dequeIiSaIiEE13get_allocatorEv:

0000000000000000 <_ZNKSt5dequeIiSaIiEE13get_allocatorEv>:
   0:	f3 0f 1e fa          	endbr64 
   4:	55                   	push   %rbp
   5:	48 89 e5             	mov    %rsp,%rbp
   8:	48 83 ec 20          	sub    $0x20,%rsp
   c:	48 89 7d e8          	mov    %rdi,-0x18(%rbp)
  10:	48 89 75 e0          	mov    %rsi,-0x20(%rbp)
  14:	64 48 8b 04 25 28 00 	mov    %fs:0x28,%rax
  1b:	00 00 
  1d:	48 89 45 f8          	mov    %rax,-0x8(%rbp)
  21:	31 c0                	xor    %eax,%eax
  23:	48 8b 55 e0          	mov    -0x20(%rbp),%rdx
  27:	48 8b 45 e8          	mov    -0x18(%rbp),%rax
  2b:	48 89 d6             	mov    %rdx,%rsi
  2e:	48 89 c7             	mov    %rax,%rdi
  31:	e8 00 00 00 00       	call   36 <_ZNKSt5dequeIiSaIiEE13get_allocatorEv+0x36>
  36:	48 8b 45 f8          	mov    -0x8(%rbp),%rax
  3a:	64 48 2b 04 25 28 00 	sub    %fs:0x28,%rax
  41:	00 00 
  43:	74 05                	je     4a <_ZNKSt5dequeIiSaIiEE13get_allocatorEv+0x4a>
  45:	e8 00 00 00 00       	call   4a <_ZNKSt5dequeIiSaIiEE13get_allocatorEv+0x4a>
  4a:	48 8b 45 e8          	mov    -0x18(%rbp),%rax
  4e:	c9                   	leave  
  4f:	c3                   	ret    

Disassembly of section .text._ZNSaIiED2Ev:

0000000000000000 <_ZNSaIiED1Ev>:
   0:	f3 0f 1e fa          	endbr64 
   4:	55                   	push   %rbp
   5:	48 89 e5             	mov    %rsp,%rbp
   8:	48 83 ec 10          	sub    $0x10,%rsp
   c:	48 89 7d f8          	mov    %rdi,-0x8(%rbp)
  10:	48 8b 45 f8          	mov    -0x8(%rbp),%rax
  14:	48 89 c7             	mov    %rax,%rdi
  17:	e8 00 00 00 00       	call   1c <_ZNSaIiED1Ev+0x1c>
  1c:	90                   	nop
  1d:	c9                   	leave  
  1e:	c3                   	ret    

Disassembly of section .text._ZNSt5dequeIiSaIiEE14_M_replace_mapIJRKS1_S0_EEEvDpOT_:

0000000000000000 <_ZNSt5dequeIiSaIiEE14_M_replace_mapIJRKS1_S0_EEEvDpOT_>:
   0:	f3 0f 1e fa          	endbr64 
   4:	55                   	push   %rbp
   5:	48 89 e5             	mov    %rsp,%rbp
   8:	53                   	push   %rbx
   9:	48 81 ec a8 00 00 00 	sub    $0xa8,%rsp
  10:	48 89 bd 68 ff ff ff 	mov    %rdi,-0x98(%rbp)
  17:	48 89 b5 60 ff ff ff 	mov    %rsi,-0xa0(%rbp)
  1e:	48 89 95 58 ff ff ff 	mov    %rdx,-0xa8(%rbp)
  25:	64 48 8b 04 25 28 00 	mov    %fs:0x28,%rax
  2c:	00 00 
  2e:	48 89 45 e8          	mov    %rax,-0x18(%rbp)
  32:	31 c0                	xor    %eax,%eax
  34:	48 8b 85 58 ff ff ff 	mov    -0xa8(%rbp),%rax
  3b:	48 89 c7             	mov    %rax,%rdi
  3e:	e8 00 00 00 00       	call   43 <_ZNSt5dequeIiSaIiEE14_M_replace_mapIJRKS1_S0_EEEvDpOT_+0x43>
  43:	48 89 c3             	mov    %rax,%rbx
  46:	48 8b 85 60 ff ff ff 	mov    -0xa0(%rbp),%rax
  4d:	48 89 c7             	mov    %rax,%rdi
  50:	e8 00 00 00 00       	call   55 <_ZNSt5dequeIiSaIiEE14_M_replace_mapIJRKS1_S0_EEEvDpOT_+0x55>
  55:	48 89 c1             	mov    %rax,%rcx
  58:	48 8d 45 90          	lea    -0x70(%rbp),%rax
  5c:	48 89 da             	mov    %rbx,%rdx
  5f:	48 89 ce             	mov    %rcx,%rsi
  62:	48 89 c7             	mov    %rax,%rdi
  65:	e8 00 00 00 00       	call   6a <_ZNSt5dequeIiSaIiEE14_M_replace_mapIJRKS1_S0_EEEvDpOT_+0x6a>
  6a:	48 8b 85 68 ff ff ff 	mov    -0x98(%rbp),%rax
  71:	48 89 c7             	mov    %rax,%rdi
  74:	e8 00 00 00 00       	call   79 <_ZNSt5dequeIiSaIiEE14_M_replace_mapIJRKS1_S0_EEEvDpOT_+0x79>
  79:	48 8b 9d 68 ff ff ff 	mov    -0x98(%rbp),%rbx
  80:	48 8d 85 70 ff ff ff 	lea    -0x90(%rbp),%rax
  87:	48 8b 95 68 ff ff ff 	mov    -0x98(%rbp),%rdx
  8e:	48 89 d6             	mov    %rdx,%rsi
  91:	48 89 c7             	mov    %rax,%rdi
  94:	e8 00 00 00 00       	call   99 <_ZNSt5dequeIiSaIiEE14_M_replace_mapIJRKS1_S0_EEEvDpOT_+0x99>
  99:	48 8b 45 88          	mov    -0x78(%rbp),%rax
  9d:	48 8b 00             	mov    (%rax),%rax
  a0:	48 89 c6             	mov    %rax,%rsi
  a3:	48 89 df             	mov    %rbx,%rdi
  a6:	e8 00 00 00 00       	call   ab <_ZNSt5dequeIiSaIiEE14_M_replace_mapIJRKS1_S0_EEEvDpOT_+0xab>
  ab:	48 8b 85 68 ff ff ff 	mov    -0x98(%rbp),%rax
  b2:	48 8b 95 68 ff ff ff 	mov    -0x98(%rbp),%rdx
  b9:	48 8b 52 08          	mov    0x8(%rdx),%rdx
  bd:	48 8b 8d 68 ff ff ff 	mov    -0x98(%rbp),%rcx
  c4:	48 8b 09             	mov    (%rcx),%rcx
  c7:	48 89 ce             	mov    %rcx,%rsi
  ca:	48 89 c7             	mov    %rax,%rdi
  cd:	e8 00 00 00 00       	call   d2 <_ZNSt5dequeIiSaIiEE14_M_replace_mapIJRKS1_S0_EEEvDpOT_+0xd2>
  d2:	48 8b 85 68 ff ff ff 	mov    -0x98(%rbp),%rax
  d9:	48 c7 00 00 00 00 00 	movq   $0x0,(%rax)
  e0:	48 8b 85 68 ff ff ff 	mov    -0x98(%rbp),%rax
  e7:	48 c7 40 08 00 00 00 	movq   $0x0,0x8(%rax)
  ee:	00 
  ef:	48 8b 85 68 ff ff ff 	mov    -0x98(%rbp),%rax
  f6:	48 8d 55 90          	lea    -0x70(%rbp),%rdx
  fa:	48 89 d6             	mov    %rdx,%rsi
  fd:	48 89 c7             	mov    %rax,%rdi
 100:	e8 00 00 00 00       	call   105 <_ZNSt5dequeIiSaIiEE14_M_replace_mapIJRKS1_S0_EEEvDpOT_+0x105>
 105:	48 8d 45 90          	lea    -0x70(%rbp),%rax
 109:	48 89 c7             	mov    %rax,%rdi
 10c:	e8 00 00 00 00       	call   111 <_ZNSt5dequeIiSaIiEE14_M_replace_mapIJRKS1_S0_EEEvDpOT_+0x111>
 111:	48 8b 45 e8          	mov    -0x18(%rbp),%rax
 115:	64 48 2b 04 25 28 00 	sub    %fs:0x28,%rax
 11c:	00 00 
 11e:	74 05                	je     125 <_ZNSt5dequeIiSaIiEE14_M_replace_mapIJRKS1_S0_EEEvDpOT_+0x125>
 120:	e8 00 00 00 00       	call   125 <_ZNSt5dequeIiSaIiEE14_M_replace_mapIJRKS1_S0_EEEvDpOT_+0x125>
 125:	48 8b 5d f8          	mov    -0x8(%rbp),%rbx
 129:	c9                   	leave  
 12a:	c3                   	ret    

Disassembly of section .text._ZSt15__alloc_on_copyISaIiEEvRT_RKS1_:

0000000000000000 <_ZSt15__alloc_on_copyISaIiEEvRT_RKS1_>:
   0:	f3 0f 1e fa          	endbr64 
   4:	55                   	push   %rbp
   5:	48 89 e5             	mov    %rsp,%rbp
   8:	48 89 7d f8          	mov    %rdi,-0x8(%rbp)
   c:	48 89 75 f0          	mov    %rsi,-0x10(%rbp)
  10:	90                   	nop
  11:	5d                   	pop    %rbp
  12:	c3                   	ret    

Disassembly of section .text._ZNKSt5dequeIiSaIiEE4sizeEv:

0000000000000000 <_ZNKSt5dequeIiSaIiEE4sizeEv>:
   0:	f3 0f 1e fa          	endbr64 
   4:	55                   	push   %rbp
   5:	48 89 e5             	mov    %rsp,%rbp
   8:	48 83 ec 10          	sub    $0x10,%rsp
   c:	48 89 7d f8          	mov    %rdi,-0x8(%rbp)
  10:	48 8b 45 f8          	mov    -0x8(%rbp),%rax
  14:	48 8d 50 10          	lea    0x10(%rax),%rdx
  18:	48 8b 45 f8          	mov    -0x8(%rbp),%rax
  1c:	48 83 c0 30          	add    $0x30,%rax
  20:	48 89 d6             	mov    %rdx,%rsi
  23:	48 89 c7             	mov    %rax,%rdi
  26:	e8 00 00 00 00       	call   2b <_ZNKSt5dequeIiSaIiEE4sizeEv+0x2b>
  2b:	c9                   	leave  
  2c:	c3                   	ret    

Disassembly of section .text._ZNSt5dequeIiSaIiEE15_M_erase_at_endESt15_Deque_iteratorIiRiPiE:

0000000000000000 <_ZNSt5dequeIiSaIiEE15_M_erase_at_endESt15_Deque_iteratorIiRiPiE>:
   0:	f3 0f 1e fa          	endbr64 
   4:	55                   	push   %rbp
   5:	48 89 e5             	mov    %rsp,%rbp
   8:	53                   	push   %rbx
   9:	48 83 ec 68          	sub    $0x68,%rsp
   d:	48 89 7d 98          	mov    %rdi,-0x68(%rbp)
  11:	48 89 75 90          	mov    %rsi,-0x70(%rbp)
  15:	64 48 8b 04 25 28 00 	mov    %fs:0x28,%rax
  1c:	00 00 
  1e:	48 89 45 e8          	mov    %rax,-0x18(%rbp)
  22:	31 c0                	xor    %eax,%eax
  24:	48 8b 45 98          	mov    -0x68(%rbp),%rax
  28:	48 89 c7             	mov    %rax,%rdi
  2b:	e8 00 00 00 00       	call   30 <_ZNSt5dequeIiSaIiEE15_M_erase_at_endESt15_Deque_iteratorIiRiPiE+0x30>
  30:	48 89 c3             	mov    %rax,%rbx
  33:	48 8d 45 a0          	lea    -0x60(%rbp),%rax
  37:	48 8b 55 98          	mov    -0x68(%rbp),%rdx
  3b:	48 89 d6             	mov    %rdx,%rsi
  3e:	48 89 c7             	mov    %rax,%rdi
  41:	e8 00 00 00 00       	call   46 <_ZNSt5dequeIiSaIiEE15_M_erase_at_endESt15_Deque_iteratorIiRiPiE+0x46>
  46:	48 8b 55 90          	mov    -0x70(%rbp),%rdx
  4a:	48 8d 45 c0          	lea    -0x40(%rbp),%rax
  4e:	48 89 d6             	mov    %rdx,%rsi
  51:	48 89 c7             	mov    %rax,%rdi
  54:	e8 00 00 00 00       	call   59 <_ZNSt5dequeIiSaIiEE15_M_erase_at_endESt15_Deque_iteratorIiRiPiE+0x59>
  59:	48 8d 55 a0          	lea    -0x60(%rbp),%rdx
  5d:	48 8d 75 c0          	lea    -0x40(%rbp),%rsi
  61:	48 8b 45 98          	mov    -0x68(%rbp),%rax
  65:	48 89 d9             	mov    %rbx,%rcx
  68:	48 89 c7             	mov    %rax,%rdi
  6b:	e8 00 00 00 00       	call   70 <_ZNSt5dequeIiSaIiEE15_M_erase_at_endESt15_Deque_iteratorIiRiPiE+0x70>
  70:	48 8b 45 98          	mov    -0x68(%rbp),%rax
  74:	48 8b 55 98          	mov    -0x68(%rbp),%rdx
  78:	48 8b 52 48          	mov    0x48(%rdx),%rdx
  7c:	48 83 c2 08          	add    $0x8,%rdx
  80:	48 8b 4d 90          	mov    -0x70(%rbp),%rcx
  84:	48 8b 49 18          	mov    0x18(%rcx),%rcx
  88:	48 83 c1 08          	add    $0x8,%rcx
  8c:	48 89 ce             	mov    %rcx,%rsi
  8f:	48 89 c7             	mov    %rax,%rdi
  92:	e8 00 00 00 00       	call   97 <_ZNSt5dequeIiSaIiEE15_M_erase_at_endESt15_Deque_iteratorIiRiPiE+0x97>
  97:	48 8b 4d 98          	mov    -0x68(%rbp),%rcx
  9b:	48 8b 75 90          	mov    -0x70(%rbp),%rsi
  9f:	48 8b 06             	mov    (%rsi),%rax
  a2:	48 8b 56 08          	mov    0x8(%rsi),%rdx
  a6:	48 89 41 30          	mov    %rax,0x30(%rcx)
  aa:	48 89 51 38          	mov    %rdx,0x38(%rcx)
  ae:	48 8b 46 10          	mov    0x10(%rsi),%rax
  b2:	48 8b 56 18          	mov    0x18(%rsi),%rdx
  b6:	48 89 41 40          	mov    %rax,0x40(%rcx)
  ba:	48 89 51 48          	mov    %rdx,0x48(%rcx)
  be:	90                   	nop
  bf:	48 8b 45 e8          	mov    -0x18(%rbp),%rax
  c3:	64 48 2b 04 25 28 00 	sub    %fs:0x28,%rax
  ca:	00 00 
  cc:	74 05                	je     d3 <_ZNSt5dequeIiSaIiEE15_M_erase_at_endESt15_Deque_iteratorIiRiPiE+0xd3>
  ce:	e8 00 00 00 00       	call   d3 <_ZNSt5dequeIiSaIiEE15_M_erase_at_endESt15_Deque_iteratorIiRiPiE+0xd3>
  d3:	48 8b 5d f8          	mov    -0x8(%rbp),%rbx
  d7:	c9                   	leave  
  d8:	c3                   	ret    

Disassembly of section .text._ZNKSt5dequeIiSaIiEE5beginEv:

0000000000000000 <_ZNKSt5dequeIiSaIiEE5beginEv>:
   0:	f3 0f 1e fa          	endbr64 
   4:	55                   	push   %rbp
   5:	48 89 e5             	mov    %rsp,%rbp
   8:	48 83 ec 10          	sub    $0x10,%rsp
   c:	48 89 7d f8          	mov    %rdi,-0x8(%rbp)
  10:	48 89 75 f0          	mov    %rsi,-0x10(%rbp)
  14:	48 8b 45 f0          	mov    -0x10(%rbp),%rax
  18:	48 8d 50 10          	lea    0x10(%rax),%rdx
  1c:	48 8b 45 f8          	mov    -0x8(%rbp),%rax
  20:	48 89 d6             	mov    %rdx,%rsi
  23:	48 89 c7             	mov    %rax,%rdi
  26:	e8 00 00 00 00       	call   2b <_ZNKSt5dequeIiSaIiEE5beginEv+0x2b>
  2b:	48 8b 45 f8          	mov    -0x8(%rbp),%rax
  2f:	c9                   	leave  
  30:	c3                   	ret    

Disassembly of section .text._ZNKSt5dequeIiSaIiEE3endEv:

0000000000000000 <_ZNKSt5dequeIiSaIiEE3endEv>:
   0:	f3 0f 1e fa          	endbr64 
   4:	55                   	push   %rbp
   5:	48 89 e5             	mov    %rsp,%rbp
   8:	48 83 ec 10          	sub    $0x10,%rsp
   c:	48 89 7d f8          	mov    %rdi,-0x8(%rbp)
  10:	48 89 75 f0          	mov    %rsi,-0x10(%rbp)
  14:	48 8b 45 f0          	mov    -0x10(%rbp),%rax
  18:	48 8d 50 30          	lea    0x30(%rax),%rdx
  1c:	48 8b 45 f8          	mov    -0x8(%rbp),%rax
  20:	48 89 d6             	mov    %rdx,%rsi
  23:	48 89 c7             	mov    %rax,%rdi
  26:	e8 00 00 00 00       	call   2b <_ZNKSt5dequeIiSaIiEE3endEv+0x2b>
  2b:	48 8b 45 f8          	mov    -0x8(%rbp),%rax
  2f:	c9                   	leave  
  30:	c3                   	ret    

Disassembly of section .text._ZNSt15_Deque_iteratorIiRiPiEC2ERKS2_:

0000000000000000 <_ZNSt15_Deque_iteratorIiRiPiEC1ERKS2_>:
   0:	f3 0f 1e fa          	endbr64 
   4:	55                   	push   %rbp
   5:	48 89 e5             	mov    %rsp,%rbp
   8:	48 89 7d f8          	mov    %rdi,-0x8(%rbp)
   c:	48 89 75 f0          	mov    %rsi,-0x10(%rbp)
  10:	48 8b 45 f0          	mov    -0x10(%rbp),%rax
  14:	48 8b 10             	mov    (%rax),%rdx
  17:	48 8b 45 f8          	mov    -0x8(%rbp),%rax
  1b:	48 89 10             	mov    %rdx,(%rax)
  1e:	48 8b 45 f0          	mov    -0x10(%rbp),%rax
  22:	48 8b 50 08          	mov    0x8(%rax),%rdx
  26:	48 8b 45 f8          	mov    -0x8(%rbp),%rax
  2a:	48 89 50 08          	mov    %rdx,0x8(%rax)
  2e:	48 8b 45 f0          	mov    -0x10(%rbp),%rax
  32:	48 8b 50 10          	mov    0x10(%rax),%rdx
  36:	48 8b 45 f8          	mov    -0x8(%rbp),%rax
  3a:	48 89 50 10          	mov    %rdx,0x10(%rax)
  3e:	48 8b 45 f0          	mov    -0x10(%rbp),%rax
  42:	48 8b 50 18          	mov    0x18(%rax),%rdx
  46:	48 8b 45 f8          	mov    -0x8(%rbp),%rax
  4a:	48 89 50 18          	mov    %rdx,0x18(%rax)
  4e:	90                   	nop
  4f:	5d                   	pop    %rbp
  50:	c3                   	ret    

Disassembly of section .text._ZSt4copyISt15_Deque_iteratorIiRKiPS1_ES0_IiRiPiEET0_T_S9_S8_:

0000000000000000 <_ZSt4copyISt15_Deque_iteratorIiRKiPS1_ES0_IiRiPiEET0_T_S9_S8_>:
   0:	f3 0f 1e fa          	endbr64 
   4:	55                   	push   %rbp
   5:	48 89 e5             	mov    %rsp,%rbp
   8:	48 81 ec d0 00 00 00 	sub    $0xd0,%rsp
   f:	48 89 bd 48 ff ff ff 	mov    %rdi,-0xb8(%rbp)
  16:	48 89 b5 40 ff ff ff 	mov    %rsi,-0xc0(%rbp)
  1d:	48 89 95 38 ff ff ff 	mov    %rdx,-0xc8(%rbp)
  24:	48 89 8d 30 ff ff ff 	mov    %rcx,-0xd0(%rbp)
  2b:	64 48 8b 04 25 28 00 	mov    %fs:0x28,%rax
  32:	00 00 
  34:	48 89 45 f8          	mov    %rax,-0x8(%rbp)
  38:	31 c0                	xor    %eax,%eax
  3a:	48 8b 95 30 ff ff ff 	mov    -0xd0(%rbp),%rdx
  41:	48 8d 45 d0          	lea    -0x30(%rbp),%rax
  45:	48 89 d6             	mov    %rdx,%rsi
  48:	48 89 c7             	mov    %rax,%rdi
  4b:	e8 00 00 00 00       	call   50 <_ZSt4copyISt15_Deque_iteratorIiRKiPS1_ES0_IiRiPiEET0_T_S9_S8_+0x50>
  50:	48 8b 95 38 ff ff ff 	mov    -0xc8(%rbp),%rdx
  57:	48 8d 45 90          	lea    -0x70(%rbp),%rax
  5b:	48 89 d6             	mov    %rdx,%rsi
  5e:	48 89 c7             	mov    %rax,%rdi
  61:	e8 00 00 00 00       	call   66 <_ZSt4copyISt15_Deque_iteratorIiRKiPS1_ES0_IiRiPiEET0_T_S9_S8_+0x66>
  66:	48 8d 45 b0          	lea    -0x50(%rbp),%rax
  6a:	48 8d 55 90          	lea    -0x70(%rbp),%rdx
  6e:	48 89 d6             	mov    %rdx,%rsi
  71:	48 89 c7             	mov    %rax,%rdi
  74:	e8 00 00 00 00       	call   79 <_ZSt4copyISt15_Deque_iteratorIiRKiPS1_ES0_IiRiPiEET0_T_S9_S8_+0x79>
  79:	48 8b 95 40 ff ff ff 	mov    -0xc0(%rbp),%rdx
  80:	48 8d 85 50 ff ff ff 	lea    -0xb0(%rbp),%rax
  87:	48 89 d6             	mov    %rdx,%rsi
  8a:	48 89 c7             	mov    %rax,%rdi
  8d:	e8 00 00 00 00       	call   92 <_ZSt4copyISt15_Deque_iteratorIiRKiPS1_ES0_IiRiPiEET0_T_S9_S8_+0x92>
  92:	48 8d 85 70 ff ff ff 	lea    -0x90(%rbp),%rax
  99:	48 8d 95 50 ff ff ff 	lea    -0xb0(%rbp),%rdx
  a0:	48 89 d6             	mov    %rdx,%rsi
  a3:	48 89 c7             	mov    %rax,%rdi
  a6:	e8 00 00 00 00       	call   ab <_ZSt4copyISt15_Deque_iteratorIiRKiPS1_ES0_IiRiPiEET0_T_S9_S8_+0xab>
  ab:	48 8b 85 48 ff ff ff 	mov    -0xb8(%rbp),%rax
  b2:	48 8d 4d d0          	lea    -0x30(%rbp),%rcx
  b6:	48 8d 55 b0          	lea    -0x50(%rbp),%rdx
  ba:	48 8d b5 70 ff ff ff 	lea    -0x90(%rbp),%rsi
  c1:	48 89 c7             	mov    %rax,%rdi
  c4:	e8 00 00 00 00       	call   c9 <_ZSt4copyISt15_Deque_iteratorIiRKiPS1_ES0_IiRiPiEET0_T_S9_S8_+0xc9>
  c9:	48 8b 45 f8          	mov    -0x8(%rbp),%rax
  cd:	64 48 2b 04 25 28 00 	sub    %fs:0x28,%rax
  d4:	00 00 
  d6:	74 05                	je     dd <_ZSt4copyISt15_Deque_iteratorIiRKiPS1_ES0_IiRiPiEET0_T_S9_S8_+0xdd>
  d8:	e8 00 00 00 00       	call   dd <_ZSt4copyISt15_Deque_iteratorIiRKiPS1_ES0_IiRiPiEET0_T_S9_S8_+0xdd>
  dd:	48 8b 85 48 ff ff ff 	mov    -0xb8(%rbp),%rax
  e4:	c9                   	leave  
  e5:	c3                   	ret    

Disassembly of section .text._ZStplRKSt15_Deque_iteratorIiRKiPS0_El:

0000000000000000 <_ZStplRKSt15_Deque_iteratorIiRKiPS0_El>:
   0:	f3 0f 1e fa          	endbr64 
   4:	55                   	push   %rbp
   5:	48 89 e5             	mov    %rsp,%rbp
   8:	48 83 ec 20          	sub    $0x20,%rsp
   c:	48 89 7d f8          	mov    %rdi,-0x8(%rbp)
  10:	48 89 75 f0          	mov    %rsi,-0x10(%rbp)
  14:	48 89 55 e8          	mov    %rdx,-0x18(%rbp)
  18:	48 8b 55 f0          	mov    -0x10(%rbp),%rdx
  1c:	48 8b 45 f8          	mov    -0x8(%rbp),%rax
  20:	48 89 d6             	mov    %rdx,%rsi
  23:	48 89 c7             	mov    %rax,%rdi
  26:	e8 00 00 00 00       	call   2b <_ZStplRKSt15_Deque_iteratorIiRKiPS0_El+0x2b>
  2b:	48 8b 55 e8          	mov    -0x18(%rbp),%rdx
  2f:	48 8b 45 f8          	mov    -0x8(%rbp),%rax
  33:	48 89 d6             	mov    %rdx,%rsi
  36:	48 89 c7             	mov    %rax,%rdi
  39:	e8 00 00 00 00       	call   3e <_ZStplRKSt15_Deque_iteratorIiRKiPS0_El+0x3e>
  3e:	90                   	nop
  3f:	48 8b 45 f8          	mov    -0x8(%rbp),%rax
  43:	c9                   	leave  
  44:	c3                   	ret    

Disassembly of section .text._ZNSt15_Deque_iteratorIiRKiPS0_EC2ERKS3_:

0000000000000000 <_ZNSt15_Deque_iteratorIiRKiPS0_EC1ERKS3_>:
   0:	f3 0f 1e fa          	endbr64 
   4:	55                   	push   %rbp
   5:	48 89 e5             	mov    %rsp,%rbp
   8:	48 89 7d f8          	mov    %rdi,-0x8(%rbp)
   c:	48 89 75 f0          	mov    %rsi,-0x10(%rbp)
  10:	48 8b 45 f0          	mov    -0x10(%rbp),%rax
  14:	48 8b 10             	mov    (%rax),%rdx
  17:	48 8b 45 f8          	mov    -0x8(%rbp),%rax
  1b:	48 89 10             	mov    %rdx,(%rax)
  1e:	48 8b 45 f0          	mov    -0x10(%rbp),%rax
  22:	48 8b 50 08          	mov    0x8(%rax),%rdx
  26:	48 8b 45 f8          	mov    -0x8(%rbp),%rax
  2a:	48 89 50 08          	mov    %rdx,0x8(%rax)
  2e:	48 8b 45 f0          	mov    -0x10(%rbp),%rax
  32:	48 8b 50 10          	mov    0x10(%rax),%rdx
  36:	48 8b 45 f8          	mov    -0x8(%rbp),%rax
  3a:	48 89 50 10          	mov    %rdx,0x10(%rax)
  3e:	48 8b 45 f0          	mov    -0x10(%rbp),%rax
  42:	48 8b 50 18          	mov    0x18(%rax),%rdx
  46:	48 8b 45 f8          	mov    -0x8(%rbp),%rax
  4a:	48 89 50 18          	mov    %rdx,0x18(%rax)
  4e:	90                   	nop
  4f:	5d                   	pop    %rbp
  50:	c3                   	ret    

Disassembly of section .text._ZNSt5dequeIiSaIiEE19_M_range_insert_auxISt15_Deque_iteratorIiRKiPS4_EEEvS3_IiRiPiET_SB_St20forward_iterator_tag:

0000000000000000 <_ZNSt5dequeIiSaIiEE19_M_range_insert_auxISt15_Deque_iteratorIiRKiPS4_EEEvS3_IiRiPiET_SB_St20forward_iterator_tag>:
   0:	f3 0f 1e fa          	endbr64 
   4:	55                   	push   %rbp
   5:	48 89 e5             	mov    %rsp,%rbp
   8:	53                   	push   %rbx
   9:	48 81 ec e8 00 00 00 	sub    $0xe8,%rsp
  10:	48 89 bd 28 ff ff ff 	mov    %rdi,-0xd8(%rbp)
  17:	48 89 b5 20 ff ff ff 	mov    %rsi,-0xe0(%rbp)
  1e:	48 89 95 18 ff ff ff 	mov    %rdx,-0xe8(%rbp)
  25:	48 89 8d 10 ff ff ff 	mov    %rcx,-0xf0(%rbp)
  2c:	64 48 8b 04 25 28 00 	mov    %fs:0x28,%rax
  33:	00 00 
  35:	48 89 45 e8          	mov    %rax,-0x18(%rbp)
  39:	31 c0                	xor    %eax,%eax
  3b:	48 8b 95 10 ff ff ff 	mov    -0xf0(%rbp),%rdx
  42:	48 8d 45 c0          	lea    -0x40(%rbp),%rax
  46:	48 89 d6             	mov    %rdx,%rsi
  49:	48 89 c7             	mov    %rax,%rdi
  4c:	e8 00 00 00 00       	call   51 <_ZNSt5dequeIiSaIiEE19_M_range_insert_auxISt15_Deque_iteratorIiRKiPS4_EEEvS3_IiRiPiET_SB_St20forward_iterator_tag+0x51>
  51:	48 8b 95 18 ff ff ff 	mov    -0xe8(%rbp),%rdx
  58:	48 8d 45 a0          	lea    -0x60(%rbp),%rax
  5c:	48 89 d6             	mov    %rdx,%rsi
  5f:	48 89 c7             	mov    %rax,%rdi
  62:	e8 00 00 00 00       	call   67 <_ZNSt5dequeIiSaIiEE19_M_range_insert_auxISt15_Deque_iteratorIiRKiPS4_EEEvS3_IiRiPiET_SB_St20forward_iterator_tag+0x67>
  67:	48 8d 55 c0          	lea    -0x40(%rbp),%rdx
  6b:	48 8d 45 a0          	lea    -0x60(%rbp),%rax
  6f:	48 89 d6             	mov    %rdx,%rsi
  72:	48 89 c7             	mov    %rax,%rdi
  75:	e8 00 00 00 00       	call   7a <_ZNSt5dequeIiSaIiEE19_M_range_insert_auxISt15_Deque_iteratorIiRKiPS4_EEEvS3_IiRiPiET_SB_St20forward_iterator_tag+0x7a>
  7a:	48 89 85 38 ff ff ff 	mov    %rax,-0xc8(%rbp)
  81:	48 8b 85 20 ff ff ff 	mov    -0xe0(%rbp),%rax
  88:	48 8b 10             	mov    (%rax),%rdx
  8b:	48 8b 85 28 ff ff ff 	mov    -0xd8(%rbp),%rax
  92:	48 8b 40 10          	mov    0x10(%rax),%rax
  96:	48 39 c2             	cmp    %rax,%rdx
  99:	0f 85 cd 00 00 00    	jne    16c <_ZNSt5dequeIiSaIiEE19_M_range_insert_auxISt15_Deque_iteratorIiRKiPS4_EEEvS3_IiRiPiET_SB_St20forward_iterator_tag+0x16c>
  9f:	48 8d 85 40 ff ff ff 	lea    -0xc0(%rbp),%rax
  a6:	48 8b 95 38 ff ff ff 	mov    -0xc8(%rbp),%rdx
  ad:	48 8b 8d 28 ff ff ff 	mov    -0xd8(%rbp),%rcx
  b4:	48 89 ce             	mov    %rcx,%rsi
  b7:	48 89 c7             	mov    %rax,%rdi
  ba:	e8 00 00 00 00       	call   bf <_ZNSt5dequeIiSaIiEE19_M_range_insert_auxISt15_Deque_iteratorIiRKiPS4_EEEvS3_IiRiPiET_SB_St20forward_iterator_tag+0xbf>
  bf:	48 8b 85 28 ff ff ff 	mov    -0xd8(%rbp),%rax
  c6:	48 89 c7             	mov    %rax,%rdi
  c9:	e8 00 00 00 00       	call   ce <_ZNSt5dequeIiSaIiEE19_M_range_insert_auxISt15_Deque_iteratorIiRKiPS4_EEEvS3_IiRiPiET_SB_St20forward_iterator_tag+0xce>
  ce:	48 89 c3             	mov    %rax,%rbx
  d1:	48 8d 95 40 ff ff ff 	lea    -0xc0(%rbp),%rdx
  d8:	48 8d 45 a0          	lea    -0x60(%rbp),%rax
  dc:	48 89 d6             	mov    %rdx,%rsi
  df:	48 89 c7             	mov    %rax,%rdi
  e2:	e8 00 00 00 00       	call   e7 <_ZNSt5dequeIiSaIiEE19_M_range_insert_auxISt15_Deque_iteratorIiRKiPS4_EEEvS3_IiRiPiET_SB_St20forward_iterator_tag+0xe7>
  e7:	48 8b 95 10 ff ff ff 	mov    -0xf0(%rbp),%rdx
  ee:	48 8d 45 80          	lea    -0x80(%rbp),%rax
  f2:	48 89 d6             	mov    %rdx,%rsi
  f5:	48 89 c7             	mov    %rax,%rdi
  f8:	e8 00 00 00 00       	call   fd <_ZNSt5dequeIiSaIiEE19_M_range_insert_auxISt15_Deque_iteratorIiRKiPS4_EEEvS3_IiRiPiET_SB_St20forward_iterator_tag+0xfd>
  fd:	48 8b 95 18 ff ff ff 	mov    -0xe8(%rbp),%rdx
 104:	48 8d 85 60 ff ff ff 	lea    -0xa0(%rbp),%rax
 10b:	48 89 d6             	mov    %rdx,%rsi
 10e:	48 89 c7             	mov    %rax,%rdi
 111:	e8 00 00 00 00       	call   116 <_ZNSt5dequeIiSaIiEE19_M_range_insert_auxISt15_Deque_iteratorIiRKiPS4_EEEvS3_IiRiPiET_SB_St20forward_iterator_tag+0x116>
 116:	48 8d 45 c0          	lea    -0x40(%rbp),%rax
 11a:	48 8d 4d a0          	lea    -0x60(%rbp),%rcx
 11e:	48 8d 55 80          	lea    -0x80(%rbp),%rdx
 122:	48 8d b5 60 ff ff ff 	lea    -0xa0(%rbp),%rsi
 129:	49 89 d8             	mov    %rbx,%r8
 12c:	48 89 c7             	mov    %rax,%rdi
 12f:	e8 00 00 00 00       	call   134 <_ZNSt5dequeIiSaIiEE19_M_range_insert_auxISt15_Deque_iteratorIiRKiPS4_EEEvS3_IiRiPiET_SB_St20forward_iterator_tag+0x134>
 134:	48 8b 8d 28 ff ff ff 	mov    -0xd8(%rbp),%rcx
 13b:	48 8b 85 40 ff ff ff 	mov    -0xc0(%rbp),%rax
 142:	48 8b 95 48 ff ff ff 	mov    -0xb8(%rbp),%rdx
 149:	48 89 41 10          	mov    %rax,0x10(%rcx)
 14d:	48 89 51 18          	mov    %rdx,0x18(%rcx)
 151:	48 8b 85 50 ff ff ff 	mov    -0xb0(%rbp),%rax
 158:	48 8b 95 58 ff ff ff 	mov    -0xa8(%rbp),%rdx
 15f:	48 89 41 20          	mov    %rax,0x20(%rcx)
 163:	48 89 51 28          	mov    %rdx,0x28(%rcx)
 167:	e9 fb 01 00 00       	jmp    367 <_ZNSt5dequeIiSaIiEE19_M_range_insert_auxISt15_Deque_iteratorIiRKiPS4_EEEvS3_IiRiPiET_SB_St20forward_iterator_tag+0x367>
 16c:	48 8b 85 20 ff ff ff 	mov    -0xe0(%rbp),%rax
 173:	48 8b 10             	mov    (%rax),%rdx
 176:	48 8b 85 28 ff ff ff 	mov    -0xd8(%rbp),%rax
 17d:	48 8b 40 30          	mov    0x30(%rax),%rax
 181:	48 39 c2             	cmp    %rax,%rdx
 184:	0f 85 d1 00 00 00    	jne    25b <_ZNSt5dequeIiSaIiEE19_M_range_insert_auxISt15_Deque_iteratorIiRKiPS4_EEEvS3_IiRiPiET_SB_St20forward_iterator_tag+0x25b>
 18a:	48 8d 85 40 ff ff ff 	lea    -0xc0(%rbp),%rax
 191:	48 8b 95 38 ff ff ff 	mov    -0xc8(%rbp),%rdx
 198:	48 8b 8d 28 ff ff ff 	mov    -0xd8(%rbp),%rcx
 19f:	48 89 ce             	mov    %rcx,%rsi
 1a2:	48 89 c7             	mov    %rax,%rdi
 1a5:	e8 00 00 00 00       	call   1aa <_ZNSt5dequeIiSaIiEE19_M_range_insert_auxISt15_Deque_iteratorIiRKiPS4_EEEvS3_IiRiPiET_SB_St20forward_iterator_tag+0x1aa>
 1aa:	48 8b 85 28 ff ff ff 	mov    -0xd8(%rbp),%rax
 1b1:	48 89 c7             	mov    %rax,%rdi
 1b4:	e8 00 00 00 00       	call   1b9 <_ZNSt5dequeIiSaIiEE19_M_range_insert_auxISt15_Deque_iteratorIiRKiPS4_EEEvS3_IiRiPiET_SB_St20forward_iterator_tag+0x1b9>
 1b9:	48 89 c3             	mov    %rax,%rbx
 1bc:	48 8b 85 28 ff ff ff 	mov    -0xd8(%rbp),%rax
 1c3:	48 8d 50 30          	lea    0x30(%rax),%rdx
 1c7:	48 8d 45 a0          	lea    -0x60(%rbp),%rax
 1cb:	48 89 d6             	mov    %rdx,%rsi
 1ce:	48 89 c7             	mov    %rax,%rdi
 1d1:	e8 00 00 00 00       	call   1d6 <_ZNSt5dequeIiSaIiEE19_M_range_insert_auxISt15_Deque_iteratorIiRKiPS4_EEEvS3_IiRiPiET_SB_St20forward_iterator_tag+0x1d6>
 1d6:	48 8b 95 10 ff ff ff 	mov    -0xf0(%rbp),%rdx
 1dd:	48 8d 45 80          	lea    -0x80(%rbp),%rax
 1e1:	48 89 d6             	mov    %rdx,%rsi
 1e4:	48 89 c7             	mov    %rax,%rdi
 1e7:	e8 00 00 00 00       	call   1ec <_ZNSt5dequeIiSaIiEE19_M_range_insert_auxISt15_Deque_iteratorIiRKiPS4_EEEvS3_IiRiPiET_SB_St20forward_iterator_tag+0x1ec>
 1ec:	48 8b 95 18 ff ff ff 	mov    -0xe8(%rbp),%rdx
 1f3:	48 8d 85 60 ff ff ff 	lea    -0xa0(%rbp),%rax
 1fa:	48 89 d6             	mov    %rdx,%rsi
 1fd:	48 89 c7             	mov    %rax,%rdi
 200:	e8 00 00 00 00       	call   205 <_ZNSt5dequeIiSaIiEE19_M_range_insert_auxISt15_Deque_iteratorIiRKiPS4_EEEvS3_IiRiPiET_SB_St20forward_iterator_tag+0x205>
 205:	48 8d 45 c0          	lea    -0x40(%rbp),%rax
 209:	48 8d 4d a0          	lea    -0x60(%rbp),%rcx
 20d:	48 8d 55 80          	lea    -0x80(%rbp),%rdx
 211:	48 8d b5 60 ff ff ff 	lea    -0xa0(%rbp),%rsi
 218:	49 89 d8             	mov    %rbx,%r8
 21b:	48 89 c7             	mov    %rax,%rdi
 21e:	e8 00 00 00 00       	call   223 <_ZNSt5dequeIiSaIiEE19_M_range_insert_auxISt15_Deque_iteratorIiRKiPS4_EEEvS3_IiRiPiET_SB_St20forward_iterator_tag+0x223>
 223:	48 8b 8d 28 ff ff ff 	mov    -0xd8(%rbp),%rcx
 22a:	48 8b 85 40 ff ff ff 	mov    -0xc0(%rbp),%rax
 231:	48 8b 95 48 ff ff ff 	mov    -0xb8(%rbp),%rdx
 238:	48 89 41 30          	mov    %rax,0x30(%rcx)
 23c:	48 89 51 38          	mov    %rdx,0x38(%rcx)
 240:	48 8b 85 50 ff ff ff 	mov    -0xb0(%rbp),%rax
 247:	48 8b 95 58 ff ff ff 	mov    -0xa8(%rbp),%rdx
 24e:	48 89 41 40          	mov    %rax,0x40(%rcx)
 252:	48 89 51 48          	mov    %rdx,0x48(%rcx)
 256:	e9 0c 01 00 00       	jmp    367 <_ZNSt5dequeIiSaIiEE19_M_range_insert_auxISt15_Deque_iteratorIiRKiPS4_EEEvS3_IiRiPiET_SB_St20forward_iterator_tag+0x367>
 25b:	48 8b 95 10 ff ff ff 	mov    -0xf0(%rbp),%rdx
 262:	48 8d 45 c0          	lea    -0x40(%rbp),%rax
 266:	48 89 d6             	mov    %rdx,%rsi
 269:	48 89 c7             	mov    %rax,%rdi
 26c:	e8 00 00 00 00       	call   271 <_ZNSt5dequeIiSaIiEE19_M_range_insert_auxISt15_Deque_iteratorIiRKiPS4_EEEvS3_IiRiPiET_SB_St20forward_iterator_tag+0x271>
 271:	48 8b 95 18 ff ff ff 	mov    -0xe8(%rbp),%rdx
 278:	48 8d 45 a0          	lea    -0x60(%rbp),%rax
 27c:	48 89 d6             	mov    %rdx,%rsi
 27f:	48 89 c7             	mov    %rax,%rdi
 282:	e8 00 00 00 00       	call   287 <_ZNSt5dequeIiSaIiEE19_M_range_insert_auxISt15_Deque_iteratorIiRKiPS4_EEEvS3_IiRiPiET_SB_St20forward_iterator_tag+0x287>
 287:	48 8b 95 20 ff ff ff 	mov    -0xe0(%rbp),%rdx
 28e:	48 8d 45 80          	lea    -0x80(%rbp),%rax
 292:	48 89 d6             	mov    %rdx,%rsi
 295:	48 89 c7             	mov    %rax,%rdi
 298:	e8 00 00 00 00       	call   29d <_ZNSt5dequeIiSaIiEE19_M_range_insert_auxISt15_Deque_iteratorIiRKiPS4_EEEvS3_IiRiPiET_SB_St20forward_iterator_tag+0x29d>
 29d:	48 8b bd 38 ff ff ff 	mov    -0xc8(%rbp),%rdi
 2a4:	48 8d 4d c0          	lea    -0x40(%rbp),%rcx
 2a8:	48 8d 55 a0          	lea    -0x60(%rbp),%rdx
 2ac:	48 8d 75 80          	lea    -0x80(%rbp),%rsi
 2b0:	48 8b 85 28 ff ff ff 	mov    -0xd8(%rbp),%rax
 2b7:	49 89 f8             	mov    %rdi,%r8
 2ba:	48 89 c7             	mov    %rax,%rdi
 2bd:	e8 00 00 00 00       	call   2c2 <_ZNSt5dequeIiSaIiEE19_M_range_insert_auxISt15_Deque_iteratorIiRKiPS4_EEEvS3_IiRiPiET_SB_St20forward_iterator_tag+0x2c2>
 2c2:	e9 a0 00 00 00       	jmp    367 <_ZNSt5dequeIiSaIiEE19_M_range_insert_auxISt15_Deque_iteratorIiRKiPS4_EEEvS3_IiRiPiET_SB_St20forward_iterator_tag+0x367>
 2c7:	f3 0f 1e fa          	endbr64 
 2cb:	48 89 c7             	mov    %rax,%rdi
 2ce:	e8 00 00 00 00       	call   2d3 <_ZNSt5dequeIiSaIiEE19_M_range_insert_auxISt15_Deque_iteratorIiRKiPS4_EEEvS3_IiRiPiET_SB_St20forward_iterator_tag+0x2d3>
 2d3:	48 8b 85 28 ff ff ff 	mov    -0xd8(%rbp),%rax
 2da:	48 8b 95 28 ff ff ff 	mov    -0xd8(%rbp),%rdx
 2e1:	48 8b 52 28          	mov    0x28(%rdx),%rdx
 2e5:	48 8b 8d 58 ff ff ff 	mov    -0xa8(%rbp),%rcx
 2ec:	48 89 ce             	mov    %rcx,%rsi
 2ef:	48 89 c7             	mov    %rax,%rdi
 2f2:	e8 00 00 00 00       	call   2f7 <_ZNSt5dequeIiSaIiEE19_M_range_insert_auxISt15_Deque_iteratorIiRKiPS4_EEEvS3_IiRiPiET_SB_St20forward_iterator_tag+0x2f7>
 2f7:	e8 00 00 00 00       	call   2fc <_ZNSt5dequeIiSaIiEE19_M_range_insert_auxISt15_Deque_iteratorIiRKiPS4_EEEvS3_IiRiPiET_SB_St20forward_iterator_tag+0x2fc>
 2fc:	f3 0f 1e fa          	endbr64 
 300:	48 89 c3             	mov    %rax,%rbx
 303:	e8 00 00 00 00       	call   308 <_ZNSt5dequeIiSaIiEE19_M_range_insert_auxISt15_Deque_iteratorIiRKiPS4_EEEvS3_IiRiPiET_SB_St20forward_iterator_tag+0x308>
 308:	48 89 d8             	mov    %rbx,%rax
 30b:	48 89 c7             	mov    %rax,%rdi
 30e:	e8 00 00 00 00       	call   313 <_ZNSt5dequeIiSaIiEE19_M_range_insert_auxISt15_Deque_iteratorIiRKiPS4_EEEvS3_IiRiPiET_SB_St20forward_iterator_tag+0x313>
 313:	f3 0f 1e fa          	endbr64 
 317:	48 89 c7             	mov    %rax,%rdi
 31a:	e8 00 00 00 00       	call   31f <_ZNSt5dequeIiSaIiEE19_M_range_insert_auxISt15_Deque_iteratorIiRKiPS4_EEEvS3_IiRiPiET_SB_St20forward_iterator_tag+0x31f>
 31f:	48 8b 85 28 ff ff ff 	mov    -0xd8(%rbp),%rax
 326:	48 8b 95 58 ff ff ff 	mov    -0xa8(%rbp),%rdx
 32d:	48 83 c2 08          	add    $0x8,%rdx
 331:	48 8b 8d 28 ff ff ff 	mov    -0xd8(%rbp),%rcx
 338:	48 8b 49 48          	mov    0x48(%rcx),%rcx
 33c:	48 83 c1 08          	add    $0x8,%rcx
 340:	48 89 ce             	mov    %rcx,%rsi
 343:	48 89 c7             	mov    %rax,%rdi
 346:	e8 00 00 00 00       	call   34b <_ZNSt5dequeIiSaIiEE19_M_range_insert_auxISt15_Deque_iteratorIiRKiPS4_EEEvS3_IiRiPiET_SB_St20forward_iterator_tag+0x34b>
 34b:	e8 00 00 00 00       	call   350 <_ZNSt5dequeIiSaIiEE19_M_range_insert_auxISt15_Deque_iteratorIiRKiPS4_EEEvS3_IiRiPiET_SB_St20forward_iterator_tag+0x350>
 350:	f3 0f 1e fa          	endbr64 
 354:	48 89 c3             	mov    %rax,%rbx
 357:	e8 00 00 00 00       	call   35c <_ZNSt5dequeIiSaIiEE19_M_range_insert_auxISt15_Deque_iteratorIiRKiPS4_EEEvS3_IiRiPiET_SB_St20forward_iterator_tag+0x35c>
 35c:	48 89 d8             	mov    %rbx,%rax
 35f:	48 89 c7             	mov    %rax,%rdi
 362:	e8 00 00 00 00       	call   367 <_ZNSt5dequeIiSaIiEE19_M_range_insert_auxISt15_Deque_iteratorIiRKiPS4_EEEvS3_IiRiPiET_SB_St20forward_iterator_tag+0x367>
 367:	48 8b 45 e8          	mov    -0x18(%rbp),%rax
 36b:	64 48 2b 04 25 28 00 	sub    %fs:0x28,%rax
 372:	00 00 
 374:	74 05                	je     37b <_ZNSt5dequeIiSaIiEE19_M_range_insert_auxISt15_Deque_iteratorIiRKiPS4_EEEvS3_IiRiPiET_SB_St20forward_iterator_tag+0x37b>
 376:	e8 00 00 00 00       	call   37b <_ZNSt5dequeIiSaIiEE19_M_range_insert_auxISt15_Deque_iteratorIiRKiPS4_EEEvS3_IiRiPiET_SB_St20forward_iterator_tag+0x37b>
 37b:	48 8b 5d f8          	mov    -0x8(%rbp),%rbx
 37f:	c9                   	leave  
 380:	c3                   	ret    

Disassembly of section .text._ZNSt11_Deque_baseIiSaIiEE11_Deque_implC2Ev:

0000000000000000 <_ZNSt11_Deque_baseIiSaIiEE11_Deque_implC1Ev>:
   0:	f3 0f 1e fa          	endbr64 
   4:	55                   	push   %rbp
   5:	48 89 e5             	mov    %rsp,%rbp
   8:	48 83 ec 10          	sub    $0x10,%rsp
   c:	48 89 7d f8          	mov    %rdi,-0x8(%rbp)
  10:	48 8b 45 f8          	mov    -0x8(%rbp),%rax
  14:	48 89 c7             	mov    %rax,%rdi
  17:	e8 00 00 00 00       	call   1c <_ZNSt11_Deque_baseIiSaIiEE11_Deque_implC1Ev+0x1c>
  1c:	48 8b 45 f8          	mov    -0x8(%rbp),%rax
  20:	48 89 c7             	mov    %rax,%rdi
  23:	e8 00 00 00 00       	call   28 <_ZNSt11_Deque_baseIiSaIiEE11_Deque_implC1Ev+0x28>
  28:	90                   	nop
  29:	c9                   	leave  
  2a:	c3                   	ret    

Disassembly of section .text._ZNSt11_Deque_baseIiSaIiEE17_M_initialize_mapEm:

0000000000000000 <_ZNSt11_Deque_baseIiSaIiEE17_M_initialize_mapEm>:
   0:	f3 0f 1e fa          	endbr64 
   4:	55                   	push   %rbp
   5:	48 89 e5             	mov    %rsp,%rbp
   8:	53                   	push   %rbx
   9:	48 83 ec 48          	sub    $0x48,%rsp
   d:	48 89 7d b8          	mov    %rdi,-0x48(%rbp)
  11:	48 89 75 b0          	mov    %rsi,-0x50(%rbp)
  15:	64 48 8b 04 25 28 00 	mov    %fs:0x28,%rax
  1c:	00 00 
  1e:	48 89 45 e8          	mov    %rax,-0x18(%rbp)
  22:	31 c0                	xor    %eax,%eax
  24:	bf 04 00 00 00       	mov    $0x4,%edi
  29:	e8 00 00 00 00       	call   2e <_ZNSt11_Deque_baseIiSaIiEE17_M_initialize_mapEm+0x2e>
  2e:	48 89 c3             	mov    %rax,%rbx
  31:	48 8b 45 b0          	mov    -0x50(%rbp),%rax
  35:	ba 00 00 00 00       	mov    $0x0,%edx
  3a:	48 f7 f3             	div    %rbx
  3d:	48 83 c0 01          	add    $0x1,%rax
  41:	48 89 45 d0          	mov    %rax,-0x30(%rbp)
  45:	48 8b 45 d0          	mov    -0x30(%rbp),%rax
  49:	48 83 c0 02          	add    $0x2,%rax
  4d:	48 89 45 c8          	mov    %rax,-0x38(%rbp)
  51:	48 c7 45 c0 08 00 00 	movq   $0x8,-0x40(%rbp)
  58:	00 
  59:	48 8d 55 c8          	lea    -0x38(%rbp),%rdx
  5d:	48 8d 45 c0          	lea    -0x40(%rbp),%rax
  61:	48 89 d6             	mov    %rdx,%rsi
  64:	48 89 c7             	mov    %rax,%rdi
  67:	e8 00 00 00 00       	call   6c <_ZNSt11_Deque_baseIiSaIiEE17_M_initialize_mapEm+0x6c>
  6c:	48 8b 10             	mov    (%rax),%rdx
  6f:	48 8b 45 b8          	mov    -0x48(%rbp),%rax
  73:	48 89 50 08          	mov    %rdx,0x8(%rax)
  77:	48 8b 45 b8          	mov    -0x48(%rbp),%rax
  7b:	48 8b 50 08          	mov    0x8(%rax),%rdx
  7f:	48 8b 45 b8          	mov    -0x48(%rbp),%rax
  83:	48 89 d6             	mov    %rdx,%rsi
  86:	48 89 c7             	mov    %rax,%rdi
  89:	e8 00 00 00 00       	call   8e <_ZNSt11_Deque_baseIiSaIiEE17_M_initialize_mapEm+0x8e>
  8e:	48 8b 55 b8          	mov    -0x48(%rbp),%rdx
  92:	48 89 02             	mov    %rax,(%rdx)
  95:	48 8b 45 b8          	mov    -0x48(%rbp),%rax
  99:	48 8b 10             	mov    (%rax),%rdx
  9c:	48 8b 45 b8          	mov    -0x48(%rbp),%rax
  a0:	48 8b 40 08          	mov    0x8(%rax),%rax
  a4:	48 2b 45 d0          	sub    -0x30(%rbp),%rax
  a8:	48 d1 e8             	shr    %rax
  ab:	48 c1 e0 03          	shl    $0x3,%rax
  af:	48 01 d0             	add    %rdx,%rax
  b2:	48 89 45 d8          	mov    %rax,-0x28(%rbp)
  b6:	48 8b 45 d0          	mov    -0x30(%rbp),%rax
  ba:	48 8d 14 c5 00 00 00 	lea    0x0(,%rax,8),%rdx
  c1:	00 
  c2:	48 8b 45 d8          	mov    -0x28(%rbp),%rax
  c6:	48 01 d0             	add    %rdx,%rax
  c9:	48 89 45 e0          	mov    %rax,-0x20(%rbp)
  cd:	48 8b 55 e0          	mov    -0x20(%rbp),%rdx
  d1:	48 8b 4d d8          	mov    -0x28(%rbp),%rcx
  d5:	48 8b 45 b8          	mov    -0x48(%rbp),%rax
  d9:	48 89 ce             	mov    %rcx,%rsi
  dc:	48 89 c7             	mov    %rax,%rdi
  df:	e8 00 00 00 00       	call   e4 <_ZNSt11_Deque_baseIiSaIiEE17_M_initialize_mapEm+0xe4>
  e4:	48 8b 45 b8          	mov    -0x48(%rbp),%rax
  e8:	48 8d 50 10          	lea    0x10(%rax),%rdx
  ec:	48 8b 45 d8          	mov    -0x28(%rbp),%rax
  f0:	48 89 c6             	mov    %rax,%rsi
  f3:	48 89 d7             	mov    %rdx,%rdi
  f6:	e8 00 00 00 00       	call   fb <_ZNSt11_Deque_baseIiSaIiEE17_M_initialize_mapEm+0xfb>
  fb:	48 8b 45 b8          	mov    -0x48(%rbp),%rax
  ff:	48 83 c0 30          	add    $0x30,%rax
 103:	48 8b 55 e0          	mov    -0x20(%rbp),%rdx
 107:	48 83 ea 08          	sub    $0x8,%rdx
 10b:	48 89 d6             	mov    %rdx,%rsi
 10e:	48 89 c7             	mov    %rax,%rdi
 111:	e8 00 00 00 00       	call   116 <_ZNSt11_Deque_baseIiSaIiEE17_M_initialize_mapEm+0x116>
 116:	48 8b 45 b8          	mov    -0x48(%rbp),%rax
 11a:	48 8b 50 18          	mov    0x18(%rax),%rdx
 11e:	48 8b 45 b8          	mov    -0x48(%rbp),%rax
 122:	48 89 50 10          	mov    %rdx,0x10(%rax)
 126:	48 8b 45 b8          	mov    -0x48(%rbp),%rax
 12a:	48 8b 58 38          	mov    0x38(%rax),%rbx
 12e:	bf 04 00 00 00       	mov    $0x4,%edi
 133:	e8 00 00 00 00       	call   138 <_ZNSt11_Deque_baseIiSaIiEE17_M_initialize_mapEm+0x138>
 138:	48 89 c1             	mov    %rax,%rcx
 13b:	48 8b 45 b0          	mov    -0x50(%rbp),%rax
 13f:	ba 00 00 00 00       	mov    $0x0,%edx
 144:	48 f7 f1             	div    %rcx
 147:	48 89 d1             	mov    %rdx,%rcx
 14a:	48 89 c8             	mov    %rcx,%rax
 14d:	48 c1 e0 02          	shl    $0x2,%rax
 151:	48 8d 14 03          	lea    (%rbx,%rax,1),%rdx
 155:	48 8b 45 b8          	mov    -0x48(%rbp),%rax
 159:	48 89 50 30          	mov    %rdx,0x30(%rax)
 15d:	90                   	nop
 15e:	48 8b 45 e8          	mov    -0x18(%rbp),%rax
 162:	64 48 2b 04 25 28 00 	sub    %fs:0x28,%rax
 169:	00 00 
 16b:	74 64                	je     1d1 <_ZNSt11_Deque_baseIiSaIiEE17_M_initialize_mapEm+0x1d1>
 16d:	eb 5d                	jmp    1cc <_ZNSt11_Deque_baseIiSaIiEE17_M_initialize_mapEm+0x1cc>
 16f:	f3 0f 1e fa          	endbr64 
 173:	48 89 c7             	mov    %rax,%rdi
 176:	e8 00 00 00 00       	call   17b <_ZNSt11_Deque_baseIiSaIiEE17_M_initialize_mapEm+0x17b>
 17b:	48 8b 45 b8          	mov    -0x48(%rbp),%rax
 17f:	48 8b 50 08          	mov    0x8(%rax),%rdx
 183:	48 8b 45 b8          	mov    -0x48(%rbp),%rax
 187:	48 8b 08             	mov    (%rax),%rcx
 18a:	48 8b 45 b8          	mov    -0x48(%rbp),%rax
 18e:	48 89 ce             	mov    %rcx,%rsi
 191:	48 89 c7             	mov    %rax,%rdi
 194:	e8 00 00 00 00       	call   199 <_ZNSt11_Deque_baseIiSaIiEE17_M_initialize_mapEm+0x199>
 199:	48 8b 45 b8          	mov    -0x48(%rbp),%rax
 19d:	48 c7 00 00 00 00 00 	movq   $0x0,(%rax)
 1a4:	48 8b 45 b8          	mov    -0x48(%rbp),%rax
 1a8:	48 c7 40 08 00 00 00 	movq   $0x0,0x8(%rax)
 1af:	00 
 1b0:	e8 00 00 00 00       	call   1b5 <_ZNSt11_Deque_baseIiSaIiEE17_M_initialize_mapEm+0x1b5>
 1b5:	f3 0f 1e fa          	endbr64 
 1b9:	48 89 c3             	mov    %rax,%rbx
 1bc:	e8 00 00 00 00       	call   1c1 <_ZNSt11_Deque_baseIiSaIiEE17_M_initialize_mapEm+0x1c1>
 1c1:	48 89 d8             	mov    %rbx,%rax
 1c4:	48 89 c7             	mov    %rax,%rdi
 1c7:	e8 00 00 00 00       	call   1cc <_ZNSt11_Deque_baseIiSaIiEE17_M_initialize_mapEm+0x1cc>
 1cc:	e8 00 00 00 00       	call   1d1 <_ZNSt11_Deque_baseIiSaIiEE17_M_initialize_mapEm+0x1d1>
 1d1:	48 8b 5d f8          	mov    -0x8(%rbp),%rbx
 1d5:	c9                   	leave  
 1d6:	c3                   	ret    

Disassembly of section .text._ZNSt11_Deque_baseIiSaIiEE16_M_destroy_nodesEPPiS3_:

0000000000000000 <_ZNSt11_Deque_baseIiSaIiEE16_M_destroy_nodesEPPiS3_>:
   0:	f3 0f 1e fa          	endbr64 
   4:	55                   	push   %rbp
   5:	48 89 e5             	mov    %rsp,%rbp
   8:	48 83 ec 30          	sub    $0x30,%rsp
   c:	48 89 7d e8          	mov    %rdi,-0x18(%rbp)
  10:	48 89 75 e0          	mov    %rsi,-0x20(%rbp)
  14:	48 89 55 d8          	mov    %rdx,-0x28(%rbp)
  18:	48 8b 45 e0          	mov    -0x20(%rbp),%rax
  1c:	48 89 45 f8          	mov    %rax,-0x8(%rbp)
  20:	eb 1b                	jmp    3d <_ZNSt11_Deque_baseIiSaIiEE16_M_destroy_nodesEPPiS3_+0x3d>
  22:	48 8b 45 f8          	mov    -0x8(%rbp),%rax
  26:	48 8b 10             	mov    (%rax),%rdx
  29:	48 8b 45 e8          	mov    -0x18(%rbp),%rax
  2d:	48 89 d6             	mov    %rdx,%rsi
  30:	48 89 c7             	mov    %rax,%rdi
  33:	e8 00 00 00 00       	call   38 <_ZNSt11_Deque_baseIiSaIiEE16_M_destroy_nodesEPPiS3_+0x38>
  38:	48 83 45 f8 08       	addq   $0x8,-0x8(%rbp)
  3d:	48 8b 45 f8          	mov    -0x8(%rbp),%rax
  41:	48 3b 45 d8          	cmp    -0x28(%rbp),%rax
  45:	72 db                	jb     22 <_ZNSt11_Deque_baseIiSaIiEE16_M_destroy_nodesEPPiS3_+0x22>
  47:	90                   	nop
  48:	90                   	nop
  49:	c9                   	leave  
  4a:	c3                   	ret    

Disassembly of section .text._ZNSt11_Deque_baseIiSaIiEE17_M_deallocate_mapEPPim:

0000000000000000 <_ZNSt11_Deque_baseIiSaIiEE17_M_deallocate_mapEPPim>:
   0:	f3 0f 1e fa          	endbr64 
   4:	55                   	push   %rbp
   5:	48 89 e5             	mov    %rsp,%rbp
   8:	48 83 ec 30          	sub    $0x30,%rsp
   c:	48 89 7d e8          	mov    %rdi,-0x18(%rbp)
  10:	48 89 75 e0          	mov    %rsi,-0x20(%rbp)
  14:	48 89 55 d8          	mov    %rdx,-0x28(%rbp)
  18:	64 48 8b 04 25 28 00 	mov    %fs:0x28,%rax
  1f:	00 00 
  21:	48 89 45 f8          	mov    %rax,-0x8(%rbp)
  25:	31 c0                	xor    %eax,%eax
  27:	48 8d 45 f7          	lea    -0x9(%rbp),%rax
  2b:	48 8b 55 e8          	mov    -0x18(%rbp),%rdx
  2f:	48 89 d6             	mov    %rdx,%rsi
  32:	48 89 c7             	mov    %rax,%rdi
  35:	e8 00 00 00 00       	call   3a <_ZNSt11_Deque_baseIiSaIiEE17_M_deallocate_mapEPPim+0x3a>
  3a:	48 8b 55 d8          	mov    -0x28(%rbp),%rdx
  3e:	48 8b 4d e0          	mov    -0x20(%rbp),%rcx
  42:	48 8d 45 f7          	lea    -0x9(%rbp),%rax
  46:	48 89 ce             	mov    %rcx,%rsi
  49:	48 89 c7             	mov    %rax,%rdi
  4c:	e8 00 00 00 00       	call   51 <_ZNSt11_Deque_baseIiSaIiEE17_M_deallocate_mapEPPim+0x51>
  51:	48 8d 45 f7          	lea    -0x9(%rbp),%rax
  55:	48 89 c7             	mov    %rax,%rdi
  58:	e8 00 00 00 00       	call   5d <_ZNSt11_Deque_baseIiSaIiEE17_M_deallocate_mapEPPim+0x5d>
  5d:	48 8b 45 f8          	mov    -0x8(%rbp),%rax
  61:	64 48 2b 04 25 28 00 	sub    %fs:0x28,%rax
  68:	00 00 
  6a:	74 05                	je     71 <_ZNSt11_Deque_baseIiSaIiEE17_M_deallocate_mapEPPim+0x71>
  6c:	e8 00 00 00 00       	call   71 <_ZNSt11_Deque_baseIiSaIiEE17_M_deallocate_mapEPPim+0x71>
  71:	c9                   	leave  
  72:	c3                   	ret    

Disassembly of section .text._ZNSt5dequeIiSaIiEE12emplace_backIJiEEERiDpOT_:

0000000000000000 <_ZNSt5dequeIiSaIiEE12emplace_backIJiEEERiDpOT_>:
   0:	f3 0f 1e fa          	endbr64 
   4:	55                   	push   %rbp
   5:	48 89 e5             	mov    %rsp,%rbp
   8:	48 83 ec 10          	sub    $0x10,%rsp
   c:	48 89 7d f8          	mov    %rdi,-0x8(%rbp)
  10:	48 89 75 f0          	mov    %rsi,-0x10(%rbp)
  14:	48 8b 45 f8          	mov    -0x8(%rbp),%rax
  18:	48 8b 50 30          	mov    0x30(%rax),%rdx
  1c:	48 8b 45 f8          	mov    -0x8(%rbp),%rax
  20:	48 8b 40 40          	mov    0x40(%rax),%rax
  24:	48 83 e8 04          	sub    $0x4,%rax
  28:	48 39 c2             	cmp    %rax,%rdx
  2b:	74 3c                	je     69 <_ZNSt5dequeIiSaIiEE12emplace_backIJiEEERiDpOT_+0x69>
  2d:	48 8b 45 f0          	mov    -0x10(%rbp),%rax
  31:	48 89 c7             	mov    %rax,%rdi
  34:	e8 00 00 00 00       	call   39 <_ZNSt5dequeIiSaIiEE12emplace_backIJiEEERiDpOT_+0x39>
  39:	48 89 c2             	mov    %rax,%rdx
  3c:	48 8b 45 f8          	mov    -0x8(%rbp),%rax
  40:	48 8b 48 30          	mov    0x30(%rax),%rcx
  44:	48 8b 45 f8          	mov    -0x8(%rbp),%rax
  48:	48 89 ce             	mov    %rcx,%rsi
  4b:	48 89 c7             	mov    %rax,%rdi
  4e:	e8 00 00 00 00       	call   53 <_ZNSt5dequeIiSaIiEE12emplace_backIJiEEERiDpOT_+0x53>
  53:	48 8b 45 f8          	mov    -0x8(%rbp),%rax
  57:	48 8b 40 30          	mov    0x30(%rax),%rax
  5b:	48 8d 50 04          	lea    0x4(%rax),%rdx
  5f:	48 8b 45 f8          	mov    -0x8(%rbp),%rax
  63:	48 89 50 30          	mov    %rdx,0x30(%rax)
  67:	eb 1e                	jmp    87 <_ZNSt5dequeIiSaIiEE12emplace_backIJiEEERiDpOT_+0x87>
  69:	48 8b 45 f0          	mov    -0x10(%rbp),%rax
  6d:	48 89 c7             	mov    %rax,%rdi
  70:	e8 00 00 00 00       	call   75 <_ZNSt5dequeIiSaIiEE12emplace_backIJiEEERiDpOT_+0x75>
  75:	48 89 c2             	mov    %rax,%rdx
  78:	48 8b 45 f8          	mov    -0x8(%rbp),%rax
  7c:	48 89 d6             	mov    %rdx,%rsi
  7f:	48 89 c7             	mov    %rax,%rdi
  82:	e8 00 00 00 00       	call   87 <_ZNSt5dequeIiSaIiEE12emplace_backIJiEEERiDpOT_+0x87>
  87:	48 8b 45 f8          	mov    -0x8(%rbp),%rax
  8b:	48 89 c7             	mov    %rax,%rdi
  8e:	e8 00 00 00 00       	call   93 <_ZNSt5dequeIiSaIiEE12emplace_backIJiEEERiDpOT_+0x93>
  93:	c9                   	leave  
  94:	c3                   	ret    

Disassembly of section .text._ZNSt15_Deque_iteratorIiRiPiEmmEv:

0000000000000000 <_ZNSt15_Deque_iteratorIiRiPiEmmEv>:
   0:	f3 0f 1e fa          	endbr64 
   4:	55                   	push   %rbp
   5:	48 89 e5             	mov    %rsp,%rbp
   8:	48 83 ec 10          	sub    $0x10,%rsp
   c:	48 89 7d f8          	mov    %rdi,-0x8(%rbp)
  10:	48 8b 45 f8          	mov    -0x8(%rbp),%rax
  14:	48 8b 10             	mov    (%rax),%rdx
  17:	48 8b 45 f8          	mov    -0x8(%rbp),%rax
  1b:	48 8b 40 08          	mov    0x8(%rax),%rax
  1f:	48 39 c2             	cmp    %rax,%rdx
  22:	75 2a                	jne    4e <_ZNSt15_Deque_iteratorIiRiPiEmmEv+0x4e>
  24:	48 8b 45 f8          	mov    -0x8(%rbp),%rax
  28:	48 8b 40 18          	mov    0x18(%rax),%rax
  2c:	48 8d 50 f8          	lea    -0x8(%rax),%rdx
  30:	48 8b 45 f8          	mov    -0x8(%rbp),%rax
  34:	48 89 d6             	mov    %rdx,%rsi
  37:	48 89 c7             	mov    %rax,%rdi
  3a:	e8 00 00 00 00       	call   3f <_ZNSt15_Deque_iteratorIiRiPiEmmEv+0x3f>
  3f:	48 8b 45 f8          	mov    -0x8(%rbp),%rax
  43:	48 8b 50 10          	mov    0x10(%rax),%rdx
  47:	48 8b 45 f8          	mov    -0x8(%rbp),%rax
  4b:	48 89 10             	mov    %rdx,(%rax)
  4e:	48 8b 45 f8          	mov    -0x8(%rbp),%rax
  52:	48 8b 00             	mov    (%rax),%rax
  55:	48 8d 50 fc          	lea    -0x4(%rax),%rdx
  59:	48 8b 45 f8          	mov    -0x8(%rbp),%rax
  5d:	48 89 10             	mov    %rdx,(%rax)
  60:	48 8b 45 f8          	mov    -0x8(%rbp),%rax
  64:	c9                   	leave  
  65:	c3                   	ret    

Disassembly of section .text._ZNKSt15_Deque_iteratorIiRiPiEdeEv:

0000000000000000 <_ZNKSt15_Deque_iteratorIiRiPiEdeEv>:
   0:	f3 0f 1e fa          	endbr64 
   4:	55                   	push   %rbp
   5:	48 89 e5             	mov    %rsp,%rbp
   8:	48 89 7d f8          	mov    %rdi,-0x8(%rbp)
   c:	48 8b 45 f8          	mov    -0x8(%rbp),%rax
  10:	48 8b 00             	mov    (%rax),%rax
  13:	5d                   	pop    %rbp
  14:	c3                   	ret    

Disassembly of section .text._ZNKSt11_Deque_baseIiSaIiEE13get_allocatorEv:

0000000000000000 <_ZNKSt11_Deque_baseIiSaIiEE13get_allocatorEv>:
   0:	f3 0f 1e fa          	endbr64 
   4:	55                   	push   %rbp
   5:	48 89 e5             	mov    %rsp,%rbp
   8:	48 83 ec 10          	sub    $0x10,%rsp
   c:	48 89 7d f8          	mov    %rdi,-0x8(%rbp)
  10:	48 89 75 f0          	mov    %rsi,-0x10(%rbp)
  14:	48 8b 45 f0          	mov    -0x10(%rbp),%rax
  18:	48 89 c7             	mov    %rax,%rdi
  1b:	e8 00 00 00 00       	call   20 <_ZNKSt11_Deque_baseIiSaIiEE13get_allocatorEv+0x20>
  20:	48 89 c2             	mov    %rax,%rdx
  23:	48 8b 45 f8          	mov    -0x8(%rbp),%rax
  27:	48 89 d6             	mov    %rdx,%rsi
  2a:	48 89 c7             	mov    %rax,%rdi
  2d:	e8 00 00 00 00       	call   32 <_ZNKSt11_Deque_baseIiSaIiEE13get_allocatorEv+0x32>
  32:	48 8b 45 f8          	mov    -0x8(%rbp),%rax
  36:	c9                   	leave  
  37:	c3                   	ret    

Disassembly of section .text._ZN9__gnu_cxx13new_allocatorIiED2Ev:

0000000000000000 <_ZN9__gnu_cxx13new_allocatorIiED1Ev>:
   0:	f3 0f 1e fa          	endbr64 
   4:	55                   	push   %rbp
   5:	48 89 e5             	mov    %rsp,%rbp
   8:	48 89 7d f8          	mov    %rdi,-0x8(%rbp)
   c:	90                   	nop
   d:	5d                   	pop    %rbp
   e:	c3                   	ret    

Disassembly of section .text._ZSt7forwardIRKSt5dequeIiSaIiEEEOT_RNSt16remove_referenceIS5_E4typeE:

0000000000000000 <_ZSt7forwardIRKSt5dequeIiSaIiEEEOT_RNSt16remove_referenceIS5_E4typeE>:
   0:	f3 0f 1e fa          	endbr64 
   4:	55                   	push   %rbp
   5:	48 89 e5             	mov    %rsp,%rbp
   8:	48 89 7d f8          	mov    %rdi,-0x8(%rbp)
   c:	48 8b 45 f8          	mov    -0x8(%rbp),%rax
  10:	5d                   	pop    %rbp
  11:	c3                   	ret    

Disassembly of section .text._ZSt7forwardISaIiEEOT_RNSt16remove_referenceIS1_E4typeE:

0000000000000000 <_ZSt7forwardISaIiEEOT_RNSt16remove_referenceIS1_E4typeE>:
   0:	f3 0f 1e fa          	endbr64 
   4:	55                   	push   %rbp
   5:	48 89 e5             	mov    %rsp,%rbp
   8:	48 89 7d f8          	mov    %rdi,-0x8(%rbp)
   c:	48 8b 45 f8          	mov    -0x8(%rbp),%rax
  10:	5d                   	pop    %rbp
  11:	c3                   	ret    

Disassembly of section .text._ZNSt5dequeIiSaIiEEC2ERKS1_RKS0_:

0000000000000000 <_ZNSt5dequeIiSaIiEEC1ERKS1_RKS0_>:
   0:	f3 0f 1e fa          	endbr64 
   4:	55                   	push   %rbp
   5:	48 89 e5             	mov    %rsp,%rbp
   8:	53                   	push   %rbx
   9:	48 81 ec b8 00 00 00 	sub    $0xb8,%rsp
  10:	48 89 bd 58 ff ff ff 	mov    %rdi,-0xa8(%rbp)
  17:	48 89 b5 50 ff ff ff 	mov    %rsi,-0xb0(%rbp)
  1e:	48 89 95 48 ff ff ff 	mov    %rdx,-0xb8(%rbp)
  25:	64 48 8b 04 25 28 00 	mov    %fs:0x28,%rax
  2c:	00 00 
  2e:	48 89 45 e8          	mov    %rax,-0x18(%rbp)
  32:	31 c0                	xor    %eax,%eax
  34:	48 8b 9d 58 ff ff ff 	mov    -0xa8(%rbp),%rbx
  3b:	48 8b 85 50 ff ff ff 	mov    -0xb0(%rbp),%rax
  42:	48 89 c7             	mov    %rax,%rdi
  45:	e8 00 00 00 00       	call   4a <_ZNSt5dequeIiSaIiEEC1ERKS1_RKS0_+0x4a>
  4a:	48 89 c2             	mov    %rax,%rdx
  4d:	48 8b 85 48 ff ff ff 	mov    -0xb8(%rbp),%rax
  54:	48 89 c6             	mov    %rax,%rsi
  57:	48 89 df             	mov    %rbx,%rdi
  5a:	e8 00 00 00 00       	call   5f <_ZNSt5dequeIiSaIiEEC1ERKS1_RKS0_+0x5f>
  5f:	48 8b 85 58 ff ff ff 	mov    -0xa8(%rbp),%rax
  66:	48 89 c7             	mov    %rax,%rdi
  69:	e8 00 00 00 00       	call   6e <_ZNSt5dequeIiSaIiEEC1ERKS1_RKS0_+0x6e>
  6e:	48 89 c3             	mov    %rax,%rbx
  71:	48 8b 85 58 ff ff ff 	mov    -0xa8(%rbp),%rax
  78:	48 8d 50 10          	lea    0x10(%rax),%rdx
  7c:	48 8d 45 c0          	lea    -0x40(%rbp),%rax
  80:	48 89 d6             	mov    %rdx,%rsi
  83:	48 89 c7             	mov    %rax,%rdi
  86:	e8 00 00 00 00       	call   8b <_ZNSt5dequeIiSaIiEEC1ERKS1_RKS0_+0x8b>
  8b:	48 8d 45 a0          	lea    -0x60(%rbp),%rax
  8f:	48 8b 95 50 ff ff ff 	mov    -0xb0(%rbp),%rdx
  96:	48 89 d6             	mov    %rdx,%rsi
  99:	48 89 c7             	mov    %rax,%rdi
  9c:	e8 00 00 00 00       	call   a1 <_ZNSt5dequeIiSaIiEEC1ERKS1_RKS0_+0xa1>
  a1:	48 8d 45 80          	lea    -0x80(%rbp),%rax
  a5:	48 8b 95 50 ff ff ff 	mov    -0xb0(%rbp),%rdx
  ac:	48 89 d6             	mov    %rdx,%rsi
  af:	48 89 c7             	mov    %rax,%rdi
  b2:	e8 00 00 00 00       	call   b7 <_ZNSt5dequeIiSaIiEEC1ERKS1_RKS0_+0xb7>
  b7:	48 8d 85 60 ff ff ff 	lea    -0xa0(%rbp),%rax
  be:	48 8d 4d c0          	lea    -0x40(%rbp),%rcx
  c2:	48 8d 55 a0          	lea    -0x60(%rbp),%rdx
  c6:	48 8d 75 80          	lea    -0x80(%rbp),%rsi
  ca:	49 89 d8             	mov    %rbx,%r8
  cd:	48 89 c7             	mov    %rax,%rdi
  d0:	e8 00 00 00 00       	call   d5 <_ZNSt5dequeIiSaIiEEC1ERKS1_RKS0_+0xd5>
  d5:	eb 21                	jmp    f8 <_ZNSt5dequeIiSaIiEEC1ERKS1_RKS0_+0xf8>
  d7:	f3 0f 1e fa          	endbr64 
  db:	48 89 c3             	mov    %rax,%rbx
  de:	48 8b 85 58 ff ff ff 	mov    -0xa8(%rbp),%rax
  e5:	48 89 c7             	mov    %rax,%rdi
  e8:	e8 00 00 00 00       	call   ed <_ZNSt5dequeIiSaIiEEC1ERKS1_RKS0_+0xed>
  ed:	48 89 d8             	mov    %rbx,%rax
  f0:	48 89 c7             	mov    %rax,%rdi
  f3:	e8 00 00 00 00       	call   f8 <_ZNSt5dequeIiSaIiEEC1ERKS1_RKS0_+0xf8>
  f8:	48 8b 45 e8          	mov    -0x18(%rbp),%rax
  fc:	64 48 2b 04 25 28 00 	sub    %fs:0x28,%rax
 103:	00 00 
 105:	74 05                	je     10c <_ZNSt5dequeIiSaIiEEC1ERKS1_RKS0_+0x10c>
 107:	e8 00 00 00 00       	call   10c <_ZNSt5dequeIiSaIiEEC1ERKS1_RKS0_+0x10c>
 10c:	48 8b 5d f8          	mov    -0x8(%rbp),%rbx
 110:	c9                   	leave  
 111:	c3                   	ret    

Disassembly of section .text._ZNSt5dequeIiSaIiEE5clearEv:

0000000000000000 <_ZNSt5dequeIiSaIiEE5clearEv>:
   0:	f3 0f 1e fa          	endbr64 
   4:	55                   	push   %rbp
   5:	48 89 e5             	mov    %rsp,%rbp
   8:	48 83 ec 40          	sub    $0x40,%rsp
   c:	48 89 7d c8          	mov    %rdi,-0x38(%rbp)
  10:	64 48 8b 04 25 28 00 	mov    %fs:0x28,%rax
  17:	00 00 
  19:	48 89 45 f8          	mov    %rax,-0x8(%rbp)
  1d:	31 c0                	xor    %eax,%eax
  1f:	48 8d 45 d0          	lea    -0x30(%rbp),%rax
  23:	48 8b 55 c8          	mov    -0x38(%rbp),%rdx
  27:	48 89 d6             	mov    %rdx,%rsi
  2a:	48 89 c7             	mov    %rax,%rdi
  2d:	e8 00 00 00 00       	call   32 <_ZNSt5dequeIiSaIiEE5clearEv+0x32>
  32:	48 8d 55 d0          	lea    -0x30(%rbp),%rdx
  36:	48 8b 45 c8          	mov    -0x38(%rbp),%rax
  3a:	48 89 d6             	mov    %rdx,%rsi
  3d:	48 89 c7             	mov    %rax,%rdi
  40:	e8 00 00 00 00       	call   45 <_ZNSt5dequeIiSaIiEE5clearEv+0x45>
  45:	90                   	nop
  46:	48 8b 45 f8          	mov    -0x8(%rbp),%rax
  4a:	64 48 2b 04 25 28 00 	sub    %fs:0x28,%rax
  51:	00 00 
  53:	74 05                	je     5a <_ZNSt5dequeIiSaIiEE5clearEv+0x5a>
  55:	e8 00 00 00 00       	call   5a <_ZNSt5dequeIiSaIiEE5clearEv+0x5a>
  5a:	c9                   	leave  
  5b:	c3                   	ret    

Disassembly of section .text._ZNSt11_Deque_baseIiSaIiEE18_M_deallocate_nodeEPi:

0000000000000000 <_ZNSt11_Deque_baseIiSaIiEE18_M_deallocate_nodeEPi>:
   0:	f3 0f 1e fa          	endbr64 
   4:	55                   	push   %rbp
   5:	48 89 e5             	mov    %rsp,%rbp
   8:	48 83 ec 10          	sub    $0x10,%rsp
   c:	48 89 7d f8          	mov    %rdi,-0x8(%rbp)
  10:	48 89 75 f0          	mov    %rsi,-0x10(%rbp)
  14:	bf 04 00 00 00       	mov    $0x4,%edi
  19:	e8 00 00 00 00       	call   1e <_ZNSt11_Deque_baseIiSaIiEE18_M_deallocate_nodeEPi+0x1e>
  1e:	48 89 c2             	mov    %rax,%rdx
  21:	48 8b 45 f8          	mov    -0x8(%rbp),%rax
  25:	48 8b 4d f0          	mov    -0x10(%rbp),%rcx
  29:	48 89 ce             	mov    %rcx,%rsi
  2c:	48 89 c7             	mov    %rax,%rdi
  2f:	e8 00 00 00 00       	call   34 <_ZNSt11_Deque_baseIiSaIiEE18_M_deallocate_nodeEPi+0x34>
  34:	90                   	nop
  35:	c9                   	leave  
  36:	c3                   	ret    

Disassembly of section .text._ZNSt11_Deque_baseIiSaIiEE16_Deque_impl_data12_M_swap_dataERS2_:

0000000000000000 <_ZNSt11_Deque_baseIiSaIiEE16_Deque_impl_data12_M_swap_dataERS2_>:
   0:	f3 0f 1e fa          	endbr64 
   4:	55                   	push   %rbp
   5:	48 89 e5             	mov    %rsp,%rbp
   8:	48 83 ec 10          	sub    $0x10,%rsp
   c:	48 89 7d f8          	mov    %rdi,-0x8(%rbp)
  10:	48 89 75 f0          	mov    %rsi,-0x10(%rbp)
  14:	48 8b 55 f0          	mov    -0x10(%rbp),%rdx
  18:	48 8b 45 f8          	mov    -0x8(%rbp),%rax
  1c:	48 89 d6             	mov    %rdx,%rsi
  1f:	48 89 c7             	mov    %rax,%rdi
  22:	e8 00 00 00 00       	call   27 <_ZNSt11_Deque_baseIiSaIiEE16_Deque_impl_data12_M_swap_dataERS2_+0x27>
  27:	90                   	nop
  28:	c9                   	leave  
  29:	c3                   	ret    

Disassembly of section .text._ZStmiRKSt15_Deque_iteratorIiRiPiES4_:

0000000000000000 <_ZStmiRKSt15_Deque_iteratorIiRiPiES4_>:
   0:	f3 0f 1e fa          	endbr64 
   4:	55                   	push   %rbp
   5:	48 89 e5             	mov    %rsp,%rbp
   8:	48 83 ec 10          	sub    $0x10,%rsp
   c:	48 89 7d f8          	mov    %rdi,-0x8(%rbp)
  10:	48 89 75 f0          	mov    %rsi,-0x10(%rbp)
  14:	e8 00 00 00 00       	call   19 <_ZStmiRKSt15_Deque_iteratorIiRiPiES4_+0x19>
  19:	48 89 c6             	mov    %rax,%rsi
  1c:	48 8b 45 f8          	mov    -0x8(%rbp),%rax
  20:	48 8b 50 18          	mov    0x18(%rax),%rdx
  24:	48 8b 45 f0          	mov    -0x10(%rbp),%rax
  28:	48 8b 48 18          	mov    0x18(%rax),%rcx
  2c:	48 89 d0             	mov    %rdx,%rax
  2f:	48 29 c8             	sub    %rcx,%rax
  32:	48 c1 f8 03          	sar    $0x3,%rax
  36:	48 89 c1             	mov    %rax,%rcx
  39:	48 8b 45 f8          	mov    -0x8(%rbp),%rax
  3d:	48 8b 40 18          	mov    0x18(%rax),%rax
  41:	48 85 c0             	test   %rax,%rax
  44:	0f 95 c0             	setne  %al
  47:	0f b6 d0             	movzbl %al,%edx
  4a:	48 89 c8             	mov    %rcx,%rax
  4d:	48 29 d0             	sub    %rdx,%rax
  50:	48 0f af f0          	imul   %rax,%rsi
  54:	48 89 f1             	mov    %rsi,%rcx
  57:	48 8b 45 f8          	mov    -0x8(%rbp),%rax
  5b:	48 8b 10             	mov    (%rax),%rdx
  5e:	48 8b 45 f8          	mov    -0x8(%rbp),%rax
  62:	48 8b 70 08          	mov    0x8(%rax),%rsi
  66:	48 89 d0             	mov    %rdx,%rax
  69:	48 29 f0             	sub    %rsi,%rax
  6c:	48 c1 f8 02          	sar    $0x2,%rax
  70:	48 8d 34 01          	lea    (%rcx,%rax,1),%rsi
  74:	48 8b 45 f0          	mov    -0x10(%rbp),%rax
  78:	48 8b 50 10          	mov    0x10(%rax),%rdx
  7c:	48 8b 45 f0          	mov    -0x10(%rbp),%rax
  80:	48 8b 08             	mov    (%rax),%rcx
  83:	48 89 d0             	mov    %rdx,%rax
  86:	48 29 c8             	sub    %rcx,%rax
  89:	48 c1 f8 02          	sar    $0x2,%rax
  8d:	48 01 f0             	add    %rsi,%rax
  90:	c9                   	leave  
  91:	c3                   	ret    

Disassembly of section .text._ZNSt15_Deque_iteratorIiRKiPS0_EC2IS_IiRiPiEvEERKT_:

0000000000000000 <_ZNSt15_Deque_iteratorIiRKiPS0_EC1IS_IiRiPiEvEERKT_>:
   0:	f3 0f 1e fa          	endbr64 
   4:	55                   	push   %rbp
   5:	48 89 e5             	mov    %rsp,%rbp
   8:	48 89 7d f8          	mov    %rdi,-0x8(%rbp)
   c:	48 89 75 f0          	mov    %rsi,-0x10(%rbp)
  10:	48 8b 45 f0          	mov    -0x10(%rbp),%rax
  14:	48 8b 10             	mov    (%rax),%rdx
  17:	48 8b 45 f8          	mov    -0x8(%rbp),%rax
  1b:	48 89 10             	mov    %rdx,(%rax)
  1e:	48 8b 45 f0          	mov    -0x10(%rbp),%rax
  22:	48 8b 50 08          	mov    0x8(%rax),%rdx
  26:	48 8b 45 f8          	mov    -0x8(%rbp),%rax
  2a:	48 89 50 08          	mov    %rdx,0x8(%rax)
  2e:	48 8b 45 f0          	mov    -0x10(%rbp),%rax
  32:	48 8b 50 10          	mov    0x10(%rax),%rdx
  36:	48 8b 45 f8          	mov    -0x8(%rbp),%rax
  3a:	48 89 50 10          	mov    %rdx,0x10(%rax)
  3e:	48 8b 45 f0          	mov    -0x10(%rbp),%rax
  42:	48 8b 50 18          	mov    0x18(%rax),%rdx
  46:	48 8b 45 f8          	mov    -0x8(%rbp),%rax
  4a:	48 89 50 18          	mov    %rdx,0x18(%rax)
  4e:	90                   	nop
  4f:	5d                   	pop    %rbp
  50:	c3                   	ret    

Disassembly of section .text._ZSt12__miter_baseISt15_Deque_iteratorIiRKiPS1_EET_S5_:

0000000000000000 <_ZSt12__miter_baseISt15_Deque_iteratorIiRKiPS1_EET_S5_>:
   0:	f3 0f 1e fa          	endbr64 
   4:	55                   	push   %rbp
   5:	48 89 e5             	mov    %rsp,%rbp
   8:	48 83 ec 10          	sub    $0x10,%rsp
   c:	48 89 7d f8          	mov    %rdi,-0x8(%rbp)
  10:	48 89 75 f0          	mov    %rsi,-0x10(%rbp)
  14:	48 8b 55 f0          	mov    -0x10(%rbp),%rdx
  18:	48 8b 45 f8          	mov    -0x8(%rbp),%rax
  1c:	48 89 d6             	mov    %rdx,%rsi
  1f:	48 89 c7             	mov    %rax,%rdi
  22:	e8 00 00 00 00       	call   27 <_ZSt12__miter_baseISt15_Deque_iteratorIiRKiPS1_EET_S5_+0x27>
  27:	48 8b 45 f8          	mov    -0x8(%rbp),%rax
  2b:	c9                   	leave  
  2c:	c3                   	ret    

Disassembly of section .text._ZSt13__copy_move_aILb0ESt15_Deque_iteratorIiRKiPS1_ES0_IiRiPiEET1_T0_S9_S8_:

0000000000000000 <_ZSt13__copy_move_aILb0ESt15_Deque_iteratorIiRKiPS1_ES0_IiRiPiEET1_T0_S9_S8_>:
   0:	f3 0f 1e fa          	endbr64 
   4:	55                   	push   %rbp
   5:	48 89 e5             	mov    %rsp,%rbp
   8:	48 81 ec 10 01 00 00 	sub    $0x110,%rsp
   f:	48 89 bd 08 ff ff ff 	mov    %rdi,-0xf8(%rbp)
  16:	48 89 b5 00 ff ff ff 	mov    %rsi,-0x100(%rbp)
  1d:	48 89 95 f8 fe ff ff 	mov    %rdx,-0x108(%rbp)
  24:	48 89 8d f0 fe ff ff 	mov    %rcx,-0x110(%rbp)
  2b:	64 48 8b 04 25 28 00 	mov    %fs:0x28,%rax
  32:	00 00 
  34:	48 89 45 f8          	mov    %rax,-0x8(%rbp)
  38:	31 c0                	xor    %eax,%eax
  3a:	48 8b 95 f0 fe ff ff 	mov    -0x110(%rbp),%rdx
  41:	48 8d 45 90          	lea    -0x70(%rbp),%rax
  45:	48 89 d6             	mov    %rdx,%rsi
  48:	48 89 c7             	mov    %rax,%rdi
  4b:	e8 00 00 00 00       	call   50 <_ZSt13__copy_move_aILb0ESt15_Deque_iteratorIiRKiPS1_ES0_IiRiPiEET1_T0_S9_S8_+0x50>
  50:	48 8d 45 b0          	lea    -0x50(%rbp),%rax
  54:	48 8d 55 90          	lea    -0x70(%rbp),%rdx
  58:	48 89 d6             	mov    %rdx,%rsi
  5b:	48 89 c7             	mov    %rax,%rdi
  5e:	e8 00 00 00 00       	call   63 <_ZSt13__copy_move_aILb0ESt15_Deque_iteratorIiRKiPS1_ES0_IiRiPiEET1_T0_S9_S8_+0x63>
  63:	48 8b 95 f8 fe ff ff 	mov    -0x108(%rbp),%rdx
  6a:	48 8d 85 50 ff ff ff 	lea    -0xb0(%rbp),%rax
  71:	48 89 d6             	mov    %rdx,%rsi
  74:	48 89 c7             	mov    %rax,%rdi
  77:	e8 00 00 00 00       	call   7c <_ZSt13__copy_move_aILb0ESt15_Deque_iteratorIiRKiPS1_ES0_IiRiPiEET1_T0_S9_S8_+0x7c>
  7c:	48 8d 85 70 ff ff ff 	lea    -0x90(%rbp),%rax
  83:	48 8d 95 50 ff ff ff 	lea    -0xb0(%rbp),%rdx
  8a:	48 89 d6             	mov    %rdx,%rsi
  8d:	48 89 c7             	mov    %rax,%rdi
  90:	e8 00 00 00 00       	call   95 <_ZSt13__copy_move_aILb0ESt15_Deque_iteratorIiRKiPS1_ES0_IiRiPiEET1_T0_S9_S8_+0x95>
  95:	48 8b 95 00 ff ff ff 	mov    -0x100(%rbp),%rdx
  9c:	48 8d 85 10 ff ff ff 	lea    -0xf0(%rbp),%rax
  a3:	48 89 d6             	mov    %rdx,%rsi
  a6:	48 89 c7             	mov    %rax,%rdi
  a9:	e8 00 00 00 00       	call   ae <_ZSt13__copy_move_aILb0ESt15_Deque_iteratorIiRKiPS1_ES0_IiRiPiEET1_T0_S9_S8_+0xae>
  ae:	48 8d 85 30 ff ff ff 	lea    -0xd0(%rbp),%rax
  b5:	48 8d 95 10 ff ff ff 	lea    -0xf0(%rbp),%rdx
  bc:	48 89 d6             	mov    %rdx,%rsi
  bf:	48 89 c7             	mov    %rax,%rdi
  c2:	e8 00 00 00 00       	call   c7 <_ZSt13__copy_move_aILb0ESt15_Deque_iteratorIiRKiPS1_ES0_IiRiPiEET1_T0_S9_S8_+0xc7>
  c7:	48 8d 45 d0          	lea    -0x30(%rbp),%rax
  cb:	48 8d 4d b0          	lea    -0x50(%rbp),%rcx
  cf:	48 8d 95 70 ff ff ff 	lea    -0x90(%rbp),%rdx
  d6:	48 8d b5 30 ff ff ff 	lea    -0xd0(%rbp),%rsi
  dd:	48 89 c7             	mov    %rax,%rdi
  e0:	e8 00 00 00 00       	call   e5 <_ZSt13__copy_move_aILb0ESt15_Deque_iteratorIiRKiPS1_ES0_IiRiPiEET1_T0_S9_S8_+0xe5>
  e5:	48 8b 85 08 ff ff ff 	mov    -0xf8(%rbp),%rax
  ec:	48 8d 55 d0          	lea    -0x30(%rbp),%rdx
  f0:	48 8b 8d f0 fe ff ff 	mov    -0x110(%rbp),%rcx
  f7:	48 89 ce             	mov    %rcx,%rsi
  fa:	48 89 c7             	mov    %rax,%rdi
  fd:	e8 00 00 00 00       	call   102 <_ZSt13__copy_move_aILb0ESt15_Deque_iteratorIiRKiPS1_ES0_IiRiPiEET1_T0_S9_S8_+0x102>
 102:	48 8b 45 f8          	mov    -0x8(%rbp),%rax
 106:	64 48 2b 04 25 28 00 	sub    %fs:0x28,%rax
 10d:	00 00 
 10f:	74 05                	je     116 <_ZSt13__copy_move_aILb0ESt15_Deque_iteratorIiRKiPS1_ES0_IiRiPiEET1_T0_S9_S8_+0x116>
 111:	e8 00 00 00 00       	call   116 <_ZSt13__copy_move_aILb0ESt15_Deque_iteratorIiRKiPS1_ES0_IiRiPiEET1_T0_S9_S8_+0x116>
 116:	48 8b 85 08 ff ff ff 	mov    -0xf8(%rbp),%rax
 11d:	c9                   	leave  
 11e:	c3                   	ret    

Disassembly of section .text._ZNSt15_Deque_iteratorIiRKiPS0_EpLEl:

0000000000000000 <_ZNSt15_Deque_iteratorIiRKiPS0_EpLEl>:
   0:	f3 0f 1e fa          	endbr64 
   4:	55                   	push   %rbp
   5:	48 89 e5             	mov    %rsp,%rbp
   8:	53                   	push   %rbx
   9:	48 83 ec 28          	sub    $0x28,%rsp
   d:	48 89 7d d8          	mov    %rdi,-0x28(%rbp)
  11:	48 89 75 d0          	mov    %rsi,-0x30(%rbp)
  15:	48 8b 45 d8          	mov    -0x28(%rbp),%rax
  19:	48 8b 10             	mov    (%rax),%rdx
  1c:	48 8b 45 d8          	mov    -0x28(%rbp),%rax
  20:	48 8b 48 08          	mov    0x8(%rax),%rcx
  24:	48 89 d0             	mov    %rdx,%rax
  27:	48 29 c8             	sub    %rcx,%rax
  2a:	48 c1 f8 02          	sar    $0x2,%rax
  2e:	48 89 c2             	mov    %rax,%rdx
  31:	48 8b 45 d0          	mov    -0x30(%rbp),%rax
  35:	48 01 d0             	add    %rdx,%rax
  38:	48 89 45 e0          	mov    %rax,-0x20(%rbp)
  3c:	48 83 7d e0 00       	cmpq   $0x0,-0x20(%rbp)
  41:	78 12                	js     55 <_ZNSt15_Deque_iteratorIiRKiPS0_EpLEl+0x55>
  43:	e8 00 00 00 00       	call   48 <_ZNSt15_Deque_iteratorIiRKiPS0_EpLEl+0x48>
  48:	48 39 45 e0          	cmp    %rax,-0x20(%rbp)
  4c:	7d 07                	jge    55 <_ZNSt15_Deque_iteratorIiRKiPS0_EpLEl+0x55>
  4e:	b8 01 00 00 00       	mov    $0x1,%eax
  53:	eb 05                	jmp    5a <_ZNSt15_Deque_iteratorIiRKiPS0_EpLEl+0x5a>
  55:	b8 00 00 00 00       	mov    $0x0,%eax
  5a:	84 c0                	test   %al,%al
  5c:	74 1e                	je     7c <_ZNSt15_Deque_iteratorIiRKiPS0_EpLEl+0x7c>
  5e:	48 8b 45 d8          	mov    -0x28(%rbp),%rax
  62:	48 8b 10             	mov    (%rax),%rdx
  65:	48 8b 45 d0          	mov    -0x30(%rbp),%rax
  69:	48 c1 e0 02          	shl    $0x2,%rax
  6d:	48 01 c2             	add    %rax,%rdx
  70:	48 8b 45 d8          	mov    -0x28(%rbp),%rax
  74:	48 89 10             	mov    %rdx,(%rax)
  77:	e9 8b 00 00 00       	jmp    107 <_ZNSt15_Deque_iteratorIiRKiPS0_EpLEl+0x107>
  7c:	48 83 7d e0 00       	cmpq   $0x0,-0x20(%rbp)
  81:	7e 13                	jle    96 <_ZNSt15_Deque_iteratorIiRKiPS0_EpLEl+0x96>
  83:	e8 00 00 00 00       	call   88 <_ZNSt15_Deque_iteratorIiRKiPS0_EpLEl+0x88>
  88:	48 89 c1             	mov    %rax,%rcx
  8b:	48 8b 45 e0          	mov    -0x20(%rbp),%rax
  8f:	48 99                	cqto   
  91:	48 f7 f9             	idiv   %rcx
  94:	eb 20                	jmp    b6 <_ZNSt15_Deque_iteratorIiRKiPS0_EpLEl+0xb6>
  96:	48 8b 45 e0          	mov    -0x20(%rbp),%rax
  9a:	48 f7 d0             	not    %rax
  9d:	48 89 c3             	mov    %rax,%rbx
  a0:	e8 00 00 00 00       	call   a5 <_ZNSt15_Deque_iteratorIiRKiPS0_EpLEl+0xa5>
  a5:	48 89 c6             	mov    %rax,%rsi
  a8:	48 89 d8             	mov    %rbx,%rax
  ab:	ba 00 00 00 00       	mov    $0x0,%edx
  b0:	48 f7 f6             	div    %rsi
  b3:	48 f7 d0             	not    %rax
  b6:	48 89 45 e8          	mov    %rax,-0x18(%rbp)
  ba:	48 8b 45 d8          	mov    -0x28(%rbp),%rax
  be:	48 8b 50 18          	mov    0x18(%rax),%rdx
  c2:	48 8b 45 e8          	mov    -0x18(%rbp),%rax
  c6:	48 c1 e0 03          	shl    $0x3,%rax
  ca:	48 01 c2             	add    %rax,%rdx
  cd:	48 8b 45 d8          	mov    -0x28(%rbp),%rax
  d1:	48 89 d6             	mov    %rdx,%rsi
  d4:	48 89 c7             	mov    %rax,%rdi
  d7:	e8 00 00 00 00       	call   dc <_ZNSt15_Deque_iteratorIiRKiPS0_EpLEl+0xdc>
  dc:	48 8b 45 d8          	mov    -0x28(%rbp),%rax
  e0:	48 8b 58 08          	mov    0x8(%rax),%rbx
  e4:	e8 00 00 00 00       	call   e9 <_ZNSt15_Deque_iteratorIiRKiPS0_EpLEl+0xe9>
  e9:	48 0f af 45 e8       	imul   -0x18(%rbp),%rax
  ee:	48 89 c2             	mov    %rax,%rdx
  f1:	48 8b 45 e0          	mov    -0x20(%rbp),%rax
  f5:	48 29 d0             	sub    %rdx,%rax
  f8:	48 c1 e0 02          	shl    $0x2,%rax
  fc:	48 8d 14 03          	lea    (%rbx,%rax,1),%rdx
 100:	48 8b 45 d8          	mov    -0x28(%rbp),%rax
 104:	48 89 10             	mov    %rdx,(%rax)
 107:	48 8b 45 d8          	mov    -0x28(%rbp),%rax
 10b:	48 8b 5d f8          	mov    -0x8(%rbp),%rbx
 10f:	c9                   	leave  
 110:	c3                   	ret    

Disassembly of section .text._ZSt8distanceISt15_Deque_iteratorIiRKiPS1_EENSt15iterator_traitsIT_E15difference_typeES6_S6_:

0000000000000000 <_ZSt8distanceISt15_Deque_iteratorIiRKiPS1_EENSt15iterator_traitsIT_E15difference_typeES6_S6_>:
   0:	f3 0f 1e fa          	endbr64 
   4:	55                   	push   %rbp
   5:	48 89 e5             	mov    %rsp,%rbp
   8:	48 83 ec 60          	sub    $0x60,%rsp
   c:	48 89 7d a8          	mov    %rdi,-0x58(%rbp)
  10:	48 89 75 a0          	mov    %rsi,-0x60(%rbp)
  14:	64 48 8b 04 25 28 00 	mov    %fs:0x28,%rax
  1b:	00 00 
  1d:	48 89 45 f8          	mov    %rax,-0x8(%rbp)
  21:	31 c0                	xor    %eax,%eax
  23:	48 8b 45 a8          	mov    -0x58(%rbp),%rax
  27:	48 89 c7             	mov    %rax,%rdi
  2a:	e8 00 00 00 00       	call   2f <_ZSt8distanceISt15_Deque_iteratorIiRKiPS1_EENSt15iterator_traitsIT_E15difference_typeES6_S6_+0x2f>
  2f:	48 8b 55 a0          	mov    -0x60(%rbp),%rdx
  33:	48 8d 45 d0          	lea    -0x30(%rbp),%rax
  37:	48 89 d6             	mov    %rdx,%rsi
  3a:	48 89 c7             	mov    %rax,%rdi
  3d:	e8 00 00 00 00       	call   42 <_ZSt8distanceISt15_Deque_iteratorIiRKiPS1_EENSt15iterator_traitsIT_E15difference_typeES6_S6_+0x42>
  42:	48 8b 55 a8          	mov    -0x58(%rbp),%rdx
  46:	48 8d 45 b0          	lea    -0x50(%rbp),%rax
  4a:	48 89 d6             	mov    %rdx,%rsi
  4d:	48 89 c7             	mov    %rax,%rdi
  50:	e8 00 00 00 00       	call   55 <_ZSt8distanceISt15_Deque_iteratorIiRKiPS1_EENSt15iterator_traitsIT_E15difference_typeES6_S6_+0x55>
  55:	48 8d 55 d0          	lea    -0x30(%rbp),%rdx
  59:	48 8d 45 b0          	lea    -0x50(%rbp),%rax
  5d:	48 89 d6             	mov    %rdx,%rsi
  60:	48 89 c7             	mov    %rax,%rdi
  63:	e8 00 00 00 00       	call   68 <_ZSt8distanceISt15_Deque_iteratorIiRKiPS1_EENSt15iterator_traitsIT_E15difference_typeES6_S6_+0x68>
  68:	48 8b 55 f8          	mov    -0x8(%rbp),%rdx
  6c:	64 48 2b 14 25 28 00 	sub    %fs:0x28,%rdx
  73:	00 00 
  75:	74 05                	je     7c <_ZSt8distanceISt15_Deque_iteratorIiRKiPS1_EENSt15iterator_traitsIT_E15difference_typeES6_S6_+0x7c>
  77:	e8 00 00 00 00       	call   7c <_ZSt8distanceISt15_Deque_iteratorIiRKiPS1_EENSt15iterator_traitsIT_E15difference_typeES6_S6_+0x7c>
  7c:	c9                   	leave  
  7d:	c3                   	ret    

Disassembly of section .text._ZNSt5dequeIiSaIiEE28_M_reserve_elements_at_frontEm:

0000000000000000 <_ZNSt5dequeIiSaIiEE28_M_reserve_elements_at_frontEm>:
   0:	f3 0f 1e fa          	endbr64 
   4:	55                   	push   %rbp
   5:	48 89 e5             	mov    %rsp,%rbp
   8:	48 83 ec 30          	sub    $0x30,%rsp
   c:	48 89 7d e8          	mov    %rdi,-0x18(%rbp)
  10:	48 89 75 e0          	mov    %rsi,-0x20(%rbp)
  14:	48 89 55 d8          	mov    %rdx,-0x28(%rbp)
  18:	64 48 8b 04 25 28 00 	mov    %fs:0x28,%rax
  1f:	00 00 
  21:	48 89 45 f8          	mov    %rax,-0x8(%rbp)
  25:	31 c0                	xor    %eax,%eax
  27:	48 8b 45 e0          	mov    -0x20(%rbp),%rax
  2b:	48 8b 50 10          	mov    0x10(%rax),%rdx
  2f:	48 8b 45 e0          	mov    -0x20(%rbp),%rax
  33:	48 8b 48 18          	mov    0x18(%rax),%rcx
  37:	48 89 d0             	mov    %rdx,%rax
  3a:	48 29 c8             	sub    %rcx,%rax
  3d:	48 c1 f8 02          	sar    $0x2,%rax
  41:	48 89 45 f0          	mov    %rax,-0x10(%rbp)
  45:	48 8b 45 d8          	mov    -0x28(%rbp),%rax
  49:	48 3b 45 f0          	cmp    -0x10(%rbp),%rax
  4d:	76 1a                	jbe    69 <_ZNSt5dequeIiSaIiEE28_M_reserve_elements_at_frontEm+0x69>
  4f:	48 8b 45 d8          	mov    -0x28(%rbp),%rax
  53:	48 2b 45 f0          	sub    -0x10(%rbp),%rax
  57:	48 89 c2             	mov    %rax,%rdx
  5a:	48 8b 45 e0          	mov    -0x20(%rbp),%rax
  5e:	48 89 d6             	mov    %rdx,%rsi
  61:	48 89 c7             	mov    %rax,%rdi
  64:	e8 00 00 00 00       	call   69 <_ZNSt5dequeIiSaIiEE28_M_reserve_elements_at_frontEm+0x69>
  69:	48 8b 55 d8          	mov    -0x28(%rbp),%rdx
  6d:	48 8b 45 e0          	mov    -0x20(%rbp),%rax
  71:	48 8d 48 10          	lea    0x10(%rax),%rcx
  75:	48 8b 45 e8          	mov    -0x18(%rbp),%rax
  79:	48 89 ce             	mov    %rcx,%rsi
  7c:	48 89 c7             	mov    %rax,%rdi
  7f:	e8 00 00 00 00       	call   84 <_ZNSt5dequeIiSaIiEE28_M_reserve_elements_at_frontEm+0x84>
  84:	48 8b 45 f8          	mov    -0x8(%rbp),%rax
  88:	64 48 2b 04 25 28 00 	sub    %fs:0x28,%rax
  8f:	00 00 
  91:	74 05                	je     98 <_ZNSt5dequeIiSaIiEE28_M_reserve_elements_at_frontEm+0x98>
  93:	e8 00 00 00 00       	call   98 <_ZNSt5dequeIiSaIiEE28_M_reserve_elements_at_frontEm+0x98>
  98:	48 8b 45 e8          	mov    -0x18(%rbp),%rax
  9c:	c9                   	leave  
  9d:	c3                   	ret    

Disassembly of section .text._ZSt22__uninitialized_copy_aISt15_Deque_iteratorIiRKiPS1_ES0_IiRiPiEiET0_T_S9_S8_RSaIT1_E:

0000000000000000 <_ZSt22__uninitialized_copy_aISt15_Deque_iteratorIiRKiPS1_ES0_IiRiPiEiET0_T_S9_S8_RSaIT1_E>:
   0:	f3 0f 1e fa          	endbr64 
   4:	55                   	push   %rbp
   5:	48 89 e5             	mov    %rsp,%rbp
   8:	48 81 ec a0 00 00 00 	sub    $0xa0,%rsp
   f:	48 89 7d 88          	mov    %rdi,-0x78(%rbp)
  13:	48 89 75 80          	mov    %rsi,-0x80(%rbp)
  17:	48 89 95 78 ff ff ff 	mov    %rdx,-0x88(%rbp)
  1e:	48 89 8d 70 ff ff ff 	mov    %rcx,-0x90(%rbp)
  25:	4c 89 85 68 ff ff ff 	mov    %r8,-0x98(%rbp)
  2c:	64 48 8b 04 25 28 00 	mov    %fs:0x28,%rax
  33:	00 00 
  35:	48 89 45 f8          	mov    %rax,-0x8(%rbp)
  39:	31 c0                	xor    %eax,%eax
  3b:	48 8b 95 70 ff ff ff 	mov    -0x90(%rbp),%rdx
  42:	48 8d 45 d0          	lea    -0x30(%rbp),%rax
  46:	48 89 d6             	mov    %rdx,%rsi
  49:	48 89 c7             	mov    %rax,%rdi
  4c:	e8 00 00 00 00       	call   51 <_ZSt22__uninitialized_copy_aISt15_Deque_iteratorIiRKiPS1_ES0_IiRiPiEiET0_T_S9_S8_RSaIT1_E+0x51>
  51:	48 8b 95 78 ff ff ff 	mov    -0x88(%rbp),%rdx
  58:	48 8d 45 b0          	lea    -0x50(%rbp),%rax
  5c:	48 89 d6             	mov    %rdx,%rsi
  5f:	48 89 c7             	mov    %rax,%rdi
  62:	e8 00 00 00 00       	call   67 <_ZSt22__uninitialized_copy_aISt15_Deque_iteratorIiRKiPS1_ES0_IiRiPiEiET0_T_S9_S8_RSaIT1_E+0x67>
  67:	48 8b 55 80          	mov    -0x80(%rbp),%rdx
  6b:	48 8d 45 90          	lea    -0x70(%rbp),%rax
  6f:	48 89 d6             	mov    %rdx,%rsi
  72:	48 89 c7             	mov    %rax,%rdi
  75:	e8 00 00 00 00       	call   7a <_ZSt22__uninitialized_copy_aISt15_Deque_iteratorIiRKiPS1_ES0_IiRiPiEiET0_T_S9_S8_RSaIT1_E+0x7a>
  7a:	48 8b 45 88          	mov    -0x78(%rbp),%rax
  7e:	48 8d 4d d0          	lea    -0x30(%rbp),%rcx
  82:	48 8d 55 b0          	lea    -0x50(%rbp),%rdx
  86:	48 8d 75 90          	lea    -0x70(%rbp),%rsi
  8a:	48 89 c7             	mov    %rax,%rdi
  8d:	e8 00 00 00 00       	call   92 <_ZSt22__uninitialized_copy_aISt15_Deque_iteratorIiRKiPS1_ES0_IiRiPiEiET0_T_S9_S8_RSaIT1_E+0x92>
  92:	48 8b 45 f8          	mov    -0x8(%rbp),%rax
  96:	64 48 2b 04 25 28 00 	sub    %fs:0x28,%rax
  9d:	00 00 
  9f:	74 05                	je     a6 <_ZSt22__uninitialized_copy_aISt15_Deque_iteratorIiRKiPS1_ES0_IiRiPiEiET0_T_S9_S8_RSaIT1_E+0xa6>
  a1:	e8 00 00 00 00       	call   a6 <_ZSt22__uninitialized_copy_aISt15_Deque_iteratorIiRKiPS1_ES0_IiRiPiEiET0_T_S9_S8_RSaIT1_E+0xa6>
  a6:	48 8b 45 88          	mov    -0x78(%rbp),%rax
  aa:	c9                   	leave  
  ab:	c3                   	ret    

Disassembly of section .text._ZNSt5dequeIiSaIiEE27_M_reserve_elements_at_backEm:

0000000000000000 <_ZNSt5dequeIiSaIiEE27_M_reserve_elements_at_backEm>:
   0:	f3 0f 1e fa          	endbr64 
   4:	55                   	push   %rbp
   5:	48 89 e5             	mov    %rsp,%rbp
   8:	48 83 ec 30          	sub    $0x30,%rsp
   c:	48 89 7d e8          	mov    %rdi,-0x18(%rbp)
  10:	48 89 75 e0          	mov    %rsi,-0x20(%rbp)
  14:	48 89 55 d8          	mov    %rdx,-0x28(%rbp)
  18:	64 48 8b 04 25 28 00 	mov    %fs:0x28,%rax
  1f:	00 00 
  21:	48 89 45 f8          	mov    %rax,-0x8(%rbp)
  25:	31 c0                	xor    %eax,%eax
  27:	48 8b 45 e0          	mov    -0x20(%rbp),%rax
  2b:	48 8b 50 40          	mov    0x40(%rax),%rdx
  2f:	48 8b 45 e0          	mov    -0x20(%rbp),%rax
  33:	48 8b 48 30          	mov    0x30(%rax),%rcx
  37:	48 89 d0             	mov    %rdx,%rax
  3a:	48 29 c8             	sub    %rcx,%rax
  3d:	48 c1 f8 02          	sar    $0x2,%rax
  41:	48 83 e8 01          	sub    $0x1,%rax
  45:	48 89 45 f0          	mov    %rax,-0x10(%rbp)
  49:	48 8b 45 d8          	mov    -0x28(%rbp),%rax
  4d:	48 3b 45 f0          	cmp    -0x10(%rbp),%rax
  51:	76 1a                	jbe    6d <_ZNSt5dequeIiSaIiEE27_M_reserve_elements_at_backEm+0x6d>
  53:	48 8b 45 d8          	mov    -0x28(%rbp),%rax
  57:	48 2b 45 f0          	sub    -0x10(%rbp),%rax
  5b:	48 89 c2             	mov    %rax,%rdx
  5e:	48 8b 45 e0          	mov    -0x20(%rbp),%rax
  62:	48 89 d6             	mov    %rdx,%rsi
  65:	48 89 c7             	mov    %rax,%rdi
  68:	e8 00 00 00 00       	call   6d <_ZNSt5dequeIiSaIiEE27_M_reserve_elements_at_backEm+0x6d>
  6d:	48 8b 55 d8          	mov    -0x28(%rbp),%rdx
  71:	48 8b 45 e0          	mov    -0x20(%rbp),%rax
  75:	48 8d 48 30          	lea    0x30(%rax),%rcx
  79:	48 8b 45 e8          	mov    -0x18(%rbp),%rax
  7d:	48 89 ce             	mov    %rcx,%rsi
  80:	48 89 c7             	mov    %rax,%rdi
  83:	e8 00 00 00 00       	call   88 <_ZNSt5dequeIiSaIiEE27_M_reserve_elements_at_backEm+0x88>
  88:	48 8b 45 f8          	mov    -0x8(%rbp),%rax
  8c:	64 48 2b 04 25 28 00 	sub    %fs:0x28,%rax
  93:	00 00 
  95:	74 05                	je     9c <_ZNSt5dequeIiSaIiEE27_M_reserve_elements_at_backEm+0x9c>
  97:	e8 00 00 00 00       	call   9c <_ZNSt5dequeIiSaIiEE27_M_reserve_elements_at_backEm+0x9c>
  9c:	48 8b 45 e8          	mov    -0x18(%rbp),%rax
  a0:	c9                   	leave  
  a1:	c3                   	ret    

Disassembly of section .text._ZNSt5dequeIiSaIiEE13_M_insert_auxISt15_Deque_iteratorIiRKiPS4_EEEvS3_IiRiPiET_SB_m:

0000000000000000 <_ZNSt5dequeIiSaIiEE13_M_insert_auxISt15_Deque_iteratorIiRKiPS4_EEEvS3_IiRiPiET_SB_m>:
   0:	f3 0f 1e fa          	endbr64 
   4:	55                   	push   %rbp
   5:	48 89 e5             	mov    %rsp,%rbp
   8:	53                   	push   %rbx
   9:	48 81 ec 88 01 00 00 	sub    $0x188,%rsp
  10:	48 89 bd 98 fe ff ff 	mov    %rdi,-0x168(%rbp)
  17:	48 89 b5 90 fe ff ff 	mov    %rsi,-0x170(%rbp)
  1e:	48 89 95 88 fe ff ff 	mov    %rdx,-0x178(%rbp)
  25:	48 89 8d 80 fe ff ff 	mov    %rcx,-0x180(%rbp)
  2c:	4c 89 85 78 fe ff ff 	mov    %r8,-0x188(%rbp)
  33:	64 48 8b 04 25 28 00 	mov    %fs:0x28,%rax
  3a:	00 00 
  3c:	48 89 45 e8          	mov    %rax,-0x18(%rbp)
  40:	31 c0                	xor    %eax,%eax
  42:	48 8b 85 98 fe ff ff 	mov    -0x168(%rbp),%rax
  49:	48 8d 50 10          	lea    0x10(%rax),%rdx
  4d:	48 8b 85 90 fe ff ff 	mov    -0x170(%rbp),%rax
  54:	48 89 d6             	mov    %rdx,%rsi
  57:	48 89 c7             	mov    %rax,%rdi
  5a:	e8 00 00 00 00       	call   5f <_ZNSt5dequeIiSaIiEE13_M_insert_auxISt15_Deque_iteratorIiRKiPS4_EEEvS3_IiRiPiET_SB_m+0x5f>
  5f:	48 89 85 a8 fe ff ff 	mov    %rax,-0x158(%rbp)
  66:	48 8b 85 98 fe ff ff 	mov    -0x168(%rbp),%rax
  6d:	48 89 c7             	mov    %rax,%rdi
  70:	e8 00 00 00 00       	call   75 <_ZNSt5dequeIiSaIiEE13_M_insert_auxISt15_Deque_iteratorIiRKiPS4_EEEvS3_IiRiPiET_SB_m+0x75>
  75:	48 89 85 b0 fe ff ff 	mov    %rax,-0x150(%rbp)
  7c:	48 8b 85 b0 fe ff ff 	mov    -0x150(%rbp),%rax
  83:	48 d1 e8             	shr    %rax
  86:	48 89 c2             	mov    %rax,%rdx
  89:	48 8b 85 a8 fe ff ff 	mov    -0x158(%rbp),%rax
  90:	48 39 c2             	cmp    %rax,%rdx
  93:	0f 86 c7 03 00 00    	jbe    460 <_ZNSt5dequeIiSaIiEE13_M_insert_auxISt15_Deque_iteratorIiRKiPS4_EEEvS3_IiRiPiET_SB_m+0x460>
  99:	48 8d 85 c0 fe ff ff 	lea    -0x140(%rbp),%rax
  a0:	48 8b 95 78 fe ff ff 	mov    -0x188(%rbp),%rdx
  a7:	48 8b 8d 98 fe ff ff 	mov    -0x168(%rbp),%rcx
  ae:	48 89 ce             	mov    %rcx,%rsi
  b1:	48 89 c7             	mov    %rax,%rdi
  b4:	e8 00 00 00 00       	call   b9 <_ZNSt5dequeIiSaIiEE13_M_insert_auxISt15_Deque_iteratorIiRKiPS4_EEEvS3_IiRiPiET_SB_m+0xb9>
  b9:	48 8b 85 98 fe ff ff 	mov    -0x168(%rbp),%rax
  c0:	48 8d 50 10          	lea    0x10(%rax),%rdx
  c4:	48 8d 85 e0 fe ff ff 	lea    -0x120(%rbp),%rax
  cb:	48 89 d6             	mov    %rdx,%rsi
  ce:	48 89 c7             	mov    %rax,%rdi
  d1:	e8 00 00 00 00       	call   d6 <_ZNSt5dequeIiSaIiEE13_M_insert_auxISt15_Deque_iteratorIiRKiPS4_EEEvS3_IiRiPiET_SB_m+0xd6>
  d6:	48 8b 85 98 fe ff ff 	mov    -0x168(%rbp),%rax
  dd:	48 8d 48 10          	lea    0x10(%rax),%rcx
  e1:	48 8d 45 c0          	lea    -0x40(%rbp),%rax
  e5:	48 8b 95 a8 fe ff ff 	mov    -0x158(%rbp),%rdx
  ec:	48 89 ce             	mov    %rcx,%rsi
  ef:	48 89 c7             	mov    %rax,%rdi
  f2:	e8 00 00 00 00       	call   f7 <_ZNSt5dequeIiSaIiEE13_M_insert_auxISt15_Deque_iteratorIiRKiPS4_EEEvS3_IiRiPiET_SB_m+0xf7>
  f7:	48 8b 8d 90 fe ff ff 	mov    -0x170(%rbp),%rcx
  fe:	48 8b 45 c0          	mov    -0x40(%rbp),%rax
 102:	48 8b 55 c8          	mov    -0x38(%rbp),%rdx
 106:	48 89 01             	mov    %rax,(%rcx)
 109:	48 89 51 08          	mov    %rdx,0x8(%rcx)
 10d:	48 8b 45 d0          	mov    -0x30(%rbp),%rax
 111:	48 8b 55 d8          	mov    -0x28(%rbp),%rdx
 115:	48 89 41 10          	mov    %rax,0x10(%rcx)
 119:	48 89 51 18          	mov    %rdx,0x18(%rcx)
 11d:	48 8b 85 78 fe ff ff 	mov    -0x188(%rbp),%rax
 124:	48 39 85 a8 fe ff ff 	cmp    %rax,-0x158(%rbp)
 12b:	0f 8c 96 01 00 00    	jl     2c7 <_ZNSt5dequeIiSaIiEE13_M_insert_auxISt15_Deque_iteratorIiRKiPS4_EEEvS3_IiRiPiET_SB_m+0x2c7>
 131:	48 8b 95 78 fe ff ff 	mov    -0x188(%rbp),%rdx
 138:	48 8b 85 98 fe ff ff 	mov    -0x168(%rbp),%rax
 13f:	48 8d 48 10          	lea    0x10(%rax),%rcx
 143:	48 8d 85 20 ff ff ff 	lea    -0xe0(%rbp),%rax
 14a:	48 89 ce             	mov    %rcx,%rsi
 14d:	48 89 c7             	mov    %rax,%rdi
 150:	e8 00 00 00 00       	call   155 <_ZNSt5dequeIiSaIiEE13_M_insert_auxISt15_Deque_iteratorIiRKiPS4_EEEvS3_IiRiPiET_SB_m+0x155>
 155:	48 8b 85 98 fe ff ff 	mov    -0x168(%rbp),%rax
 15c:	48 89 c7             	mov    %rax,%rdi
 15f:	e8 00 00 00 00       	call   164 <_ZNSt5dequeIiSaIiEE13_M_insert_auxISt15_Deque_iteratorIiRKiPS4_EEEvS3_IiRiPiET_SB_m+0x164>
 164:	48 89 c3             	mov    %rax,%rbx
 167:	48 8d 95 c0 fe ff ff 	lea    -0x140(%rbp),%rdx
 16e:	48 8d 45 c0          	lea    -0x40(%rbp),%rax
 172:	48 89 d6             	mov    %rdx,%rsi
 175:	48 89 c7             	mov    %rax,%rdi
 178:	e8 00 00 00 00       	call   17d <_ZNSt5dequeIiSaIiEE13_M_insert_auxISt15_Deque_iteratorIiRKiPS4_EEEvS3_IiRiPiET_SB_m+0x17d>
 17d:	48 8d 95 20 ff ff ff 	lea    -0xe0(%rbp),%rdx
 184:	48 8d 45 a0          	lea    -0x60(%rbp),%rax
 188:	48 89 d6             	mov    %rdx,%rsi
 18b:	48 89 c7             	mov    %rax,%rdi
 18e:	e8 00 00 00 00       	call   193 <_ZNSt5dequeIiSaIiEE13_M_insert_auxISt15_Deque_iteratorIiRKiPS4_EEEvS3_IiRiPiET_SB_m+0x193>
 193:	48 8b 85 98 fe ff ff 	mov    -0x168(%rbp),%rax
 19a:	48 8d 50 10          	lea    0x10(%rax),%rdx
 19e:	48 8d 45 80          	lea    -0x80(%rbp),%rax
 1a2:	48 89 d6             	mov    %rdx,%rsi
 1a5:	48 89 c7             	mov    %rax,%rdi
 1a8:	e8 00 00 00 00       	call   1ad <_ZNSt5dequeIiSaIiEE13_M_insert_auxISt15_Deque_iteratorIiRKiPS4_EEEvS3_IiRiPiET_SB_m+0x1ad>
 1ad:	48 8d 85 40 ff ff ff 	lea    -0xc0(%rbp),%rax
 1b4:	48 8d 4d c0          	lea    -0x40(%rbp),%rcx
 1b8:	48 8d 55 a0          	lea    -0x60(%rbp),%rdx
 1bc:	48 8d 75 80          	lea    -0x80(%rbp),%rsi
 1c0:	49 89 d8             	mov    %rbx,%r8
 1c3:	48 89 c7             	mov    %rax,%rdi
 1c6:	e8 00 00 00 00       	call   1cb <_ZNSt5dequeIiSaIiEE13_M_insert_auxISt15_Deque_iteratorIiRKiPS4_EEEvS3_IiRiPiET_SB_m+0x1cb>
 1cb:	48 8b 8d 98 fe ff ff 	mov    -0x168(%rbp),%rcx
 1d2:	48 8b 85 c0 fe ff ff 	mov    -0x140(%rbp),%rax
 1d9:	48 8b 95 c8 fe ff ff 	mov    -0x138(%rbp),%rdx
 1e0:	48 89 41 10          	mov    %rax,0x10(%rcx)
 1e4:	48 89 51 18          	mov    %rdx,0x18(%rcx)
 1e8:	48 8b 85 d0 fe ff ff 	mov    -0x130(%rbp),%rax
 1ef:	48 8b 95 d8 fe ff ff 	mov    -0x128(%rbp),%rdx
 1f6:	48 89 41 20          	mov    %rax,0x20(%rcx)
 1fa:	48 89 51 28          	mov    %rdx,0x28(%rcx)
 1fe:	48 8d 95 e0 fe ff ff 	lea    -0x120(%rbp),%rdx
 205:	48 8d 45 c0          	lea    -0x40(%rbp),%rax
 209:	48 89 d6             	mov    %rdx,%rsi
 20c:	48 89 c7             	mov    %rax,%rdi
 20f:	e8 00 00 00 00       	call   214 <_ZNSt5dequeIiSaIiEE13_M_insert_auxISt15_Deque_iteratorIiRKiPS4_EEEvS3_IiRiPiET_SB_m+0x214>
 214:	48 8b 95 90 fe ff ff 	mov    -0x170(%rbp),%rdx
 21b:	48 8d 45 a0          	lea    -0x60(%rbp),%rax
 21f:	48 89 d6             	mov    %rdx,%rsi
 222:	48 89 c7             	mov    %rax,%rdi
 225:	e8 00 00 00 00       	call   22a <_ZNSt5dequeIiSaIiEE13_M_insert_auxISt15_Deque_iteratorIiRKiPS4_EEEvS3_IiRiPiET_SB_m+0x22a>
 22a:	48 8d 95 20 ff ff ff 	lea    -0xe0(%rbp),%rdx
 231:	48 8d 45 80          	lea    -0x80(%rbp),%rax
 235:	48 89 d6             	mov    %rdx,%rsi
 238:	48 89 c7             	mov    %rax,%rdi
 23b:	e8 00 00 00 00       	call   240 <_ZNSt5dequeIiSaIiEE13_M_insert_auxISt15_Deque_iteratorIiRKiPS4_EEEvS3_IiRiPiET_SB_m+0x240>
 240:	48 8d 85 60 ff ff ff 	lea    -0xa0(%rbp),%rax
 247:	48 8d 4d c0          	lea    -0x40(%rbp),%rcx
 24b:	48 8d 55 a0          	lea    -0x60(%rbp),%rdx
 24f:	48 8d 75 80          	lea    -0x80(%rbp),%rsi
 253:	48 89 c7             	mov    %rax,%rdi
 256:	e8 00 00 00 00       	call   25b <_ZNSt5dequeIiSaIiEE13_M_insert_auxISt15_Deque_iteratorIiRKiPS4_EEEvS3_IiRiPiET_SB_m+0x25b>
 25b:	48 8b 95 78 fe ff ff 	mov    -0x188(%rbp),%rdx
 262:	48 8d 85 60 ff ff ff 	lea    -0xa0(%rbp),%rax
 269:	48 8b 8d 90 fe ff ff 	mov    -0x170(%rbp),%rcx
 270:	48 89 ce             	mov    %rcx,%rsi
 273:	48 89 c7             	mov    %rax,%rdi
 276:	e8 00 00 00 00       	call   27b <_ZNSt5dequeIiSaIiEE13_M_insert_auxISt15_Deque_iteratorIiRKiPS4_EEEvS3_IiRiPiET_SB_m+0x27b>
 27b:	48 8b 95 80 fe ff ff 	mov    -0x180(%rbp),%rdx
 282:	48 8d 45 c0          	lea    -0x40(%rbp),%rax
 286:	48 89 d6             	mov    %rdx,%rsi
 289:	48 89 c7             	mov    %rax,%rdi
 28c:	e8 00 00 00 00       	call   291 <_ZNSt5dequeIiSaIiEE13_M_insert_auxISt15_Deque_iteratorIiRKiPS4_EEEvS3_IiRiPiET_SB_m+0x291>
 291:	48 8b 95 88 fe ff ff 	mov    -0x178(%rbp),%rdx
 298:	48 8d 45 a0          	lea    -0x60(%rbp),%rax
 29c:	48 89 d6             	mov    %rdx,%rsi
 29f:	48 89 c7             	mov    %rax,%rdi
 2a2:	e8 00 00 00 00       	call   2a7 <_ZNSt5dequeIiSaIiEE13_M_insert_auxISt15_Deque_iteratorIiRKiPS4_EEEvS3_IiRiPiET_SB_m+0x2a7>
 2a7:	48 8d 45 80          	lea    -0x80(%rbp),%rax
 2ab:	48 8d 8d 60 ff ff ff 	lea    -0xa0(%rbp),%rcx
 2b2:	48 8d 55 c0          	lea    -0x40(%rbp),%rdx
 2b6:	48 8d 75 a0          	lea    -0x60(%rbp),%rsi
 2ba:	48 89 c7             	mov    %rax,%rdi
 2bd:	e8 00 00 00 00       	call   2c2 <_ZNSt5dequeIiSaIiEE13_M_insert_auxISt15_Deque_iteratorIiRKiPS4_EEEvS3_IiRiPiET_SB_m+0x2c2>
 2c2:	e9 0c 06 00 00       	jmp    8d3 <_ZNSt5dequeIiSaIiEE13_M_insert_auxISt15_Deque_iteratorIiRKiPS4_EEEvS3_IiRiPiET_SB_m+0x8d3>
 2c7:	48 8b 95 88 fe ff ff 	mov    -0x178(%rbp),%rdx
 2ce:	48 8d 85 00 ff ff ff 	lea    -0x100(%rbp),%rax
 2d5:	48 89 d6             	mov    %rdx,%rsi
 2d8:	48 89 c7             	mov    %rax,%rdi
 2db:	e8 00 00 00 00       	call   2e0 <_ZNSt5dequeIiSaIiEE13_M_insert_auxISt15_Deque_iteratorIiRKiPS4_EEEvS3_IiRiPiET_SB_m+0x2e0>
 2e0:	48 8b 85 78 fe ff ff 	mov    -0x188(%rbp),%rax
 2e7:	48 2b 85 a8 fe ff ff 	sub    -0x158(%rbp),%rax
 2ee:	48 89 c2             	mov    %rax,%rdx
 2f1:	48 8d 85 00 ff ff ff 	lea    -0x100(%rbp),%rax
 2f8:	48 89 d6             	mov    %rdx,%rsi
 2fb:	48 89 c7             	mov    %rax,%rdi
 2fe:	e8 00 00 00 00       	call   303 <_ZNSt5dequeIiSaIiEE13_M_insert_auxISt15_Deque_iteratorIiRKiPS4_EEEvS3_IiRiPiET_SB_m+0x303>
 303:	48 8b 85 98 fe ff ff 	mov    -0x168(%rbp),%rax
 30a:	48 89 c7             	mov    %rax,%rdi
 30d:	e8 00 00 00 00       	call   312 <_ZNSt5dequeIiSaIiEE13_M_insert_auxISt15_Deque_iteratorIiRKiPS4_EEEvS3_IiRiPiET_SB_m+0x312>
 312:	48 89 c3             	mov    %rax,%rbx
 315:	48 8d 95 c0 fe ff ff 	lea    -0x140(%rbp),%rdx
 31c:	48 8d 45 c0          	lea    -0x40(%rbp),%rax
 320:	48 89 d6             	mov    %rdx,%rsi
 323:	48 89 c7             	mov    %rax,%rdi
 326:	e8 00 00 00 00       	call   32b <_ZNSt5dequeIiSaIiEE13_M_insert_auxISt15_Deque_iteratorIiRKiPS4_EEEvS3_IiRiPiET_SB_m+0x32b>
 32b:	48 8d 95 00 ff ff ff 	lea    -0x100(%rbp),%rdx
 332:	48 8d 45 80          	lea    -0x80(%rbp),%rax
 336:	48 89 d6             	mov    %rdx,%rsi
 339:	48 89 c7             	mov    %rax,%rdi
 33c:	e8 00 00 00 00       	call   341 <_ZNSt5dequeIiSaIiEE13_M_insert_auxISt15_Deque_iteratorIiRKiPS4_EEEvS3_IiRiPiET_SB_m+0x341>
 341:	48 8b 95 88 fe ff ff 	mov    -0x178(%rbp),%rdx
 348:	48 8d 85 60 ff ff ff 	lea    -0xa0(%rbp),%rax
 34f:	48 89 d6             	mov    %rdx,%rsi
 352:	48 89 c7             	mov    %rax,%rdi
 355:	e8 00 00 00 00       	call   35a <_ZNSt5dequeIiSaIiEE13_M_insert_auxISt15_Deque_iteratorIiRKiPS4_EEEvS3_IiRiPiET_SB_m+0x35a>
 35a:	48 8b 95 90 fe ff ff 	mov    -0x170(%rbp),%rdx
 361:	48 8d 85 40 ff ff ff 	lea    -0xc0(%rbp),%rax
 368:	48 89 d6             	mov    %rdx,%rsi
 36b:	48 89 c7             	mov    %rax,%rdi
 36e:	e8 00 00 00 00       	call   373 <_ZNSt5dequeIiSaIiEE13_M_insert_auxISt15_Deque_iteratorIiRKiPS4_EEEvS3_IiRiPiET_SB_m+0x373>
 373:	48 8b 85 98 fe ff ff 	mov    -0x168(%rbp),%rax
 37a:	48 8d 50 10          	lea    0x10(%rax),%rdx
 37e:	48 8d 85 20 ff ff ff 	lea    -0xe0(%rbp),%rax
 385:	48 89 d6             	mov    %rdx,%rsi
 388:	48 89 c7             	mov    %rax,%rdi
 38b:	e8 00 00 00 00       	call   390 <_ZNSt5dequeIiSaIiEE13_M_insert_auxISt15_Deque_iteratorIiRKiPS4_EEEvS3_IiRiPiET_SB_m+0x390>
 390:	48 8d 45 a0          	lea    -0x60(%rbp),%rax
 394:	4c 8d 45 c0          	lea    -0x40(%rbp),%r8
 398:	48 8d 7d 80          	lea    -0x80(%rbp),%rdi
 39c:	48 8d 8d 60 ff ff ff 	lea    -0xa0(%rbp),%rcx
 3a3:	48 8d 95 40 ff ff ff 	lea    -0xc0(%rbp),%rdx
 3aa:	48 8d b5 20 ff ff ff 	lea    -0xe0(%rbp),%rsi
 3b1:	48 83 ec 08          	sub    $0x8,%rsp
 3b5:	53                   	push   %rbx
 3b6:	4d 89 c1             	mov    %r8,%r9
 3b9:	49 89 f8             	mov    %rdi,%r8
 3bc:	48 89 c7             	mov    %rax,%rdi
 3bf:	e8 00 00 00 00       	call   3c4 <_ZNSt5dequeIiSaIiEE13_M_insert_auxISt15_Deque_iteratorIiRKiPS4_EEEvS3_IiRiPiET_SB_m+0x3c4>
 3c4:	48 83 c4 10          	add    $0x10,%rsp
 3c8:	48 8b 8d 98 fe ff ff 	mov    -0x168(%rbp),%rcx
 3cf:	48 8b 85 c0 fe ff ff 	mov    -0x140(%rbp),%rax
 3d6:	48 8b 95 c8 fe ff ff 	mov    -0x138(%rbp),%rdx
 3dd:	48 89 41 10          	mov    %rax,0x10(%rcx)
 3e1:	48 89 51 18          	mov    %rdx,0x18(%rcx)
 3e5:	48 8b 85 d0 fe ff ff 	mov    -0x130(%rbp),%rax
 3ec:	48 8b 95 d8 fe ff ff 	mov    -0x128(%rbp),%rdx
 3f3:	48 89 41 20          	mov    %rax,0x20(%rcx)
 3f7:	48 89 51 28          	mov    %rdx,0x28(%rcx)
 3fb:	48 8d 95 e0 fe ff ff 	lea    -0x120(%rbp),%rdx
 402:	48 8d 45 a0          	lea    -0x60(%rbp),%rax
 406:	48 89 d6             	mov    %rdx,%rsi
 409:	48 89 c7             	mov    %rax,%rdi
 40c:	e8 00 00 00 00       	call   411 <_ZNSt5dequeIiSaIiEE13_M_insert_auxISt15_Deque_iteratorIiRKiPS4_EEEvS3_IiRiPiET_SB_m+0x411>
 411:	48 8b 95 80 fe ff ff 	mov    -0x180(%rbp),%rdx
 418:	48 8d 45 80          	lea    -0x80(%rbp),%rax
 41c:	48 89 d6             	mov    %rdx,%rsi
 41f:	48 89 c7             	mov    %rax,%rdi
 422:	e8 00 00 00 00       	call   427 <_ZNSt5dequeIiSaIiEE13_M_insert_auxISt15_Deque_iteratorIiRKiPS4_EEEvS3_IiRiPiET_SB_m+0x427>
 427:	48 8d 95 00 ff ff ff 	lea    -0x100(%rbp),%rdx
 42e:	48 8d 85 60 ff ff ff 	lea    -0xa0(%rbp),%rax
 435:	48 89 d6             	mov    %rdx,%rsi
 438:	48 89 c7             	mov    %rax,%rdi
 43b:	e8 00 00 00 00       	call   440 <_ZNSt5dequeIiSaIiEE13_M_insert_auxISt15_Deque_iteratorIiRKiPS4_EEEvS3_IiRiPiET_SB_m+0x440>
 440:	48 8d 45 c0          	lea    -0x40(%rbp),%rax
 444:	48 8d 4d a0          	lea    -0x60(%rbp),%rcx
 448:	48 8d 55 80          	lea    -0x80(%rbp),%rdx
 44c:	48 8d b5 60 ff ff ff 	lea    -0xa0(%rbp),%rsi
 453:	48 89 c7             	mov    %rax,%rdi
 456:	e8 00 00 00 00       	call   45b <_ZNSt5dequeIiSaIiEE13_M_insert_auxISt15_Deque_iteratorIiRKiPS4_EEEvS3_IiRiPiET_SB_m+0x45b>
 45b:	e9 73 04 00 00       	jmp    8d3 <_ZNSt5dequeIiSaIiEE13_M_insert_auxISt15_Deque_iteratorIiRKiPS4_EEEvS3_IiRiPiET_SB_m+0x8d3>
 460:	48 8d 85 c0 fe ff ff 	lea    -0x140(%rbp),%rax
 467:	48 8b 95 78 fe ff ff 	mov    -0x188(%rbp),%rdx
 46e:	48 8b 8d 98 fe ff ff 	mov    -0x168(%rbp),%rcx
 475:	48 89 ce             	mov    %rcx,%rsi
 478:	48 89 c7             	mov    %rax,%rdi
 47b:	e8 00 00 00 00       	call   480 <_ZNSt5dequeIiSaIiEE13_M_insert_auxISt15_Deque_iteratorIiRKiPS4_EEEvS3_IiRiPiET_SB_m+0x480>
 480:	48 8b 85 98 fe ff ff 	mov    -0x168(%rbp),%rax
 487:	48 8d 50 30          	lea    0x30(%rax),%rdx
 48b:	48 8d 85 e0 fe ff ff 	lea    -0x120(%rbp),%rax
 492:	48 89 d6             	mov    %rdx,%rsi
 495:	48 89 c7             	mov    %rax,%rdi
 498:	e8 00 00 00 00       	call   49d <_ZNSt5dequeIiSaIiEE13_M_insert_auxISt15_Deque_iteratorIiRKiPS4_EEEvS3_IiRiPiET_SB_m+0x49d>
 49d:	48 8b 85 b0 fe ff ff 	mov    -0x150(%rbp),%rax
 4a4:	48 2b 85 a8 fe ff ff 	sub    -0x158(%rbp),%rax
 4ab:	48 89 85 b8 fe ff ff 	mov    %rax,-0x148(%rbp)
 4b2:	48 8b 85 98 fe ff ff 	mov    -0x168(%rbp),%rax
 4b9:	48 8d 48 30          	lea    0x30(%rax),%rcx
 4bd:	48 8d 45 c0          	lea    -0x40(%rbp),%rax
 4c1:	48 8b 95 b8 fe ff ff 	mov    -0x148(%rbp),%rdx
 4c8:	48 89 ce             	mov    %rcx,%rsi
 4cb:	48 89 c7             	mov    %rax,%rdi
 4ce:	e8 00 00 00 00       	call   4d3 <_ZNSt5dequeIiSaIiEE13_M_insert_auxISt15_Deque_iteratorIiRKiPS4_EEEvS3_IiRiPiET_SB_m+0x4d3>
 4d3:	48 8b 8d 90 fe ff ff 	mov    -0x170(%rbp),%rcx
 4da:	48 8b 45 c0          	mov    -0x40(%rbp),%rax
 4de:	48 8b 55 c8          	mov    -0x38(%rbp),%rdx
 4e2:	48 89 01             	mov    %rax,(%rcx)
 4e5:	48 89 51 08          	mov    %rdx,0x8(%rcx)
 4e9:	48 8b 45 d0          	mov    -0x30(%rbp),%rax
 4ed:	48 8b 55 d8          	mov    -0x28(%rbp),%rdx
 4f1:	48 89 41 10          	mov    %rax,0x10(%rcx)
 4f5:	48 89 51 18          	mov    %rdx,0x18(%rcx)
 4f9:	48 8b 85 78 fe ff ff 	mov    -0x188(%rbp),%rax
 500:	48 39 85 b8 fe ff ff 	cmp    %rax,-0x148(%rbp)
 507:	0f 8e 93 01 00 00    	jle    6a0 <_ZNSt5dequeIiSaIiEE13_M_insert_auxISt15_Deque_iteratorIiRKiPS4_EEEvS3_IiRiPiET_SB_m+0x6a0>
 50d:	48 8b 95 78 fe ff ff 	mov    -0x188(%rbp),%rdx
 514:	48 8b 85 98 fe ff ff 	mov    -0x168(%rbp),%rax
 51b:	48 8d 48 30          	lea    0x30(%rax),%rcx
 51f:	48 8d 85 20 ff ff ff 	lea    -0xe0(%rbp),%rax
 526:	48 89 ce             	mov    %rcx,%rsi
 529:	48 89 c7             	mov    %rax,%rdi
 52c:	e8 00 00 00 00       	call   531 <_ZNSt5dequeIiSaIiEE13_M_insert_auxISt15_Deque_iteratorIiRKiPS4_EEEvS3_IiRiPiET_SB_m+0x531>
 531:	48 8b 85 98 fe ff ff 	mov    -0x168(%rbp),%rax
 538:	48 89 c7             	mov    %rax,%rdi
 53b:	e8 00 00 00 00       	call   540 <_ZNSt5dequeIiSaIiEE13_M_insert_auxISt15_Deque_iteratorIiRKiPS4_EEEvS3_IiRiPiET_SB_m+0x540>
 540:	48 89 c3             	mov    %rax,%rbx
 543:	48 8b 85 98 fe ff ff 	mov    -0x168(%rbp),%rax
 54a:	48 8d 50 30          	lea    0x30(%rax),%rdx
 54e:	48 8d 45 c0          	lea    -0x40(%rbp),%rax
 552:	48 89 d6             	mov    %rdx,%rsi
 555:	48 89 c7             	mov    %rax,%rdi
 558:	e8 00 00 00 00       	call   55d <_ZNSt5dequeIiSaIiEE13_M_insert_auxISt15_Deque_iteratorIiRKiPS4_EEEvS3_IiRiPiET_SB_m+0x55d>
 55d:	48 8b 85 98 fe ff ff 	mov    -0x168(%rbp),%rax
 564:	48 8d 50 30          	lea    0x30(%rax),%rdx
 568:	48 8d 45 a0          	lea    -0x60(%rbp),%rax
 56c:	48 89 d6             	mov    %rdx,%rsi
 56f:	48 89 c7             	mov    %rax,%rdi
 572:	e8 00 00 00 00       	call   577 <_ZNSt5dequeIiSaIiEE13_M_insert_auxISt15_Deque_iteratorIiRKiPS4_EEEvS3_IiRiPiET_SB_m+0x577>
 577:	48 8d 95 20 ff ff ff 	lea    -0xe0(%rbp),%rdx
 57e:	48 8d 45 80          	lea    -0x80(%rbp),%rax
 582:	48 89 d6             	mov    %rdx,%rsi
 585:	48 89 c7             	mov    %rax,%rdi
 588:	e8 00 00 00 00       	call   58d <_ZNSt5dequeIiSaIiEE13_M_insert_auxISt15_Deque_iteratorIiRKiPS4_EEEvS3_IiRiPiET_SB_m+0x58d>
 58d:	48 8d 85 40 ff ff ff 	lea    -0xc0(%rbp),%rax
 594:	48 8d 4d c0          	lea    -0x40(%rbp),%rcx
 598:	48 8d 55 a0          	lea    -0x60(%rbp),%rdx
 59c:	48 8d 75 80          	lea    -0x80(%rbp),%rsi
 5a0:	49 89 d8             	mov    %rbx,%r8
 5a3:	48 89 c7             	mov    %rax,%rdi
 5a6:	e8 00 00 00 00       	call   5ab <_ZNSt5dequeIiSaIiEE13_M_insert_auxISt15_Deque_iteratorIiRKiPS4_EEEvS3_IiRiPiET_SB_m+0x5ab>
 5ab:	48 8b 8d 98 fe ff ff 	mov    -0x168(%rbp),%rcx
 5b2:	48 8b 85 c0 fe ff ff 	mov    -0x140(%rbp),%rax
 5b9:	48 8b 95 c8 fe ff ff 	mov    -0x138(%rbp),%rdx
 5c0:	48 89 41 30          	mov    %rax,0x30(%rcx)
 5c4:	48 89 51 38          	mov    %rdx,0x38(%rcx)
 5c8:	48 8b 85 d0 fe ff ff 	mov    -0x130(%rbp),%rax
 5cf:	48 8b 95 d8 fe ff ff 	mov    -0x128(%rbp),%rdx
 5d6:	48 89 41 40          	mov    %rax,0x40(%rcx)
 5da:	48 89 51 48          	mov    %rdx,0x48(%rcx)
 5de:	48 8d 95 e0 fe ff ff 	lea    -0x120(%rbp),%rdx
 5e5:	48 8d 45 c0          	lea    -0x40(%rbp),%rax
 5e9:	48 89 d6             	mov    %rdx,%rsi
 5ec:	48 89 c7             	mov    %rax,%rdi
 5ef:	e8 00 00 00 00       	call   5f4 <_ZNSt5dequeIiSaIiEE13_M_insert_auxISt15_Deque_iteratorIiRKiPS4_EEEvS3_IiRiPiET_SB_m+0x5f4>
 5f4:	48 8d 95 20 ff ff ff 	lea    -0xe0(%rbp),%rdx
 5fb:	48 8d 45 a0          	lea    -0x60(%rbp),%rax
 5ff:	48 89 d6             	mov    %rdx,%rsi
 602:	48 89 c7             	mov    %rax,%rdi
 605:	e8 00 00 00 00       	call   60a <_ZNSt5dequeIiSaIiEE13_M_insert_auxISt15_Deque_iteratorIiRKiPS4_EEEvS3_IiRiPiET_SB_m+0x60a>
 60a:	48 8b 95 90 fe ff ff 	mov    -0x170(%rbp),%rdx
 611:	48 8d 45 80          	lea    -0x80(%rbp),%rax
 615:	48 89 d6             	mov    %rdx,%rsi
 618:	48 89 c7             	mov    %rax,%rdi
 61b:	e8 00 00 00 00       	call   620 <_ZNSt5dequeIiSaIiEE13_M_insert_auxISt15_Deque_iteratorIiRKiPS4_EEEvS3_IiRiPiET_SB_m+0x620>
 620:	48 8d 85 60 ff ff ff 	lea    -0xa0(%rbp),%rax
 627:	48 8d 4d c0          	lea    -0x40(%rbp),%rcx
 62b:	48 8d 55 a0          	lea    -0x60(%rbp),%rdx
 62f:	48 8d 75 80          	lea    -0x80(%rbp),%rsi
 633:	48 89 c7             	mov    %rax,%rdi
 636:	e8 00 00 00 00       	call   63b <_ZNSt5dequeIiSaIiEE13_M_insert_auxISt15_Deque_iteratorIiRKiPS4_EEEvS3_IiRiPiET_SB_m+0x63b>
 63b:	48 8b 95 90 fe ff ff 	mov    -0x170(%rbp),%rdx
 642:	48 8d 45 c0          	lea    -0x40(%rbp),%rax
 646:	48 89 d6             	mov    %rdx,%rsi
 649:	48 89 c7             	mov    %rax,%rdi
 64c:	e8 00 00 00 00       	call   651 <_ZNSt5dequeIiSaIiEE13_M_insert_auxISt15_Deque_iteratorIiRKiPS4_EEEvS3_IiRiPiET_SB_m+0x651>
 651:	48 8b 95 80 fe ff ff 	mov    -0x180(%rbp),%rdx
 658:	48 8d 45 a0          	lea    -0x60(%rbp),%rax
 65c:	48 89 d6             	mov    %rdx,%rsi
 65f:	48 89 c7             	mov    %rax,%rdi
 662:	e8 00 00 00 00       	call   667 <_ZNSt5dequeIiSaIiEE13_M_insert_auxISt15_Deque_iteratorIiRKiPS4_EEEvS3_IiRiPiET_SB_m+0x667>
 667:	48 8b 95 88 fe ff ff 	mov    -0x178(%rbp),%rdx
 66e:	48 8d 85 60 ff ff ff 	lea    -0xa0(%rbp),%rax
 675:	48 89 d6             	mov    %rdx,%rsi
 678:	48 89 c7             	mov    %rax,%rdi
 67b:	e8 00 00 00 00       	call   680 <_ZNSt5dequeIiSaIiEE13_M_insert_auxISt15_Deque_iteratorIiRKiPS4_EEEvS3_IiRiPiET_SB_m+0x680>
 680:	48 8d 45 80          	lea    -0x80(%rbp),%rax
 684:	48 8d 4d c0          	lea    -0x40(%rbp),%rcx
 688:	48 8d 55 a0          	lea    -0x60(%rbp),%rdx
 68c:	48 8d b5 60 ff ff ff 	lea    -0xa0(%rbp),%rsi
 693:	48 89 c7             	mov    %rax,%rdi
 696:	e8 00 00 00 00       	call   69b <_ZNSt5dequeIiSaIiEE13_M_insert_auxISt15_Deque_iteratorIiRKiPS4_EEEvS3_IiRiPiET_SB_m+0x69b>
 69b:	e9 33 02 00 00       	jmp    8d3 <_ZNSt5dequeIiSaIiEE13_M_insert_auxISt15_Deque_iteratorIiRKiPS4_EEEvS3_IiRiPiET_SB_m+0x8d3>
 6a0:	48 8b 95 88 fe ff ff 	mov    -0x178(%rbp),%rdx
 6a7:	48 8d 85 00 ff ff ff 	lea    -0x100(%rbp),%rax
 6ae:	48 89 d6             	mov    %rdx,%rsi
 6b1:	48 89 c7             	mov    %rax,%rdi
 6b4:	e8 00 00 00 00       	call   6b9 <_ZNSt5dequeIiSaIiEE13_M_insert_auxISt15_Deque_iteratorIiRKiPS4_EEEvS3_IiRiPiET_SB_m+0x6b9>
 6b9:	48 8b 95 b8 fe ff ff 	mov    -0x148(%rbp),%rdx
 6c0:	48 8d 85 00 ff ff ff 	lea    -0x100(%rbp),%rax
 6c7:	48 89 d6             	mov    %rdx,%rsi
 6ca:	48 89 c7             	mov    %rax,%rdi
 6cd:	e8 00 00 00 00       	call   6d2 <_ZNSt5dequeIiSaIiEE13_M_insert_auxISt15_Deque_iteratorIiRKiPS4_EEEvS3_IiRiPiET_SB_m+0x6d2>
 6d2:	48 8b 85 98 fe ff ff 	mov    -0x168(%rbp),%rax
 6d9:	48 89 c7             	mov    %rax,%rdi
 6dc:	e8 00 00 00 00       	call   6e1 <_ZNSt5dequeIiSaIiEE13_M_insert_auxISt15_Deque_iteratorIiRKiPS4_EEEvS3_IiRiPiET_SB_m+0x6e1>
 6e1:	48 89 c3             	mov    %rax,%rbx
 6e4:	48 8b 85 98 fe ff ff 	mov    -0x168(%rbp),%rax
 6eb:	48 8d 50 30          	lea    0x30(%rax),%rdx
 6ef:	48 8d 45 c0          	lea    -0x40(%rbp),%rax
 6f3:	48 89 d6             	mov    %rdx,%rsi
 6f6:	48 89 c7             	mov    %rax,%rdi
 6f9:	e8 00 00 00 00       	call   6fe <_ZNSt5dequeIiSaIiEE13_M_insert_auxISt15_Deque_iteratorIiRKiPS4_EEEvS3_IiRiPiET_SB_m+0x6fe>
 6fe:	48 8b 85 98 fe ff ff 	mov    -0x168(%rbp),%rax
 705:	48 8d 50 30          	lea    0x30(%rax),%rdx
 709:	48 8d 45 80          	lea    -0x80(%rbp),%rax
 70d:	48 89 d6             	mov    %rdx,%rsi
 710:	48 89 c7             	mov    %rax,%rdi
 713:	e8 00 00 00 00       	call   718 <_ZNSt5dequeIiSaIiEE13_M_insert_auxISt15_Deque_iteratorIiRKiPS4_EEEvS3_IiRiPiET_SB_m+0x718>
 718:	48 8b 95 90 fe ff ff 	mov    -0x170(%rbp),%rdx
 71f:	48 8d 85 60 ff ff ff 	lea    -0xa0(%rbp),%rax
 726:	48 89 d6             	mov    %rdx,%rsi
 729:	48 89 c7             	mov    %rax,%rdi
 72c:	e8 00 00 00 00       	call   731 <_ZNSt5dequeIiSaIiEE13_M_insert_auxISt15_Deque_iteratorIiRKiPS4_EEEvS3_IiRiPiET_SB_m+0x731>
 731:	48 8b 95 80 fe ff ff 	mov    -0x180(%rbp),%rdx
 738:	48 8d 85 40 ff ff ff 	lea    -0xc0(%rbp),%rax
 73f:	48 89 d6             	mov    %rdx,%rsi
 742:	48 89 c7             	mov    %rax,%rdi
 745:	e8 00 00 00 00       	call   74a <_ZNSt5dequeIiSaIiEE13_M_insert_auxISt15_Deque_iteratorIiRKiPS4_EEEvS3_IiRiPiET_SB_m+0x74a>
 74a:	48 8d 95 00 ff ff ff 	lea    -0x100(%rbp),%rdx
 751:	48 8d 85 20 ff ff ff 	lea    -0xe0(%rbp),%rax
 758:	48 89 d6             	mov    %rdx,%rsi
 75b:	48 89 c7             	mov    %rax,%rdi
 75e:	e8 00 00 00 00       	call   763 <_ZNSt5dequeIiSaIiEE13_M_insert_auxISt15_Deque_iteratorIiRKiPS4_EEEvS3_IiRiPiET_SB_m+0x763>
 763:	48 8d 45 a0          	lea    -0x60(%rbp),%rax
 767:	4c 8d 45 c0          	lea    -0x40(%rbp),%r8
 76b:	48 8d 7d 80          	lea    -0x80(%rbp),%rdi
 76f:	48 8d 8d 60 ff ff ff 	lea    -0xa0(%rbp),%rcx
 776:	48 8d 95 40 ff ff ff 	lea    -0xc0(%rbp),%rdx
 77d:	48 8d b5 20 ff ff ff 	lea    -0xe0(%rbp),%rsi
 784:	48 83 ec 08          	sub    $0x8,%rsp
 788:	53                   	push   %rbx
 789:	4d 89 c1             	mov    %r8,%r9
 78c:	49 89 f8             	mov    %rdi,%r8
 78f:	48 89 c7             	mov    %rax,%rdi
 792:	e8 00 00 00 00       	call   797 <_ZNSt5dequeIiSaIiEE13_M_insert_auxISt15_Deque_iteratorIiRKiPS4_EEEvS3_IiRiPiET_SB_m+0x797>
 797:	48 83 c4 10          	add    $0x10,%rsp
 79b:	48 8b 8d 98 fe ff ff 	mov    -0x168(%rbp),%rcx
 7a2:	48 8b 85 c0 fe ff ff 	mov    -0x140(%rbp),%rax
 7a9:	48 8b 95 c8 fe ff ff 	mov    -0x138(%rbp),%rdx
 7b0:	48 89 41 30          	mov    %rax,0x30(%rcx)
 7b4:	48 89 51 38          	mov    %rdx,0x38(%rcx)
 7b8:	48 8b 85 d0 fe ff ff 	mov    -0x130(%rbp),%rax
 7bf:	48 8b 95 d8 fe ff ff 	mov    -0x128(%rbp),%rdx
 7c6:	48 89 41 40          	mov    %rax,0x40(%rcx)
 7ca:	48 89 51 48          	mov    %rdx,0x48(%rcx)
 7ce:	48 8b 95 90 fe ff ff 	mov    -0x170(%rbp),%rdx
 7d5:	48 8d 45 a0          	lea    -0x60(%rbp),%rax
 7d9:	48 89 d6             	mov    %rdx,%rsi
 7dc:	48 89 c7             	mov    %rax,%rdi
 7df:	e8 00 00 00 00       	call   7e4 <_ZNSt5dequeIiSaIiEE13_M_insert_auxISt15_Deque_iteratorIiRKiPS4_EEEvS3_IiRiPiET_SB_m+0x7e4>
 7e4:	48 8d 95 00 ff ff ff 	lea    -0x100(%rbp),%rdx
 7eb:	48 8d 45 80          	lea    -0x80(%rbp),%rax
 7ef:	48 89 d6             	mov    %rdx,%rsi
 7f2:	48 89 c7             	mov    %rax,%rdi
 7f5:	e8 00 00 00 00       	call   7fa <_ZNSt5dequeIiSaIiEE13_M_insert_auxISt15_Deque_iteratorIiRKiPS4_EEEvS3_IiRiPiET_SB_m+0x7fa>
 7fa:	48 8b 95 88 fe ff ff 	mov    -0x178(%rbp),%rdx
 801:	48 8d 85 60 ff ff ff 	lea    -0xa0(%rbp),%rax
 808:	48 89 d6             	mov    %rdx,%rsi
 80b:	48 89 c7             	mov    %rax,%rdi
 80e:	e8 00 00 00 00       	call   813 <_ZNSt5dequeIiSaIiEE13_M_insert_auxISt15_Deque_iteratorIiRKiPS4_EEEvS3_IiRiPiET_SB_m+0x813>
 813:	48 8d 45 c0          	lea    -0x40(%rbp),%rax
 817:	48 8d 4d a0          	lea    -0x60(%rbp),%rcx
 81b:	48 8d 55 80          	lea    -0x80(%rbp),%rdx
 81f:	48 8d b5 60 ff ff ff 	lea    -0xa0(%rbp),%rsi
 826:	48 89 c7             	mov    %rax,%rdi
 829:	e8 00 00 00 00       	call   82e <_ZNSt5dequeIiSaIiEE13_M_insert_auxISt15_Deque_iteratorIiRKiPS4_EEEvS3_IiRiPiET_SB_m+0x82e>
 82e:	e9 a0 00 00 00       	jmp    8d3 <_ZNSt5dequeIiSaIiEE13_M_insert_auxISt15_Deque_iteratorIiRKiPS4_EEEvS3_IiRiPiET_SB_m+0x8d3>
 833:	f3 0f 1e fa          	endbr64 
 837:	48 89 c7             	mov    %rax,%rdi
 83a:	e8 00 00 00 00       	call   83f <_ZNSt5dequeIiSaIiEE13_M_insert_auxISt15_Deque_iteratorIiRKiPS4_EEEvS3_IiRiPiET_SB_m+0x83f>
 83f:	48 8b 85 98 fe ff ff 	mov    -0x168(%rbp),%rax
 846:	48 8b 95 98 fe ff ff 	mov    -0x168(%rbp),%rdx
 84d:	48 8b 52 28          	mov    0x28(%rdx),%rdx
 851:	48 8b 8d d8 fe ff ff 	mov    -0x128(%rbp),%rcx
 858:	48 89 ce             	mov    %rcx,%rsi
 85b:	48 89 c7             	mov    %rax,%rdi
 85e:	e8 00 00 00 00       	call   863 <_ZNSt5dequeIiSaIiEE13_M_insert_auxISt15_Deque_iteratorIiRKiPS4_EEEvS3_IiRiPiET_SB_m+0x863>
 863:	e8 00 00 00 00       	call   868 <_ZNSt5dequeIiSaIiEE13_M_insert_auxISt15_Deque_iteratorIiRKiPS4_EEEvS3_IiRiPiET_SB_m+0x868>
 868:	f3 0f 1e fa          	endbr64 
 86c:	48 89 c3             	mov    %rax,%rbx
 86f:	e8 00 00 00 00       	call   874 <_ZNSt5dequeIiSaIiEE13_M_insert_auxISt15_Deque_iteratorIiRKiPS4_EEEvS3_IiRiPiET_SB_m+0x874>
 874:	48 89 d8             	mov    %rbx,%rax
 877:	48 89 c7             	mov    %rax,%rdi
 87a:	e8 00 00 00 00       	call   87f <_ZNSt5dequeIiSaIiEE13_M_insert_auxISt15_Deque_iteratorIiRKiPS4_EEEvS3_IiRiPiET_SB_m+0x87f>
 87f:	f3 0f 1e fa          	endbr64 
 883:	48 89 c7             	mov    %rax,%rdi
 886:	e8 00 00 00 00       	call   88b <_ZNSt5dequeIiSaIiEE13_M_insert_auxISt15_Deque_iteratorIiRKiPS4_EEEvS3_IiRiPiET_SB_m+0x88b>
 88b:	48 8b 85 98 fe ff ff 	mov    -0x168(%rbp),%rax
 892:	48 8b 95 d8 fe ff ff 	mov    -0x128(%rbp),%rdx
 899:	48 83 c2 08          	add    $0x8,%rdx
 89d:	48 8b 8d 98 fe ff ff 	mov    -0x168(%rbp),%rcx
 8a4:	48 8b 49 48          	mov    0x48(%rcx),%rcx
 8a8:	48 83 c1 08          	add    $0x8,%rcx
 8ac:	48 89 ce             	mov    %rcx,%rsi
 8af:	48 89 c7             	mov    %rax,%rdi
 8b2:	e8 00 00 00 00       	call   8b7 <_ZNSt5dequeIiSaIiEE13_M_insert_auxISt15_Deque_iteratorIiRKiPS4_EEEvS3_IiRiPiET_SB_m+0x8b7>
 8b7:	e8 00 00 00 00       	call   8bc <_ZNSt5dequeIiSaIiEE13_M_insert_auxISt15_Deque_iteratorIiRKiPS4_EEEvS3_IiRiPiET_SB_m+0x8bc>
 8bc:	f3 0f 1e fa          	endbr64 
 8c0:	48 89 c3             	mov    %rax,%rbx
 8c3:	e8 00 00 00 00       	call   8c8 <_ZNSt5dequeIiSaIiEE13_M_insert_auxISt15_Deque_iteratorIiRKiPS4_EEEvS3_IiRiPiET_SB_m+0x8c8>
 8c8:	48 89 d8             	mov    %rbx,%rax
 8cb:	48 89 c7             	mov    %rax,%rdi
 8ce:	e8 00 00 00 00       	call   8d3 <_ZNSt5dequeIiSaIiEE13_M_insert_auxISt15_Deque_iteratorIiRKiPS4_EEEvS3_IiRiPiET_SB_m+0x8d3>
 8d3:	48 8b 45 e8          	mov    -0x18(%rbp),%rax
 8d7:	64 48 2b 04 25 28 00 	sub    %fs:0x28,%rax
 8de:	00 00 
 8e0:	74 05                	je     8e7 <_ZNSt5dequeIiSaIiEE13_M_insert_auxISt15_Deque_iteratorIiRKiPS4_EEEvS3_IiRiPiET_SB_m+0x8e7>
 8e2:	e8 00 00 00 00       	call   8e7 <_ZNSt5dequeIiSaIiEE13_M_insert_auxISt15_Deque_iteratorIiRKiPS4_EEEvS3_IiRiPiET_SB_m+0x8e7>
 8e7:	48 8b 5d f8          	mov    -0x8(%rbp),%rbx
 8eb:	c9                   	leave  
 8ec:	c3                   	ret    

Disassembly of section .text._ZNSaIiEC2Ev:

0000000000000000 <_ZNSaIiEC1Ev>:
   0:	f3 0f 1e fa          	endbr64 
   4:	55                   	push   %rbp
   5:	48 89 e5             	mov    %rsp,%rbp
   8:	48 83 ec 10          	sub    $0x10,%rsp
   c:	48 89 7d f8          	mov    %rdi,-0x8(%rbp)
  10:	48 8b 45 f8          	mov    -0x8(%rbp),%rax
  14:	48 89 c7             	mov    %rax,%rdi
  17:	e8 00 00 00 00       	call   1c <_ZNSaIiEC1Ev+0x1c>
  1c:	90                   	nop
  1d:	c9                   	leave  
  1e:	c3                   	ret    

Disassembly of section .text._ZNSt11_Deque_baseIiSaIiEE16_Deque_impl_dataC2Ev:

0000000000000000 <_ZNSt11_Deque_baseIiSaIiEE16_Deque_impl_dataC1Ev>:
   0:	f3 0f 1e fa          	endbr64 
   4:	55                   	push   %rbp
   5:	48 89 e5             	mov    %rsp,%rbp
   8:	48 83 ec 10          	sub    $0x10,%rsp
   c:	48 89 7d f8          	mov    %rdi,-0x8(%rbp)
  10:	48 8b 45 f8          	mov    -0x8(%rbp),%rax
  14:	48 c7 00 00 00 00 00 	movq   $0x0,(%rax)
  1b:	48 8b 45 f8          	mov    -0x8(%rbp),%rax
  1f:	48 c7 40 08 00 00 00 	movq   $0x0,0x8(%rax)
  26:	00 
  27:	48 8b 45 f8          	mov    -0x8(%rbp),%rax
  2b:	48 83 c0 10          	add    $0x10,%rax
  2f:	48 89 c7             	mov    %rax,%rdi
  32:	e8 00 00 00 00       	call   37 <_ZNSt11_Deque_baseIiSaIiEE16_Deque_impl_dataC1Ev+0x37>
  37:	48 8b 45 f8          	mov    -0x8(%rbp),%rax
  3b:	48 83 c0 30          	add    $0x30,%rax
  3f:	48 89 c7             	mov    %rax,%rdi
  42:	e8 00 00 00 00       	call   47 <_ZNSt11_Deque_baseIiSaIiEE16_Deque_impl_dataC1Ev+0x47>
  47:	90                   	nop
  48:	c9                   	leave  
  49:	c3                   	ret    

Disassembly of section .text._ZSt3maxImERKT_S2_S2_:

0000000000000000 <_ZSt3maxImERKT_S2_S2_>:
   0:	f3 0f 1e fa          	endbr64 
   4:	55                   	push   %rbp
   5:	48 89 e5             	mov    %rsp,%rbp
   8:	48 89 7d f8          	mov    %rdi,-0x8(%rbp)
   c:	48 89 75 f0          	mov    %rsi,-0x10(%rbp)
  10:	48 8b 45 f8          	mov    -0x8(%rbp),%rax
  14:	48 8b 10             	mov    (%rax),%rdx
  17:	48 8b 45 f0          	mov    -0x10(%rbp),%rax
  1b:	48 8b 00             	mov    (%rax),%rax
  1e:	48 39 c2             	cmp    %rax,%rdx
  21:	73 06                	jae    29 <_ZSt3maxImERKT_S2_S2_+0x29>
  23:	48 8b 45 f0          	mov    -0x10(%rbp),%rax
  27:	eb 04                	jmp    2d <_ZSt3maxImERKT_S2_S2_+0x2d>
  29:	48 8b 45 f8          	mov    -0x8(%rbp),%rax
  2d:	5d                   	pop    %rbp
  2e:	c3                   	ret    

Disassembly of section .text._ZNSt11_Deque_baseIiSaIiEE15_M_allocate_mapEm:

0000000000000000 <_ZNSt11_Deque_baseIiSaIiEE15_M_allocate_mapEm>:
   0:	f3 0f 1e fa          	endbr64 
   4:	55                   	push   %rbp
   5:	48 89 e5             	mov    %rsp,%rbp
   8:	53                   	push   %rbx
   9:	48 83 ec 28          	sub    $0x28,%rsp
   d:	48 89 7d d8          	mov    %rdi,-0x28(%rbp)
  11:	48 89 75 d0          	mov    %rsi,-0x30(%rbp)
  15:	64 48 8b 04 25 28 00 	mov    %fs:0x28,%rax
  1c:	00 00 
  1e:	48 89 45 e8          	mov    %rax,-0x18(%rbp)
  22:	31 c0                	xor    %eax,%eax
  24:	48 8d 45 e7          	lea    -0x19(%rbp),%rax
  28:	48 8b 55 d8          	mov    -0x28(%rbp),%rdx
  2c:	48 89 d6             	mov    %rdx,%rsi
  2f:	48 89 c7             	mov    %rax,%rdi
  32:	e8 00 00 00 00       	call   37 <_ZNSt11_Deque_baseIiSaIiEE15_M_allocate_mapEm+0x37>
  37:	48 8b 55 d0          	mov    -0x30(%rbp),%rdx
  3b:	48 8d 45 e7          	lea    -0x19(%rbp),%rax
  3f:	48 89 d6             	mov    %rdx,%rsi
  42:	48 89 c7             	mov    %rax,%rdi
  45:	e8 00 00 00 00       	call   4a <_ZNSt11_Deque_baseIiSaIiEE15_M_allocate_mapEm+0x4a>
  4a:	48 89 c3             	mov    %rax,%rbx
  4d:	90                   	nop
  4e:	48 8d 45 e7          	lea    -0x19(%rbp),%rax
  52:	48 89 c7             	mov    %rax,%rdi
  55:	e8 00 00 00 00       	call   5a <_ZNSt11_Deque_baseIiSaIiEE15_M_allocate_mapEm+0x5a>
  5a:	48 89 d8             	mov    %rbx,%rax
  5d:	48 8b 55 e8          	mov    -0x18(%rbp),%rdx
  61:	64 48 2b 14 25 28 00 	sub    %fs:0x28,%rdx
  68:	00 00 
  6a:	74 25                	je     91 <_ZNSt11_Deque_baseIiSaIiEE15_M_allocate_mapEm+0x91>
  6c:	eb 1e                	jmp    8c <_ZNSt11_Deque_baseIiSaIiEE15_M_allocate_mapEm+0x8c>
  6e:	f3 0f 1e fa          	endbr64 
  72:	48 89 c3             	mov    %rax,%rbx
  75:	48 8d 45 e7          	lea    -0x19(%rbp),%rax
  79:	48 89 c7             	mov    %rax,%rdi
  7c:	e8 00 00 00 00       	call   81 <_ZNSt11_Deque_baseIiSaIiEE15_M_allocate_mapEm+0x81>
  81:	48 89 d8             	mov    %rbx,%rax
  84:	48 89 c7             	mov    %rax,%rdi
  87:	e8 00 00 00 00       	call   8c <_ZNSt11_Deque_baseIiSaIiEE15_M_allocate_mapEm+0x8c>
  8c:	e8 00 00 00 00       	call   91 <_ZNSt11_Deque_baseIiSaIiEE15_M_allocate_mapEm+0x91>
  91:	48 8b 5d f8          	mov    -0x8(%rbp),%rbx
  95:	c9                   	leave  
  96:	c3                   	ret    

Disassembly of section .text._ZNSt11_Deque_baseIiSaIiEE15_M_create_nodesEPPiS3_:

0000000000000000 <_ZNSt11_Deque_baseIiSaIiEE15_M_create_nodesEPPiS3_>:
   0:	f3 0f 1e fa          	endbr64 
   4:	55                   	push   %rbp
   5:	48 89 e5             	mov    %rsp,%rbp
   8:	53                   	push   %rbx
   9:	48 83 ec 38          	sub    $0x38,%rsp
   d:	48 89 7d d8          	mov    %rdi,-0x28(%rbp)
  11:	48 89 75 d0          	mov    %rsi,-0x30(%rbp)
  15:	48 89 55 c8          	mov    %rdx,-0x38(%rbp)
  19:	48 8b 45 d0          	mov    -0x30(%rbp),%rax
  1d:	48 89 45 e8          	mov    %rax,-0x18(%rbp)
  21:	eb 18                	jmp    3b <_ZNSt11_Deque_baseIiSaIiEE15_M_create_nodesEPPiS3_+0x3b>
  23:	48 8b 45 d8          	mov    -0x28(%rbp),%rax
  27:	48 89 c7             	mov    %rax,%rdi
  2a:	e8 00 00 00 00       	call   2f <_ZNSt11_Deque_baseIiSaIiEE15_M_create_nodesEPPiS3_+0x2f>
  2f:	48 8b 55 e8          	mov    -0x18(%rbp),%rdx
  33:	48 89 02             	mov    %rax,(%rdx)
  36:	48 83 45 e8 08       	addq   $0x8,-0x18(%rbp)
  3b:	48 8b 45 e8          	mov    -0x18(%rbp),%rax
  3f:	48 3b 45 c8          	cmp    -0x38(%rbp),%rax
  43:	72 de                	jb     23 <_ZNSt11_Deque_baseIiSaIiEE15_M_create_nodesEPPiS3_+0x23>
  45:	eb 3f                	jmp    86 <_ZNSt11_Deque_baseIiSaIiEE15_M_create_nodesEPPiS3_+0x86>
  47:	f3 0f 1e fa          	endbr64 
  4b:	48 89 c7             	mov    %rax,%rdi
  4e:	e8 00 00 00 00       	call   53 <_ZNSt11_Deque_baseIiSaIiEE15_M_create_nodesEPPiS3_+0x53>
  53:	48 8b 55 e8          	mov    -0x18(%rbp),%rdx
  57:	48 8b 4d d0          	mov    -0x30(%rbp),%rcx
  5b:	48 8b 45 d8          	mov    -0x28(%rbp),%rax
  5f:	48 89 ce             	mov    %rcx,%rsi
  62:	48 89 c7             	mov    %rax,%rdi
  65:	e8 00 00 00 00       	call   6a <_ZNSt11_Deque_baseIiSaIiEE15_M_create_nodesEPPiS3_+0x6a>
  6a:	e8 00 00 00 00       	call   6f <_ZNSt11_Deque_baseIiSaIiEE15_M_create_nodesEPPiS3_+0x6f>
  6f:	f3 0f 1e fa          	endbr64 
  73:	48 89 c3             	mov    %rax,%rbx
  76:	e8 00 00 00 00       	call   7b <_ZNSt11_Deque_baseIiSaIiEE15_M_create_nodesEPPiS3_+0x7b>
  7b:	48 89 d8             	mov    %rbx,%rax
  7e:	48 89 c7             	mov    %rax,%rdi
  81:	e8 00 00 00 00       	call   86 <_ZNSt11_Deque_baseIiSaIiEE15_M_create_nodesEPPiS3_+0x86>
  86:	48 8b 5d f8          	mov    -0x8(%rbp),%rbx
  8a:	c9                   	leave  
  8b:	c3                   	ret    

Disassembly of section .text._ZNSt15_Deque_iteratorIiRiPiE11_M_set_nodeEPS1_:

0000000000000000 <_ZNSt15_Deque_iteratorIiRiPiE11_M_set_nodeEPS1_>:
   0:	f3 0f 1e fa          	endbr64 
   4:	55                   	push   %rbp
   5:	48 89 e5             	mov    %rsp,%rbp
   8:	53                   	push   %rbx
   9:	48 83 ec 18          	sub    $0x18,%rsp
   d:	48 89 7d e8          	mov    %rdi,-0x18(%rbp)
  11:	48 89 75 e0          	mov    %rsi,-0x20(%rbp)
  15:	48 8b 45 e8          	mov    -0x18(%rbp),%rax
  19:	48 8b 55 e0          	mov    -0x20(%rbp),%rdx
  1d:	48 89 50 18          	mov    %rdx,0x18(%rax)
  21:	48 8b 45 e0          	mov    -0x20(%rbp),%rax
  25:	48 8b 10             	mov    (%rax),%rdx
  28:	48 8b 45 e8          	mov    -0x18(%rbp),%rax
  2c:	48 89 50 08          	mov    %rdx,0x8(%rax)
  30:	48 8b 45 e8          	mov    -0x18(%rbp),%rax
  34:	48 8b 58 08          	mov    0x8(%rax),%rbx
  38:	e8 00 00 00 00       	call   3d <_ZNSt15_Deque_iteratorIiRiPiE11_M_set_nodeEPS1_+0x3d>
  3d:	48 c1 e0 02          	shl    $0x2,%rax
  41:	48 8d 14 03          	lea    (%rbx,%rax,1),%rdx
  45:	48 8b 45 e8          	mov    -0x18(%rbp),%rax
  49:	48 89 50 10          	mov    %rdx,0x10(%rax)
  4d:	90                   	nop
  4e:	48 8b 5d f8          	mov    -0x8(%rbp),%rbx
  52:	c9                   	leave  
  53:	c3                   	ret    

Disassembly of section .text._ZNKSt11_Deque_baseIiSaIiEE20_M_get_map_allocatorEv:

0000000000000000 <_ZNKSt11_Deque_baseIiSaIiEE20_M_get_map_allocatorEv>:
   0:	f3 0f 1e fa          	endbr64 
   4:	55                   	push   %rbp
   5:	48 89 e5             	mov    %rsp,%rbp
   8:	48 83 ec 10          	sub    $0x10,%rsp
   c:	48 89 7d f8          	mov    %rdi,-0x8(%rbp)
  10:	48 89 75 f0          	mov    %rsi,-0x10(%rbp)
  14:	48 8b 45 f0          	mov    -0x10(%rbp),%rax
  18:	48 89 c7             	mov    %rax,%rdi
  1b:	e8 00 00 00 00       	call   20 <_ZNKSt11_Deque_baseIiSaIiEE20_M_get_map_allocatorEv+0x20>
  20:	48 89 c2             	mov    %rax,%rdx
  23:	48 8b 45 f8          	mov    -0x8(%rbp),%rax
  27:	48 89 d6             	mov    %rdx,%rsi
  2a:	48 89 c7             	mov    %rax,%rdi
  2d:	e8 00 00 00 00       	call   32 <_ZNKSt11_Deque_baseIiSaIiEE20_M_get_map_allocatorEv+0x32>
  32:	48 8b 45 f8          	mov    -0x8(%rbp),%rax
  36:	c9                   	leave  
  37:	c3                   	ret    

Disassembly of section .text._ZNSaIPiED2Ev:

0000000000000000 <_ZNSaIPiED1Ev>:
   0:	f3 0f 1e fa          	endbr64 
   4:	55                   	push   %rbp
   5:	48 89 e5             	mov    %rsp,%rbp
   8:	48 83 ec 10          	sub    $0x10,%rsp
   c:	48 89 7d f8          	mov    %rdi,-0x8(%rbp)
  10:	48 8b 45 f8          	mov    -0x8(%rbp),%rax
  14:	48 89 c7             	mov    %rax,%rdi
  17:	e8 00 00 00 00       	call   1c <_ZNSaIPiED1Ev+0x1c>
  1c:	90                   	nop
  1d:	c9                   	leave  
  1e:	c3                   	ret    

Disassembly of section .text._ZNSt16allocator_traitsISaIPiEE10deallocateERS1_PS0_m:

0000000000000000 <_ZNSt16allocator_traitsISaIPiEE10deallocateERS1_PS0_m>:
   0:	f3 0f 1e fa          	endbr64 
   4:	55                   	push   %rbp
   5:	48 89 e5             	mov    %rsp,%rbp
   8:	48 83 ec 20          	sub    $0x20,%rsp
   c:	48 89 7d f8          	mov    %rdi,-0x8(%rbp)
  10:	48 89 75 f0          	mov    %rsi,-0x10(%rbp)
  14:	48 89 55 e8          	mov    %rdx,-0x18(%rbp)
  18:	48 8b 55 e8          	mov    -0x18(%rbp),%rdx
  1c:	48 8b 4d f0          	mov    -0x10(%rbp),%rcx
  20:	48 8b 45 f8          	mov    -0x8(%rbp),%rax
  24:	48 89 ce             	mov    %rcx,%rsi
  27:	48 89 c7             	mov    %rax,%rdi
  2a:	e8 00 00 00 00       	call   2f <_ZNSt16allocator_traitsISaIPiEE10deallocateERS1_PS0_m+0x2f>
  2f:	90                   	nop
  30:	c9                   	leave  
  31:	c3                   	ret    

Disassembly of section .text._ZNSt5dequeIiSaIiEE14_S_buffer_sizeEv:

0000000000000000 <_ZNSt5dequeIiSaIiEE14_S_buffer_sizeEv>:
   0:	f3 0f 1e fa          	endbr64 
   4:	55                   	push   %rbp
   5:	48 89 e5             	mov    %rsp,%rbp
   8:	bf 04 00 00 00       	mov    $0x4,%edi
   d:	e8 00 00 00 00       	call   12 <_ZNSt5dequeIiSaIiEE14_S_buffer_sizeEv+0x12>
  12:	5d                   	pop    %rbp
  13:	c3                   	ret    

Disassembly of section .text._ZSt7forwardIiEOT_RNSt16remove_referenceIS0_E4typeE:

0000000000000000 <_ZSt7forwardIiEOT_RNSt16remove_referenceIS0_E4typeE>:
   0:	f3 0f 1e fa          	endbr64 
   4:	55                   	push   %rbp
   5:	48 89 e5             	mov    %rsp,%rbp
   8:	48 89 7d f8          	mov    %rdi,-0x8(%rbp)
   c:	48 8b 45 f8          	mov    -0x8(%rbp),%rax
  10:	5d                   	pop    %rbp
  11:	c3                   	ret    

Disassembly of section .text._ZNSt16allocator_traitsISaIiEE9constructIiJiEEEvRS0_PT_DpOT0_:

0000000000000000 <_ZNSt16allocator_traitsISaIiEE9constructIiJiEEEvRS0_PT_DpOT0_>:
   0:	f3 0f 1e fa          	endbr64 
   4:	55                   	push   %rbp
   5:	48 89 e5             	mov    %rsp,%rbp
   8:	48 83 ec 20          	sub    $0x20,%rsp
   c:	48 89 7d f8          	mov    %rdi,-0x8(%rbp)
  10:	48 89 75 f0          	mov    %rsi,-0x10(%rbp)
  14:	48 89 55 e8          	mov    %rdx,-0x18(%rbp)
  18:	48 8b 45 e8          	mov    -0x18(%rbp),%rax
  1c:	48 89 c7             	mov    %rax,%rdi
  1f:	e8 00 00 00 00       	call   24 <_ZNSt16allocator_traitsISaIiEE9constructIiJiEEEvRS0_PT_DpOT0_+0x24>
  24:	48 89 c2             	mov    %rax,%rdx
  27:	48 8b 4d f0          	mov    -0x10(%rbp),%rcx
  2b:	48 8b 45 f8          	mov    -0x8(%rbp),%rax
  2f:	48 89 ce             	mov    %rcx,%rsi
  32:	48 89 c7             	mov    %rax,%rdi
  35:	e8 00 00 00 00       	call   3a <_ZNSt16allocator_traitsISaIiEE9constructIiJiEEEvRS0_PT_DpOT0_+0x3a>
  3a:	90                   	nop
  3b:	c9                   	leave  
  3c:	c3                   	ret    

Disassembly of section .text._ZNSt5dequeIiSaIiEE16_M_push_back_auxIJiEEEvDpOT_:

0000000000000000 <_ZNSt5dequeIiSaIiEE16_M_push_back_auxIJiEEEvDpOT_>:
   0:	f3 0f 1e fa          	endbr64 
   4:	55                   	push   %rbp
   5:	48 89 e5             	mov    %rsp,%rbp
   8:	53                   	push   %rbx
   9:	48 83 ec 18          	sub    $0x18,%rsp
   d:	48 89 7d e8          	mov    %rdi,-0x18(%rbp)
  11:	48 89 75 e0          	mov    %rsi,-0x20(%rbp)
  15:	48 8b 45 e8          	mov    -0x18(%rbp),%rax
  19:	48 89 c7             	mov    %rax,%rdi
  1c:	e8 00 00 00 00       	call   21 <_ZNSt5dequeIiSaIiEE16_M_push_back_auxIJiEEEvDpOT_+0x21>
  21:	48 89 c3             	mov    %rax,%rbx
  24:	48 8b 45 e8          	mov    -0x18(%rbp),%rax
  28:	48 89 c7             	mov    %rax,%rdi
  2b:	e8 00 00 00 00       	call   30 <_ZNSt5dequeIiSaIiEE16_M_push_back_auxIJiEEEvDpOT_+0x30>
  30:	48 39 c3             	cmp    %rax,%rbx
  33:	0f 94 c0             	sete   %al
  36:	84 c0                	test   %al,%al
  38:	74 0f                	je     49 <_ZNSt5dequeIiSaIiEE16_M_push_back_auxIJiEEEvDpOT_+0x49>
  3a:	48 8d 05 00 00 00 00 	lea    0x0(%rip),%rax        # 41 <_ZNSt5dequeIiSaIiEE16_M_push_back_auxIJiEEEvDpOT_+0x41>
  41:	48 89 c7             	mov    %rax,%rdi
  44:	e8 00 00 00 00       	call   49 <_ZNSt5dequeIiSaIiEE16_M_push_back_auxIJiEEEvDpOT_+0x49>
  49:	48 8b 45 e8          	mov    -0x18(%rbp),%rax
  4d:	be 01 00 00 00       	mov    $0x1,%esi
  52:	48 89 c7             	mov    %rax,%rdi
  55:	e8 00 00 00 00       	call   5a <_ZNSt5dequeIiSaIiEE16_M_push_back_auxIJiEEEvDpOT_+0x5a>
  5a:	48 8b 45 e8          	mov    -0x18(%rbp),%rax
  5e:	48 8b 55 e8          	mov    -0x18(%rbp),%rdx
  62:	48 8b 52 48          	mov    0x48(%rdx),%rdx
  66:	48 8d 5a 08          	lea    0x8(%rdx),%rbx
  6a:	48 89 c7             	mov    %rax,%rdi
  6d:	e8 00 00 00 00       	call   72 <_ZNSt5dequeIiSaIiEE16_M_push_back_auxIJiEEEvDpOT_+0x72>
  72:	48 89 03             	mov    %rax,(%rbx)
  75:	48 8b 45 e0          	mov    -0x20(%rbp),%rax
  79:	48 89 c7             	mov    %rax,%rdi
  7c:	e8 00 00 00 00       	call   81 <_ZNSt5dequeIiSaIiEE16_M_push_back_auxIJiEEEvDpOT_+0x81>
  81:	48 89 c2             	mov    %rax,%rdx
  84:	48 8b 45 e8          	mov    -0x18(%rbp),%rax
  88:	48 8b 48 30          	mov    0x30(%rax),%rcx
  8c:	48 8b 45 e8          	mov    -0x18(%rbp),%rax
  90:	48 89 ce             	mov    %rcx,%rsi
  93:	48 89 c7             	mov    %rax,%rdi
  96:	e8 00 00 00 00       	call   9b <_ZNSt5dequeIiSaIiEE16_M_push_back_auxIJiEEEvDpOT_+0x9b>
  9b:	48 8b 45 e8          	mov    -0x18(%rbp),%rax
  9f:	48 83 c0 30          	add    $0x30,%rax
  a3:	48 8b 55 e8          	mov    -0x18(%rbp),%rdx
  a7:	48 8b 52 48          	mov    0x48(%rdx),%rdx
  ab:	48 83 c2 08          	add    $0x8,%rdx
  af:	48 89 d6             	mov    %rdx,%rsi
  b2:	48 89 c7             	mov    %rax,%rdi
  b5:	e8 00 00 00 00       	call   ba <_ZNSt5dequeIiSaIiEE16_M_push_back_auxIJiEEEvDpOT_+0xba>
  ba:	48 8b 45 e8          	mov    -0x18(%rbp),%rax
  be:	48 8b 50 38          	mov    0x38(%rax),%rdx
  c2:	48 8b 45 e8          	mov    -0x18(%rbp),%rax
  c6:	48 89 50 30          	mov    %rdx,0x30(%rax)
  ca:	90                   	nop
  cb:	48 8b 5d f8          	mov    -0x8(%rbp),%rbx
  cf:	c9                   	leave  
  d0:	c3                   	ret    

Disassembly of section .text._ZNSaIiEC2ERKS_:

0000000000000000 <_ZNSaIiEC1ERKS_>:
   0:	f3 0f 1e fa          	endbr64 
   4:	55                   	push   %rbp
   5:	48 89 e5             	mov    %rsp,%rbp
   8:	48 83 ec 10          	sub    $0x10,%rsp
   c:	48 89 7d f8          	mov    %rdi,-0x8(%rbp)
  10:	48 89 75 f0          	mov    %rsi,-0x10(%rbp)
  14:	48 8b 55 f0          	mov    -0x10(%rbp),%rdx
  18:	48 8b 45 f8          	mov    -0x8(%rbp),%rax
  1c:	48 89 d6             	mov    %rdx,%rsi
  1f:	48 89 c7             	mov    %rax,%rdi
  22:	e8 00 00 00 00       	call   27 <_ZNSaIiEC1ERKS_+0x27>
  27:	90                   	nop
  28:	c9                   	leave  
  29:	c3                   	ret    

Disassembly of section .text._ZNSt11_Deque_baseIiSaIiEEC2ERKS0_m:

0000000000000000 <_ZNSt11_Deque_baseIiSaIiEEC1ERKS0_m>:
   0:	f3 0f 1e fa          	endbr64 
   4:	55                   	push   %rbp
   5:	48 89 e5             	mov    %rsp,%rbp
   8:	53                   	push   %rbx
   9:	48 83 ec 28          	sub    $0x28,%rsp
   d:	48 89 7d e8          	mov    %rdi,-0x18(%rbp)
  11:	48 89 75 e0          	mov    %rsi,-0x20(%rbp)
  15:	48 89 55 d8          	mov    %rdx,-0x28(%rbp)
  19:	48 8b 45 e8          	mov    -0x18(%rbp),%rax
  1d:	48 8b 55 e0          	mov    -0x20(%rbp),%rdx
  21:	48 89 d6             	mov    %rdx,%rsi
  24:	48 89 c7             	mov    %rax,%rdi
  27:	e8 00 00 00 00       	call   2c <_ZNSt11_Deque_baseIiSaIiEEC1ERKS0_m+0x2c>
  2c:	48 8b 55 d8          	mov    -0x28(%rbp),%rdx
  30:	48 8b 45 e8          	mov    -0x18(%rbp),%rax
  34:	48 89 d6             	mov    %rdx,%rsi
  37:	48 89 c7             	mov    %rax,%rdi
  3a:	e8 00 00 00 00       	call   3f <_ZNSt11_Deque_baseIiSaIiEEC1ERKS0_m+0x3f>
  3f:	eb 1e                	jmp    5f <_ZNSt11_Deque_baseIiSaIiEEC1ERKS0_m+0x5f>
  41:	f3 0f 1e fa          	endbr64 
  45:	48 89 c3             	mov    %rax,%rbx
  48:	48 8b 45 e8          	mov    -0x18(%rbp),%rax
  4c:	48 89 c7             	mov    %rax,%rdi
  4f:	e8 00 00 00 00       	call   54 <_ZNSt11_Deque_baseIiSaIiEEC1ERKS0_m+0x54>
  54:	48 89 d8             	mov    %rbx,%rax
  57:	48 89 c7             	mov    %rax,%rdi
  5a:	e8 00 00 00 00       	call   5f <_ZNSt11_Deque_baseIiSaIiEEC1ERKS0_m+0x5f>
  5f:	48 8b 5d f8          	mov    -0x8(%rbp),%rbx
  63:	c9                   	leave  
  64:	c3                   	ret    

Disassembly of section .text._ZNSt16allocator_traitsISaIiEE10deallocateERS0_Pim:

0000000000000000 <_ZNSt16allocator_traitsISaIiEE10deallocateERS0_Pim>:
   0:	f3 0f 1e fa          	endbr64 
   4:	55                   	push   %rbp
   5:	48 89 e5             	mov    %rsp,%rbp
   8:	48 83 ec 20          	sub    $0x20,%rsp
   c:	48 89 7d f8          	mov    %rdi,-0x8(%rbp)
  10:	48 89 75 f0          	mov    %rsi,-0x10(%rbp)
  14:	48 89 55 e8          	mov    %rdx,-0x18(%rbp)
  18:	48 8b 55 e8          	mov    -0x18(%rbp),%rdx
  1c:	48 8b 4d f0          	mov    -0x10(%rbp),%rcx
  20:	48 8b 45 f8          	mov    -0x8(%rbp),%rax
  24:	48 89 ce             	mov    %rcx,%rsi
  27:	48 89 c7             	mov    %rax,%rdi
  2a:	e8 00 00 00 00       	call   2f <_ZNSt16allocator_traitsISaIiEE10deallocateERS0_Pim+0x2f>
  2f:	90                   	nop
  30:	c9                   	leave  
  31:	c3                   	ret    

Disassembly of section .text._ZSt4swapINSt11_Deque_baseIiSaIiEE16_Deque_impl_dataEENSt9enable_ifIXsrSt6__and_IJSt6__not_ISt15__is_tuple_likeIT_EESt21is_move_constructibleIS8_ESt18is_move_assignableIS8_EEE5valueEvE4typeERS8_SI_:

0000000000000000 <_ZSt4swapINSt11_Deque_baseIiSaIiEE16_Deque_impl_dataEENSt9enable_ifIXsrSt6__and_IJSt6__not_ISt15__is_tuple_likeIT_EESt21is_move_constructibleIS8_ESt18is_move_assignableIS8_EEE5valueEvE4typeERS8_SI_>:
   0:	f3 0f 1e fa          	endbr64 
   4:	55                   	push   %rbp
   5:	48 89 e5             	mov    %rsp,%rbp
   8:	53                   	push   %rbx
   9:	48 83 ec 78          	sub    $0x78,%rsp
   d:	48 89 7d 88          	mov    %rdi,-0x78(%rbp)
  11:	48 89 75 80          	mov    %rsi,-0x80(%rbp)
  15:	64 48 8b 04 25 28 00 	mov    %fs:0x28,%rax
  1c:	00 00 
  1e:	48 89 45 e8          	mov    %rax,-0x18(%rbp)
  22:	31 c0                	xor    %eax,%eax
  24:	48 8b 45 88          	mov    -0x78(%rbp),%rax
  28:	48 89 c7             	mov    %rax,%rdi
  2b:	e8 00 00 00 00       	call   30 <_ZSt4swapINSt11_Deque_baseIiSaIiEE16_Deque_impl_dataEENSt9enable_ifIXsrSt6__and_IJSt6__not_ISt15__is_tuple_likeIT_EESt21is_move_constructibleIS8_ESt18is_move_assignableIS8_EEE5valueEvE4typeERS8_SI_+0x30>
  30:	48 89 c2             	mov    %rax,%rdx
  33:	48 8d 45 90          	lea    -0x70(%rbp),%rax
  37:	48 89 d6             	mov    %rdx,%rsi
  3a:	48 89 c7             	mov    %rax,%rdi
  3d:	e8 00 00 00 00       	call   42 <_ZSt4swapINSt11_Deque_baseIiSaIiEE16_Deque_impl_dataEENSt9enable_ifIXsrSt6__and_IJSt6__not_ISt15__is_tuple_likeIT_EESt21is_move_constructibleIS8_ESt18is_move_assignableIS8_EEE5valueEvE4typeERS8_SI_+0x42>
  42:	48 8b 45 80          	mov    -0x80(%rbp),%rax
  46:	48 89 c7             	mov    %rax,%rdi
  49:	e8 00 00 00 00       	call   4e <_ZSt4swapINSt11_Deque_baseIiSaIiEE16_Deque_impl_dataEENSt9enable_ifIXsrSt6__and_IJSt6__not_ISt15__is_tuple_likeIT_EESt21is_move_constructibleIS8_ESt18is_move_assignableIS8_EEE5valueEvE4typeERS8_SI_+0x4e>
  4e:	48 8b 55 88          	mov    -0x78(%rbp),%rdx
  52:	48 8b 08             	mov    (%rax),%rcx
  55:	48 8b 58 08          	mov    0x8(%rax),%rbx
  59:	48 89 0a             	mov    %rcx,(%rdx)
  5c:	48 89 5a 08          	mov    %rbx,0x8(%rdx)
  60:	48 8b 48 10          	mov    0x10(%rax),%rcx
  64:	48 8b 58 18          	mov    0x18(%rax),%rbx
  68:	48 89 4a 10          	mov    %rcx,0x10(%rdx)
  6c:	48 89 5a 18          	mov    %rbx,0x18(%rdx)
  70:	48 8b 48 20          	mov    0x20(%rax),%rcx
  74:	48 8b 58 28          	mov    0x28(%rax),%rbx
  78:	48 89 4a 20          	mov    %rcx,0x20(%rdx)
  7c:	48 89 5a 28          	mov    %rbx,0x28(%rdx)
  80:	48 8b 48 30          	mov    0x30(%rax),%rcx
  84:	48 8b 58 38          	mov    0x38(%rax),%rbx
  88:	48 89 4a 30          	mov    %rcx,0x30(%rdx)
  8c:	48 89 5a 38          	mov    %rbx,0x38(%rdx)
  90:	48 8b 48 40          	mov    0x40(%rax),%rcx
  94:	48 8b 58 48          	mov    0x48(%rax),%rbx
  98:	48 89 4a 40          	mov    %rcx,0x40(%rdx)
  9c:	48 89 5a 48          	mov    %rbx,0x48(%rdx)
  a0:	48 8d 45 90          	lea    -0x70(%rbp),%rax
  a4:	48 89 c7             	mov    %rax,%rdi
  a7:	e8 00 00 00 00       	call   ac <_ZSt4swapINSt11_Deque_baseIiSaIiEE16_Deque_impl_dataEENSt9enable_ifIXsrSt6__and_IJSt6__not_ISt15__is_tuple_likeIT_EESt21is_move_constructibleIS8_ESt18is_move_assignableIS8_EEE5valueEvE4typeERS8_SI_+0xac>
  ac:	48 8b 55 80          	mov    -0x80(%rbp),%rdx
  b0:	48 8b 08             	mov    (%rax),%rcx
  b3:	48 8b 58 08          	mov    0x8(%rax),%rbx
  b7:	48 89 0a             	mov    %rcx,(%rdx)
  ba:	48 89 5a 08          	mov    %rbx,0x8(%rdx)
  be:	48 8b 48 10          	mov    0x10(%rax),%rcx
  c2:	48 8b 58 18          	mov    0x18(%rax),%rbx
  c6:	48 89 4a 10          	mov    %rcx,0x10(%rdx)
  ca:	48 89 5a 18          	mov    %rbx,0x18(%rdx)
  ce:	48 8b 48 20          	mov    0x20(%rax),%rcx
  d2:	48 8b 58 28          	mov    0x28(%rax),%rbx
  d6:	48 89 4a 20          	mov    %rcx,0x20(%rdx)
  da:	48 89 5a 28          	mov    %rbx,0x28(%rdx)
  de:	48 8b 48 30          	mov    0x30(%rax),%rcx
  e2:	48 8b 58 38          	mov    0x38(%rax),%rbx
  e6:	48 89 4a 30          	mov    %rcx,0x30(%rdx)
  ea:	48 89 5a 38          	mov    %rbx,0x38(%rdx)
  ee:	48 8b 48 40          	mov    0x40(%rax),%rcx
  f2:	48 8b 58 48          	mov    0x48(%rax),%rbx
  f6:	48 89 4a 40          	mov    %rcx,0x40(%rdx)
  fa:	48 89 5a 48          	mov    %rbx,0x48(%rdx)
  fe:	90                   	nop
  ff:	48 8b 45 e8          	mov    -0x18(%rbp),%rax
 103:	64 48 2b 04 25 28 00 	sub    %fs:0x28,%rax
 10a:	00 00 
 10c:	74 05                	je     113 <_ZSt4swapINSt11_Deque_baseIiSaIiEE16_Deque_impl_dataEENSt9enable_ifIXsrSt6__and_IJSt6__not_ISt15__is_tuple_likeIT_EESt21is_move_constructibleIS8_ESt18is_move_assignableIS8_EEE5valueEvE4typeERS8_SI_+0x113>
 10e:	e8 00 00 00 00       	call   113 <_ZSt4swapINSt11_Deque_baseIiSaIiEE16_Deque_impl_dataEENSt9enable_ifIXsrSt6__and_IJSt6__not_ISt15__is_tuple_likeIT_EESt21is_move_constructibleIS8_ESt18is_move_assignableIS8_EEE5valueEvE4typeERS8_SI_+0x113>
 113:	48 8b 5d f8          	mov    -0x8(%rbp),%rbx
 117:	c9                   	leave  
 118:	c3                   	ret    

Disassembly of section .text._ZNSt15_Deque_iteratorIiRiPiE14_S_buffer_sizeEv:

0000000000000000 <_ZNSt15_Deque_iteratorIiRiPiE14_S_buffer_sizeEv>:
   0:	f3 0f 1e fa          	endbr64 
   4:	55                   	push   %rbp
   5:	48 89 e5             	mov    %rsp,%rbp
   8:	bf 04 00 00 00       	mov    $0x4,%edi
   d:	e8 00 00 00 00       	call   12 <_ZNSt15_Deque_iteratorIiRiPiE14_S_buffer_sizeEv+0x12>
  12:	5d                   	pop    %rbp
  13:	c3                   	ret    

Disassembly of section .text._ZSt12__niter_baseISt15_Deque_iteratorIiRKiPS1_EET_S5_:

0000000000000000 <_ZSt12__niter_baseISt15_Deque_iteratorIiRKiPS1_EET_S5_>:
   0:	f3 0f 1e fa          	endbr64 
   4:	55                   	push   %rbp
   5:	48 89 e5             	mov    %rsp,%rbp
   8:	48 83 ec 10          	sub    $0x10,%rsp
   c:	48 89 7d f8          	mov    %rdi,-0x8(%rbp)
  10:	48 89 75 f0          	mov    %rsi,-0x10(%rbp)
  14:	48 8b 55 f0          	mov    -0x10(%rbp),%rdx
  18:	48 8b 45 f8          	mov    -0x8(%rbp),%rax
  1c:	48 89 d6             	mov    %rdx,%rsi
  1f:	48 89 c7             	mov    %rax,%rdi
  22:	e8 00 00 00 00       	call   27 <_ZSt12__niter_baseISt15_Deque_iteratorIiRKiPS1_EET_S5_+0x27>
  27:	48 8b 45 f8          	mov    -0x8(%rbp),%rax
  2b:	c9                   	leave  
  2c:	c3                   	ret    

Disassembly of section .text._ZSt12__niter_baseISt15_Deque_iteratorIiRiPiEET_S4_:

0000000000000000 <_ZSt12__niter_baseISt15_Deque_iteratorIiRiPiEET_S4_>:
   0:	f3 0f 1e fa          	endbr64 
   4:	55                   	push   %rbp
   5:	48 89 e5             	mov    %rsp,%rbp
   8:	48 83 ec 10          	sub    $0x10,%rsp
   c:	48 89 7d f8          	mov    %rdi,-0x8(%rbp)
  10:	48 89 75 f0          	mov    %rsi,-0x10(%rbp)
  14:	48 8b 55 f0          	mov    -0x10(%rbp),%rdx
  18:	48 8b 45 f8          	mov    -0x8(%rbp),%rax
  1c:	48 89 d6             	mov    %rdx,%rsi
  1f:	48 89 c7             	mov    %rax,%rdi
  22:	e8 00 00 00 00       	call   27 <_ZSt12__niter_baseISt15_Deque_iteratorIiRiPiEET_S4_+0x27>
  27:	48 8b 45 f8          	mov    -0x8(%rbp),%rax
  2b:	c9                   	leave  
  2c:	c3                   	ret    

Disassembly of section .text._ZSt14__copy_move_a1ILb0EiRKiPS0_iESt15_Deque_iteratorIT3_RS4_PS4_ES3_IT0_T1_T2_ESB_S7_:

0000000000000000 <_ZSt14__copy_move_a1ILb0EiRKiPS0_iESt15_Deque_iteratorIT3_RS4_PS4_ES3_IT0_T1_T2_ESB_S7_>:
   0:	f3 0f 1e fa          	endbr64 
   4:	55                   	push   %rbp
   5:	48 89 e5             	mov    %rsp,%rbp
   8:	48 81 ec 90 00 00 00 	sub    $0x90,%rsp
   f:	48 89 7d 88          	mov    %rdi,-0x78(%rbp)
  13:	48 89 75 80          	mov    %rsi,-0x80(%rbp)
  17:	48 89 95 78 ff ff ff 	mov    %rdx,-0x88(%rbp)
  1e:	48 89 8d 70 ff ff ff 	mov    %rcx,-0x90(%rbp)
  25:	64 48 8b 04 25 28 00 	mov    %fs:0x28,%rax
  2c:	00 00 
  2e:	48 89 45 f8          	mov    %rax,-0x8(%rbp)
  32:	31 c0                	xor    %eax,%eax
  34:	48 8b 95 70 ff ff ff 	mov    -0x90(%rbp),%rdx
  3b:	48 8d 45 d0          	lea    -0x30(%rbp),%rax
  3f:	48 89 d6             	mov    %rdx,%rsi
  42:	48 89 c7             	mov    %rax,%rdi
  45:	e8 00 00 00 00       	call   4a <_ZSt14__copy_move_a1ILb0EiRKiPS0_iESt15_Deque_iteratorIT3_RS4_PS4_ES3_IT0_T1_T2_ESB_S7_+0x4a>
  4a:	48 8b 95 78 ff ff ff 	mov    -0x88(%rbp),%rdx
  51:	48 8d 45 b0          	lea    -0x50(%rbp),%rax
  55:	48 89 d6             	mov    %rdx,%rsi
  58:	48 89 c7             	mov    %rax,%rdi
  5b:	e8 00 00 00 00       	call   60 <_ZSt14__copy_move_a1ILb0EiRKiPS0_iESt15_Deque_iteratorIT3_RS4_PS4_ES3_IT0_T1_T2_ESB_S7_+0x60>
  60:	48 8b 55 80          	mov    -0x80(%rbp),%rdx
  64:	48 8d 45 90          	lea    -0x70(%rbp),%rax
  68:	48 89 d6             	mov    %rdx,%rsi
  6b:	48 89 c7             	mov    %rax,%rdi
  6e:	e8 00 00 00 00       	call   73 <_ZSt14__copy_move_a1ILb0EiRKiPS0_iESt15_Deque_iteratorIT3_RS4_PS4_ES3_IT0_T1_T2_ESB_S7_+0x73>
  73:	48 8b 45 88          	mov    -0x78(%rbp),%rax
  77:	48 8d 4d d0          	lea    -0x30(%rbp),%rcx
  7b:	48 8d 55 b0          	lea    -0x50(%rbp),%rdx
  7f:	48 8d 75 90          	lea    -0x70(%rbp),%rsi
  83:	48 89 c7             	mov    %rax,%rdi
  86:	e8 00 00 00 00       	call   8b <_ZSt14__copy_move_a1ILb0EiRKiPS0_iESt15_Deque_iteratorIT3_RS4_PS4_ES3_IT0_T1_T2_ESB_S7_+0x8b>
  8b:	48 8b 45 f8          	mov    -0x8(%rbp),%rax
  8f:	64 48 2b 04 25 28 00 	sub    %fs:0x28,%rax
  96:	00 00 
  98:	74 05                	je     9f <_ZSt14__copy_move_a1ILb0EiRKiPS0_iESt15_Deque_iteratorIT3_RS4_PS4_ES3_IT0_T1_T2_ESB_S7_+0x9f>
  9a:	e8 00 00 00 00       	call   9f <_ZSt14__copy_move_a1ILb0EiRKiPS0_iESt15_Deque_iteratorIT3_RS4_PS4_ES3_IT0_T1_T2_ESB_S7_+0x9f>
  9f:	48 8b 45 88          	mov    -0x78(%rbp),%rax
  a3:	c9                   	leave  
  a4:	c3                   	ret    

Disassembly of section .text._ZSt12__niter_wrapISt15_Deque_iteratorIiRiPiEET_RKS4_S4_:

0000000000000000 <_ZSt12__niter_wrapISt15_Deque_iteratorIiRiPiEET_RKS4_S4_>:
   0:	f3 0f 1e fa          	endbr64 
   4:	55                   	push   %rbp
   5:	48 89 e5             	mov    %rsp,%rbp
   8:	48 83 ec 20          	sub    $0x20,%rsp
   c:	48 89 7d f8          	mov    %rdi,-0x8(%rbp)
  10:	48 89 75 f0          	mov    %rsi,-0x10(%rbp)
  14:	48 89 55 e8          	mov    %rdx,-0x18(%rbp)
  18:	48 8b 55 e8          	mov    -0x18(%rbp),%rdx
  1c:	48 8b 45 f8          	mov    -0x8(%rbp),%rax
  20:	48 89 d6             	mov    %rdx,%rsi
  23:	48 89 c7             	mov    %rax,%rdi
  26:	e8 00 00 00 00       	call   2b <_ZSt12__niter_wrapISt15_Deque_iteratorIiRiPiEET_RKS4_S4_+0x2b>
  2b:	48 8b 45 f8          	mov    -0x8(%rbp),%rax
  2f:	c9                   	leave  
  30:	c3                   	ret    

Disassembly of section .text._ZNSt15_Deque_iteratorIiRKiPS0_E14_S_buffer_sizeEv:

0000000000000000 <_ZNSt15_Deque_iteratorIiRKiPS0_E14_S_buffer_sizeEv>:
   0:	f3 0f 1e fa          	endbr64 
   4:	55                   	push   %rbp
   5:	48 89 e5             	mov    %rsp,%rbp
   8:	bf 04 00 00 00       	mov    $0x4,%edi
   d:	e8 00 00 00 00       	call   12 <_ZNSt15_Deque_iteratorIiRKiPS0_E14_S_buffer_sizeEv+0x12>
  12:	5d                   	pop    %rbp
  13:	c3                   	ret    

Disassembly of section .text._ZNSt15_Deque_iteratorIiRKiPS0_E11_M_set_nodeEPPi:

0000000000000000 <_ZNSt15_Deque_iteratorIiRKiPS0_E11_M_set_nodeEPPi>:
   0:	f3 0f 1e fa          	endbr64 
   4:	55                   	push   %rbp
   5:	48 89 e5             	mov    %rsp,%rbp
   8:	53                   	push   %rbx
   9:	48 83 ec 18          	sub    $0x18,%rsp
   d:	48 89 7d e8          	mov    %rdi,-0x18(%rbp)
  11:	48 89 75 e0          	mov    %rsi,-0x20(%rbp)
  15:	48 8b 45 e8          	mov    -0x18(%rbp),%rax
  19:	48 8b 55 e0          	mov    -0x20(%rbp),%rdx
  1d:	48 89 50 18          	mov    %rdx,0x18(%rax)
  21:	48 8b 45 e0          	mov    -0x20(%rbp),%rax
  25:	48 8b 10             	mov    (%rax),%rdx
  28:	48 8b 45 e8          	mov    -0x18(%rbp),%rax
  2c:	48 89 50 08          	mov    %rdx,0x8(%rax)
  30:	48 8b 45 e8          	mov    -0x18(%rbp),%rax
  34:	48 8b 58 08          	mov    0x8(%rax),%rbx
  38:	e8 00 00 00 00       	call   3d <_ZNSt15_Deque_iteratorIiRKiPS0_E11_M_set_nodeEPPi+0x3d>
  3d:	48 c1 e0 02          	shl    $0x2,%rax
  41:	48 8d 14 03          	lea    (%rbx,%rax,1),%rdx
  45:	48 8b 45 e8          	mov    -0x18(%rbp),%rax
  49:	48 89 50 10          	mov    %rdx,0x10(%rax)
  4d:	90                   	nop
  4e:	48 8b 5d f8          	mov    -0x8(%rbp),%rbx
  52:	c9                   	leave  
  53:	c3                   	ret    

Disassembly of section .text._ZSt19__iterator_categoryISt15_Deque_iteratorIiRKiPS1_EENSt15iterator_traitsIT_E17iterator_categoryERKS6_:

0000000000000000 <_ZSt19__iterator_categoryISt15_Deque_iteratorIiRKiPS1_EENSt15iterator_traitsIT_E17iterator_categoryERKS6_>:
   0:	f3 0f 1e fa          	endbr64 
   4:	55                   	push   %rbp
   5:	48 89 e5             	mov    %rsp,%rbp
   8:	48 89 7d f8          	mov    %rdi,-0x8(%rbp)
   c:	5d                   	pop    %rbp
   d:	c3                   	ret    

Disassembly of section .text._ZSt10__distanceISt15_Deque_iteratorIiRKiPS1_EENSt15iterator_traitsIT_E15difference_typeES6_S6_St26random_access_iterator_tag:

0000000000000000 <_ZSt10__distanceISt15_Deque_iteratorIiRKiPS1_EENSt15iterator_traitsIT_E15difference_typeES6_S6_St26random_access_iterator_tag>:
   0:	f3 0f 1e fa          	endbr64 
   4:	55                   	push   %rbp
   5:	48 89 e5             	mov    %rsp,%rbp
   8:	48 83 ec 10          	sub    $0x10,%rsp
   c:	48 89 7d f8          	mov    %rdi,-0x8(%rbp)
  10:	48 89 75 f0          	mov    %rsi,-0x10(%rbp)
  14:	48 8b 55 f8          	mov    -0x8(%rbp),%rdx
  18:	48 8b 45 f0          	mov    -0x10(%rbp),%rax
  1c:	48 89 d6             	mov    %rdx,%rsi
  1f:	48 89 c7             	mov    %rax,%rdi
  22:	e8 00 00 00 00       	call   27 <_ZSt10__distanceISt15_Deque_iteratorIiRKiPS1_EENSt15iterator_traitsIT_E15difference_typeES6_S6_St26random_access_iterator_tag+0x27>
  27:	c9                   	leave  
  28:	c3                   	ret    

Disassembly of section .text._ZNSt5dequeIiSaIiEE24_M_new_elements_at_frontEm:

0000000000000000 <_ZNSt5dequeIiSaIiEE24_M_new_elements_at_frontEm>:
   0:	f3 0f 1e fa          	endbr64 
   4:	55                   	push   %rbp
   5:	48 89 e5             	mov    %rsp,%rbp
   8:	53                   	push   %rbx
   9:	48 83 ec 38          	sub    $0x38,%rsp
   d:	48 89 7d c8          	mov    %rdi,-0x38(%rbp)
  11:	48 89 75 c0          	mov    %rsi,-0x40(%rbp)
  15:	48 8b 45 c8          	mov    -0x38(%rbp),%rax
  19:	48 89 c7             	mov    %rax,%rdi
  1c:	e8 00 00 00 00       	call   21 <_ZNSt5dequeIiSaIiEE24_M_new_elements_at_frontEm+0x21>
  21:	48 89 c3             	mov    %rax,%rbx
  24:	48 8b 45 c8          	mov    -0x38(%rbp),%rax
  28:	48 89 c7             	mov    %rax,%rdi
  2b:	e8 00 00 00 00       	call   30 <_ZNSt5dequeIiSaIiEE24_M_new_elements_at_frontEm+0x30>
  30:	48 89 c2             	mov    %rax,%rdx
  33:	48 89 d8             	mov    %rbx,%rax
  36:	48 29 d0             	sub    %rdx,%rax
  39:	48 39 45 c0          	cmp    %rax,-0x40(%rbp)
  3d:	0f 97 c0             	seta   %al
  40:	84 c0                	test   %al,%al
  42:	74 0f                	je     53 <_ZNSt5dequeIiSaIiEE24_M_new_elements_at_frontEm+0x53>
  44:	48 8d 05 00 00 00 00 	lea    0x0(%rip),%rax        # 4b <_ZNSt5dequeIiSaIiEE24_M_new_elements_at_frontEm+0x4b>
  4b:	48 89 c7             	mov    %rax,%rdi
  4e:	e8 00 00 00 00       	call   53 <_ZNSt5dequeIiSaIiEE24_M_new_elements_at_frontEm+0x53>
  53:	e8 00 00 00 00       	call   58 <_ZNSt5dequeIiSaIiEE24_M_new_elements_at_frontEm+0x58>
  58:	48 8b 55 c0          	mov    -0x40(%rbp),%rdx
  5c:	48 01 d0             	add    %rdx,%rax
  5f:	48 8d 58 ff          	lea    -0x1(%rax),%rbx
  63:	e8 00 00 00 00       	call   68 <_ZNSt5dequeIiSaIiEE24_M_new_elements_at_frontEm+0x68>
  68:	48 89 c6             	mov    %rax,%rsi
  6b:	48 89 d8             	mov    %rbx,%rax
  6e:	ba 00 00 00 00       	mov    $0x0,%edx
  73:	48 f7 f6             	div    %rsi
  76:	48 89 45 e8          	mov    %rax,-0x18(%rbp)
  7a:	48 8b 55 e8          	mov    -0x18(%rbp),%rdx
  7e:	48 8b 45 c8          	mov    -0x38(%rbp),%rax
  82:	48 89 d6             	mov    %rdx,%rsi
  85:	48 89 c7             	mov    %rax,%rdi
  88:	e8 00 00 00 00       	call   8d <_ZNSt5dequeIiSaIiEE24_M_new_elements_at_frontEm+0x8d>
  8d:	48 c7 45 d8 01 00 00 	movq   $0x1,-0x28(%rbp)
  94:	00 
  95:	eb 2b                	jmp    c2 <_ZNSt5dequeIiSaIiEE24_M_new_elements_at_frontEm+0xc2>
  97:	48 8b 45 c8          	mov    -0x38(%rbp),%rax
  9b:	48 8b 55 c8          	mov    -0x38(%rbp),%rdx
  9f:	48 8b 4a 28          	mov    0x28(%rdx),%rcx
  a3:	48 8b 55 d8          	mov    -0x28(%rbp),%rdx
  a7:	48 c1 e2 03          	shl    $0x3,%rdx
  ab:	48 f7 da             	neg    %rdx
  ae:	48 8d 1c 11          	lea    (%rcx,%rdx,1),%rbx
  b2:	48 89 c7             	mov    %rax,%rdi
  b5:	e8 00 00 00 00       	call   ba <_ZNSt5dequeIiSaIiEE24_M_new_elements_at_frontEm+0xba>
  ba:	48 89 03             	mov    %rax,(%rbx)
  bd:	48 83 45 d8 01       	addq   $0x1,-0x28(%rbp)
  c2:	48 8b 45 d8          	mov    -0x28(%rbp),%rax
  c6:	48 3b 45 e8          	cmp    -0x18(%rbp),%rax
  ca:	76 cb                	jbe    97 <_ZNSt5dequeIiSaIiEE24_M_new_elements_at_frontEm+0x97>
  cc:	eb 69                	jmp    137 <_ZNSt5dequeIiSaIiEE24_M_new_elements_at_frontEm+0x137>
  ce:	f3 0f 1e fa          	endbr64 
  d2:	48 89 c7             	mov    %rax,%rdi
  d5:	e8 00 00 00 00       	call   da <_ZNSt5dequeIiSaIiEE24_M_new_elements_at_frontEm+0xda>
  da:	48 c7 45 e0 01 00 00 	movq   $0x1,-0x20(%rbp)
  e1:	00 
  e2:	eb 2d                	jmp    111 <_ZNSt5dequeIiSaIiEE24_M_new_elements_at_frontEm+0x111>
  e4:	48 8b 45 c8          	mov    -0x38(%rbp),%rax
  e8:	48 8b 55 c8          	mov    -0x38(%rbp),%rdx
  ec:	48 8b 4a 28          	mov    0x28(%rdx),%rcx
  f0:	48 8b 55 e0          	mov    -0x20(%rbp),%rdx
  f4:	48 c1 e2 03          	shl    $0x3,%rdx
  f8:	48 f7 da             	neg    %rdx
  fb:	48 01 ca             	add    %rcx,%rdx
  fe:	48 8b 12             	mov    (%rdx),%rdx
 101:	48 89 d6             	mov    %rdx,%rsi
 104:	48 89 c7             	mov    %rax,%rdi
 107:	e8 00 00 00 00       	call   10c <_ZNSt5dequeIiSaIiEE24_M_new_elements_at_frontEm+0x10c>
 10c:	48 83 45 e0 01       	addq   $0x1,-0x20(%rbp)
 111:	48 8b 45 e0          	mov    -0x20(%rbp),%rax
 115:	48 3b 45 d8          	cmp    -0x28(%rbp),%rax
 119:	72 c9                	jb     e4 <_ZNSt5dequeIiSaIiEE24_M_new_elements_at_frontEm+0xe4>
 11b:	e8 00 00 00 00       	call   120 <_ZNSt5dequeIiSaIiEE24_M_new_elements_at_frontEm+0x120>
 120:	f3 0f 1e fa          	endbr64 
 124:	48 89 c3             	mov    %rax,%rbx
 127:	e8 00 00 00 00       	call   12c <_ZNSt5dequeIiSaIiEE24_M_new_elements_at_frontEm+0x12c>
 12c:	48 89 d8             	mov    %rbx,%rax
 12f:	48 89 c7             	mov    %rax,%rdi
 132:	e8 00 00 00 00       	call   137 <_ZNSt5dequeIiSaIiEE24_M_new_elements_at_frontEm+0x137>
 137:	48 8b 5d f8          	mov    -0x8(%rbp),%rbx
 13b:	c9                   	leave  
 13c:	c3                   	ret    

Disassembly of section .text._ZStmiRKSt15_Deque_iteratorIiRiPiEl:

0000000000000000 <_ZStmiRKSt15_Deque_iteratorIiRiPiEl>:
   0:	f3 0f 1e fa          	endbr64 
   4:	55                   	push   %rbp
   5:	48 89 e5             	mov    %rsp,%rbp
   8:	48 83 ec 20          	sub    $0x20,%rsp
   c:	48 89 7d f8          	mov    %rdi,-0x8(%rbp)
  10:	48 89 75 f0          	mov    %rsi,-0x10(%rbp)
  14:	48 89 55 e8          	mov    %rdx,-0x18(%rbp)
  18:	48 8b 55 f0          	mov    -0x10(%rbp),%rdx
  1c:	48 8b 45 f8          	mov    -0x8(%rbp),%rax
  20:	48 89 d6             	mov    %rdx,%rsi
  23:	48 89 c7             	mov    %rax,%rdi
  26:	e8 00 00 00 00       	call   2b <_ZStmiRKSt15_Deque_iteratorIiRiPiEl+0x2b>
  2b:	48 8b 55 e8          	mov    -0x18(%rbp),%rdx
  2f:	48 8b 45 f8          	mov    -0x8(%rbp),%rax
  33:	48 89 d6             	mov    %rdx,%rsi
  36:	48 89 c7             	mov    %rax,%rdi
  39:	e8 00 00 00 00       	call   3e <_ZStmiRKSt15_Deque_iteratorIiRiPiEl+0x3e>
  3e:	90                   	nop
  3f:	48 8b 45 f8          	mov    -0x8(%rbp),%rax
  43:	c9                   	leave  
  44:	c3                   	ret    

Disassembly of section .text._ZSt18uninitialized_copyISt15_Deque_iteratorIiRKiPS1_ES0_IiRiPiEET0_T_S9_S8_:

0000000000000000 <_ZSt18uninitialized_copyISt15_Deque_iteratorIiRKiPS1_ES0_IiRiPiEET0_T_S9_S8_>:
   0:	f3 0f 1e fa          	endbr64 
   4:	55                   	push   %rbp
   5:	48 89 e5             	mov    %rsp,%rbp
   8:	48 81 ec a0 00 00 00 	sub    $0xa0,%rsp
   f:	48 89 bd 78 ff ff ff 	mov    %rdi,-0x88(%rbp)
  16:	48 89 b5 70 ff ff ff 	mov    %rsi,-0x90(%rbp)
  1d:	48 89 95 68 ff ff ff 	mov    %rdx,-0x98(%rbp)
  24:	48 89 8d 60 ff ff ff 	mov    %rcx,-0xa0(%rbp)
  2b:	64 48 8b 04 25 28 00 	mov    %fs:0x28,%rax
  32:	00 00 
  34:	48 89 45 f8          	mov    %rax,-0x8(%rbp)
  38:	31 c0                	xor    %eax,%eax
  3a:	c6 45 8f 01          	movb   $0x1,-0x71(%rbp)
  3e:	48 8b 95 60 ff ff ff 	mov    -0xa0(%rbp),%rdx
  45:	48 8d 45 d0          	lea    -0x30(%rbp),%rax
  49:	48 89 d6             	mov    %rdx,%rsi
  4c:	48 89 c7             	mov    %rax,%rdi
  4f:	e8 00 00 00 00       	call   54 <_ZSt18uninitialized_copyISt15_Deque_iteratorIiRKiPS1_ES0_IiRiPiEET0_T_S9_S8_+0x54>
  54:	48 8b 95 68 ff ff ff 	mov    -0x98(%rbp),%rdx
  5b:	48 8d 45 b0          	lea    -0x50(%rbp),%rax
  5f:	48 89 d6             	mov    %rdx,%rsi
  62:	48 89 c7             	mov    %rax,%rdi
  65:	e8 00 00 00 00       	call   6a <_ZSt18uninitialized_copyISt15_Deque_iteratorIiRKiPS1_ES0_IiRiPiEET0_T_S9_S8_+0x6a>
  6a:	48 8b 95 70 ff ff ff 	mov    -0x90(%rbp),%rdx
  71:	48 8d 45 90          	lea    -0x70(%rbp),%rax
  75:	48 89 d6             	mov    %rdx,%rsi
  78:	48 89 c7             	mov    %rax,%rdi
  7b:	e8 00 00 00 00       	call   80 <_ZSt18uninitialized_copyISt15_Deque_iteratorIiRKiPS1_ES0_IiRiPiEET0_T_S9_S8_+0x80>
  80:	48 8b 85 78 ff ff ff 	mov    -0x88(%rbp),%rax
  87:	48 8d 4d d0          	lea    -0x30(%rbp),%rcx
  8b:	48 8d 55 b0          	lea    -0x50(%rbp),%rdx
  8f:	48 8d 75 90          	lea    -0x70(%rbp),%rsi
  93:	48 89 c7             	mov    %rax,%rdi
  96:	e8 00 00 00 00       	call   9b <_ZSt18uninitialized_copyISt15_Deque_iteratorIiRKiPS1_ES0_IiRiPiEET0_T_S9_S8_+0x9b>
  9b:	48 8b 45 f8          	mov    -0x8(%rbp),%rax
  9f:	64 48 2b 04 25 28 00 	sub    %fs:0x28,%rax
  a6:	00 00 
  a8:	74 05                	je     af <_ZSt18uninitialized_copyISt15_Deque_iteratorIiRKiPS1_ES0_IiRiPiEET0_T_S9_S8_+0xaf>
  aa:	e8 00 00 00 00       	call   af <_ZSt18uninitialized_copyISt15_Deque_iteratorIiRKiPS1_ES0_IiRiPiEET0_T_S9_S8_+0xaf>
  af:	48 8b 85 78 ff ff ff 	mov    -0x88(%rbp),%rax
  b6:	c9                   	leave  
  b7:	c3                   	ret    

Disassembly of section .text._ZNSt5dequeIiSaIiEE23_M_new_elements_at_backEm:

0000000000000000 <_ZNSt5dequeIiSaIiEE23_M_new_elements_at_backEm>:
   0:	f3 0f 1e fa          	endbr64 
   4:	55                   	push   %rbp
   5:	48 89 e5             	mov    %rsp,%rbp
   8:	53                   	push   %rbx
   9:	48 83 ec 38          	sub    $0x38,%rsp
   d:	48 89 7d c8          	mov    %rdi,-0x38(%rbp)
  11:	48 89 75 c0          	mov    %rsi,-0x40(%rbp)
  15:	48 8b 45 c8          	mov    -0x38(%rbp),%rax
  19:	48 89 c7             	mov    %rax,%rdi
  1c:	e8 00 00 00 00       	call   21 <_ZNSt5dequeIiSaIiEE23_M_new_elements_at_backEm+0x21>
  21:	48 89 c3             	mov    %rax,%rbx
  24:	48 8b 45 c8          	mov    -0x38(%rbp),%rax
  28:	48 89 c7             	mov    %rax,%rdi
  2b:	e8 00 00 00 00       	call   30 <_ZNSt5dequeIiSaIiEE23_M_new_elements_at_backEm+0x30>
  30:	48 89 c2             	mov    %rax,%rdx
  33:	48 89 d8             	mov    %rbx,%rax
  36:	48 29 d0             	sub    %rdx,%rax
  39:	48 39 45 c0          	cmp    %rax,-0x40(%rbp)
  3d:	0f 97 c0             	seta   %al
  40:	84 c0                	test   %al,%al
  42:	74 0f                	je     53 <_ZNSt5dequeIiSaIiEE23_M_new_elements_at_backEm+0x53>
  44:	48 8d 05 00 00 00 00 	lea    0x0(%rip),%rax        # 4b <_ZNSt5dequeIiSaIiEE23_M_new_elements_at_backEm+0x4b>
  4b:	48 89 c7             	mov    %rax,%rdi
  4e:	e8 00 00 00 00       	call   53 <_ZNSt5dequeIiSaIiEE23_M_new_elements_at_backEm+0x53>
  53:	e8 00 00 00 00       	call   58 <_ZNSt5dequeIiSaIiEE23_M_new_elements_at_backEm+0x58>
  58:	48 8b 55 c0          	mov    -0x40(%rbp),%rdx
  5c:	48 01 d0             	add    %rdx,%rax
  5f:	48 8d 58 ff          	lea    -0x1(%rax),%rbx
  63:	e8 00 00 00 00       	call   68 <_ZNSt5dequeIiSaIiEE23_M_new_elements_at_backEm+0x68>
  68:	48 89 c6             	mov    %rax,%rsi
  6b:	48 89 d8             	mov    %rbx,%rax
  6e:	ba 00 00 00 00       	mov    $0x0,%edx
  73:	48 f7 f6             	div    %rsi
  76:	48 89 45 e8          	mov    %rax,-0x18(%rbp)
  7a:	48 8b 55 e8          	mov    -0x18(%rbp),%rdx
  7e:	48 8b 45 c8          	mov    -0x38(%rbp),%rax
  82:	48 89 d6             	mov    %rdx,%rsi
  85:	48 89 c7             	mov    %rax,%rdi
  88:	e8 00 00 00 00       	call   8d <_ZNSt5dequeIiSaIiEE23_M_new_elements_at_backEm+0x8d>
  8d:	48 c7 45 d8 01 00 00 	movq   $0x1,-0x28(%rbp)
  94:	00 
  95:	eb 28                	jmp    bf <_ZNSt5dequeIiSaIiEE23_M_new_elements_at_backEm+0xbf>
  97:	48 8b 45 c8          	mov    -0x38(%rbp),%rax
  9b:	48 8b 55 c8          	mov    -0x38(%rbp),%rdx
  9f:	48 8b 4a 48          	mov    0x48(%rdx),%rcx
  a3:	48 8b 55 d8          	mov    -0x28(%rbp),%rdx
  a7:	48 c1 e2 03          	shl    $0x3,%rdx
  ab:	48 8d 1c 11          	lea    (%rcx,%rdx,1),%rbx
  af:	48 89 c7             	mov    %rax,%rdi
  b2:	e8 00 00 00 00       	call   b7 <_ZNSt5dequeIiSaIiEE23_M_new_elements_at_backEm+0xb7>
  b7:	48 89 03             	mov    %rax,(%rbx)
  ba:	48 83 45 d8 01       	addq   $0x1,-0x28(%rbp)
  bf:	48 8b 45 d8          	mov    -0x28(%rbp),%rax
  c3:	48 3b 45 e8          	cmp    -0x18(%rbp),%rax
  c7:	76 ce                	jbe    97 <_ZNSt5dequeIiSaIiEE23_M_new_elements_at_backEm+0x97>
  c9:	eb 66                	jmp    131 <_ZNSt5dequeIiSaIiEE23_M_new_elements_at_backEm+0x131>
  cb:	f3 0f 1e fa          	endbr64 
  cf:	48 89 c7             	mov    %rax,%rdi
  d2:	e8 00 00 00 00       	call   d7 <_ZNSt5dequeIiSaIiEE23_M_new_elements_at_backEm+0xd7>
  d7:	48 c7 45 e0 01 00 00 	movq   $0x1,-0x20(%rbp)
  de:	00 
  df:	eb 2a                	jmp    10b <_ZNSt5dequeIiSaIiEE23_M_new_elements_at_backEm+0x10b>
  e1:	48 8b 45 c8          	mov    -0x38(%rbp),%rax
  e5:	48 8b 55 c8          	mov    -0x38(%rbp),%rdx
  e9:	48 8b 4a 48          	mov    0x48(%rdx),%rcx
  ed:	48 8b 55 e0          	mov    -0x20(%rbp),%rdx
  f1:	48 c1 e2 03          	shl    $0x3,%rdx
  f5:	48 01 ca             	add    %rcx,%rdx
  f8:	48 8b 12             	mov    (%rdx),%rdx
  fb:	48 89 d6             	mov    %rdx,%rsi
  fe:	48 89 c7             	mov    %rax,%rdi
 101:	e8 00 00 00 00       	call   106 <_ZNSt5dequeIiSaIiEE23_M_new_elements_at_backEm+0x106>
 106:	48 83 45 e0 01       	addq   $0x1,-0x20(%rbp)
 10b:	48 8b 45 e0          	mov    -0x20(%rbp),%rax
 10f:	48 3b 45 d8          	cmp    -0x28(%rbp),%rax
 113:	72 cc                	jb     e1 <_ZNSt5dequeIiSaIiEE23_M_new_elements_at_backEm+0xe1>
 115:	e8 00 00 00 00       	call   11a <_ZNSt5dequeIiSaIiEE23_M_new_elements_at_backEm+0x11a>
 11a:	f3 0f 1e fa          	endbr64 
 11e:	48 89 c3             	mov    %rax,%rbx
 121:	e8 00 00 00 00       	call   126 <_ZNSt5dequeIiSaIiEE23_M_new_elements_at_backEm+0x126>
 126:	48 89 d8             	mov    %rbx,%rax
 129:	48 89 c7             	mov    %rax,%rdi
 12c:	e8 00 00 00 00       	call   131 <_ZNSt5dequeIiSaIiEE23_M_new_elements_at_backEm+0x131>
 131:	48 8b 5d f8          	mov    -0x8(%rbp),%rbx
 135:	c9                   	leave  
 136:	c3                   	ret    

Disassembly of section .text._ZStplRKSt15_Deque_iteratorIiRiPiEl:

0000000000000000 <_ZStplRKSt15_Deque_iteratorIiRiPiEl>:
   0:	f3 0f 1e fa          	endbr64 
   4:	55                   	push   %rbp
   5:	48 89 e5             	mov    %rsp,%rbp
   8:	48 83 ec 20          	sub    $0x20,%rsp
   c:	48 89 7d f8          	mov    %rdi,-0x8(%rbp)
  10:	48 89 75 f0          	mov    %rsi,-0x10(%rbp)
  14:	48 89 55 e8          	mov    %rdx,-0x18(%rbp)
  18:	48 8b 55 f0          	mov    -0x10(%rbp),%rdx
  1c:	48 8b 45 f8          	mov    -0x8(%rbp),%rax
  20:	48 89 d6             	mov    %rdx,%rsi
  23:	48 89 c7             	mov    %rax,%rdi
  26:	e8 00 00 00 00       	call   2b <_ZStplRKSt15_Deque_iteratorIiRiPiEl+0x2b>
  2b:	48 8b 55 e8          	mov    -0x18(%rbp),%rdx
  2f:	48 8b 45 f8          	mov    -0x8(%rbp),%rax
  33:	48 89 d6             	mov    %rdx,%rsi
  36:	48 89 c7             	mov    %rax,%rdi
  39:	e8 00 00 00 00       	call   3e <_ZStplRKSt15_Deque_iteratorIiRiPiEl+0x3e>
  3e:	90                   	nop
  3f:	48 8b 45 f8          	mov    -0x8(%rbp),%rax
  43:	c9                   	leave  
  44:	c3                   	ret    

Disassembly of section .text._ZSt22__uninitialized_move_aISt15_Deque_iteratorIiRiPiES3_SaIiEET0_T_S6_S5_RT1_:

0000000000000000 <_ZSt22__uninitialized_move_aISt15_Deque_iteratorIiRiPiES3_SaIiEET0_T_S6_S5_RT1_>:
   0:	f3 0f 1e fa          	endbr64 
   4:	55                   	push   %rbp
   5:	48 89 e5             	mov    %rsp,%rbp
   8:	48 81 ec e0 00 00 00 	sub    $0xe0,%rsp
   f:	48 89 bd 48 ff ff ff 	mov    %rdi,-0xb8(%rbp)
  16:	48 89 b5 40 ff ff ff 	mov    %rsi,-0xc0(%rbp)
  1d:	48 89 95 38 ff ff ff 	mov    %rdx,-0xc8(%rbp)
  24:	48 89 8d 30 ff ff ff 	mov    %rcx,-0xd0(%rbp)
  2b:	4c 89 85 28 ff ff ff 	mov    %r8,-0xd8(%rbp)
  32:	64 48 8b 04 25 28 00 	mov    %fs:0x28,%rax
  39:	00 00 
  3b:	48 89 45 f8          	mov    %rax,-0x8(%rbp)
  3f:	31 c0                	xor    %eax,%eax
  41:	48 8b 95 30 ff ff ff 	mov    -0xd0(%rbp),%rdx
  48:	48 8d 45 d0          	lea    -0x30(%rbp),%rax
  4c:	48 89 d6             	mov    %rdx,%rsi
  4f:	48 89 c7             	mov    %rax,%rdi
  52:	e8 00 00 00 00       	call   57 <_ZSt22__uninitialized_move_aISt15_Deque_iteratorIiRiPiES3_SaIiEET0_T_S6_S5_RT1_+0x57>
  57:	48 8b 95 38 ff ff ff 	mov    -0xc8(%rbp),%rdx
  5e:	48 8d 45 90          	lea    -0x70(%rbp),%rax
  62:	48 89 d6             	mov    %rdx,%rsi
  65:	48 89 c7             	mov    %rax,%rdi
  68:	e8 00 00 00 00       	call   6d <_ZSt22__uninitialized_move_aISt15_Deque_iteratorIiRiPiES3_SaIiEET0_T_S6_S5_RT1_+0x6d>
  6d:	48 8d 45 b0          	lea    -0x50(%rbp),%rax
  71:	48 8d 55 90          	lea    -0x70(%rbp),%rdx
  75:	48 89 d6             	mov    %rdx,%rsi
  78:	48 89 c7             	mov    %rax,%rdi
  7b:	e8 00 00 00 00       	call   80 <_ZSt22__uninitialized_move_aISt15_Deque_iteratorIiRiPiES3_SaIiEET0_T_S6_S5_RT1_+0x80>
  80:	48 8b 95 40 ff ff ff 	mov    -0xc0(%rbp),%rdx
  87:	48 8d 85 50 ff ff ff 	lea    -0xb0(%rbp),%rax
  8e:	48 89 d6             	mov    %rdx,%rsi
  91:	48 89 c7             	mov    %rax,%rdi
  94:	e8 00 00 00 00       	call   99 <_ZSt22__uninitialized_move_aISt15_Deque_iteratorIiRiPiES3_SaIiEET0_T_S6_S5_RT1_+0x99>
  99:	48 8d 85 70 ff ff ff 	lea    -0x90(%rbp),%rax
  a0:	48 8d 95 50 ff ff ff 	lea    -0xb0(%rbp),%rdx
  a7:	48 89 d6             	mov    %rdx,%rsi
  aa:	48 89 c7             	mov    %rax,%rdi
  ad:	e8 00 00 00 00       	call   b2 <_ZSt22__uninitialized_move_aISt15_Deque_iteratorIiRiPiES3_SaIiEET0_T_S6_S5_RT1_+0xb2>
  b2:	48 8b 85 48 ff ff ff 	mov    -0xb8(%rbp),%rax
  b9:	48 8b bd 28 ff ff ff 	mov    -0xd8(%rbp),%rdi
  c0:	48 8d 4d d0          	lea    -0x30(%rbp),%rcx
  c4:	48 8d 55 b0          	lea    -0x50(%rbp),%rdx
  c8:	48 8d b5 70 ff ff ff 	lea    -0x90(%rbp),%rsi
  cf:	49 89 f8             	mov    %rdi,%r8
  d2:	48 89 c7             	mov    %rax,%rdi
  d5:	e8 00 00 00 00       	call   da <_ZSt22__uninitialized_move_aISt15_Deque_iteratorIiRiPiES3_SaIiEET0_T_S6_S5_RT1_+0xda>
  da:	48 8b 45 f8          	mov    -0x8(%rbp),%rax
  de:	64 48 2b 04 25 28 00 	sub    %fs:0x28,%rax
  e5:	00 00 
  e7:	74 05                	je     ee <_ZSt22__uninitialized_move_aISt15_Deque_iteratorIiRiPiES3_SaIiEET0_T_S6_S5_RT1_+0xee>
  e9:	e8 00 00 00 00       	call   ee <_ZSt22__uninitialized_move_aISt15_Deque_iteratorIiRiPiES3_SaIiEET0_T_S6_S5_RT1_+0xee>
  ee:	48 8b 85 48 ff ff ff 	mov    -0xb8(%rbp),%rax
  f5:	c9                   	leave  
  f6:	c3                   	ret    

Disassembly of section .text._ZSt4moveISt15_Deque_iteratorIiRiPiES3_ET0_T_S5_S4_:

0000000000000000 <_ZSt4moveISt15_Deque_iteratorIiRiPiES3_ET0_T_S5_S4_>:
   0:	f3 0f 1e fa          	endbr64 
   4:	55                   	push   %rbp
   5:	48 89 e5             	mov    %rsp,%rbp
   8:	48 81 ec d0 00 00 00 	sub    $0xd0,%rsp
   f:	48 89 bd 48 ff ff ff 	mov    %rdi,-0xb8(%rbp)
  16:	48 89 b5 40 ff ff ff 	mov    %rsi,-0xc0(%rbp)
  1d:	48 89 95 38 ff ff ff 	mov    %rdx,-0xc8(%rbp)
  24:	48 89 8d 30 ff ff ff 	mov    %rcx,-0xd0(%rbp)
  2b:	64 48 8b 04 25 28 00 	mov    %fs:0x28,%rax
  32:	00 00 
  34:	48 89 45 f8          	mov    %rax,-0x8(%rbp)
  38:	31 c0                	xor    %eax,%eax
  3a:	48 8b 95 30 ff ff ff 	mov    -0xd0(%rbp),%rdx
  41:	48 8d 45 d0          	lea    -0x30(%rbp),%rax
  45:	48 89 d6             	mov    %rdx,%rsi
  48:	48 89 c7             	mov    %rax,%rdi
  4b:	e8 00 00 00 00       	call   50 <_ZSt4moveISt15_Deque_iteratorIiRiPiES3_ET0_T_S5_S4_+0x50>
  50:	48 8b 95 38 ff ff ff 	mov    -0xc8(%rbp),%rdx
  57:	48 8d 45 90          	lea    -0x70(%rbp),%rax
  5b:	48 89 d6             	mov    %rdx,%rsi
  5e:	48 89 c7             	mov    %rax,%rdi
  61:	e8 00 00 00 00       	call   66 <_ZSt4moveISt15_Deque_iteratorIiRiPiES3_ET0_T_S5_S4_+0x66>
  66:	48 8d 45 b0          	lea    -0x50(%rbp),%rax
  6a:	48 8d 55 90          	lea    -0x70(%rbp),%rdx
  6e:	48 89 d6             	mov    %rdx,%rsi
  71:	48 89 c7             	mov    %rax,%rdi
  74:	e8 00 00 00 00       	call   79 <_ZSt4moveISt15_Deque_iteratorIiRiPiES3_ET0_T_S5_S4_+0x79>
  79:	48 8b 95 40 ff ff ff 	mov    -0xc0(%rbp),%rdx
  80:	48 8d 85 50 ff ff ff 	lea    -0xb0(%rbp),%rax
  87:	48 89 d6             	mov    %rdx,%rsi
  8a:	48 89 c7             	mov    %rax,%rdi
  8d:	e8 00 00 00 00       	call   92 <_ZSt4moveISt15_Deque_iteratorIiRiPiES3_ET0_T_S5_S4_+0x92>
  92:	48 8d 85 70 ff ff ff 	lea    -0x90(%rbp),%rax
  99:	48 8d 95 50 ff ff ff 	lea    -0xb0(%rbp),%rdx
  a0:	48 89 d6             	mov    %rdx,%rsi
  a3:	48 89 c7             	mov    %rax,%rdi
  a6:	e8 00 00 00 00       	call   ab <_ZSt4moveISt15_Deque_iteratorIiRiPiES3_ET0_T_S5_S4_+0xab>
  ab:	48 8b 85 48 ff ff ff 	mov    -0xb8(%rbp),%rax
  b2:	48 8d 4d d0          	lea    -0x30(%rbp),%rcx
  b6:	48 8d 55 b0          	lea    -0x50(%rbp),%rdx
  ba:	48 8d b5 70 ff ff ff 	lea    -0x90(%rbp),%rsi
  c1:	48 89 c7             	mov    %rax,%rdi
  c4:	e8 00 00 00 00       	call   c9 <_ZSt4moveISt15_Deque_iteratorIiRiPiES3_ET0_T_S5_S4_+0xc9>
  c9:	48 8b 45 f8          	mov    -0x8(%rbp),%rax
  cd:	64 48 2b 04 25 28 00 	sub    %fs:0x28,%rax
  d4:	00 00 
  d6:	74 05                	je     dd <_ZSt4moveISt15_Deque_iteratorIiRiPiES3_ET0_T_S5_S4_+0xdd>
  d8:	e8 00 00 00 00       	call   dd <_ZSt4moveISt15_Deque_iteratorIiRiPiES3_ET0_T_S5_S4_+0xdd>
  dd:	48 8b 85 48 ff ff ff 	mov    -0xb8(%rbp),%rax
  e4:	c9                   	leave  
  e5:	c3                   	ret    

Disassembly of section .text._ZSt7advanceISt15_Deque_iteratorIiRKiPS1_ElEvRT_T0_:

0000000000000000 <_ZSt7advanceISt15_Deque_iteratorIiRKiPS1_ElEvRT_T0_>:
   0:	f3 0f 1e fa          	endbr64 
   4:	55                   	push   %rbp
   5:	48 89 e5             	mov    %rsp,%rbp
   8:	48 83 ec 20          	sub    $0x20,%rsp
   c:	48 89 7d e8          	mov    %rdi,-0x18(%rbp)
  10:	48 89 75 e0          	mov    %rsi,-0x20(%rbp)
  14:	48 8b 45 e0          	mov    -0x20(%rbp),%rax
  18:	48 89 45 f8          	mov    %rax,-0x8(%rbp)
  1c:	48 8b 45 e8          	mov    -0x18(%rbp),%rax
  20:	48 89 c7             	mov    %rax,%rdi
  23:	e8 00 00 00 00       	call   28 <_ZSt7advanceISt15_Deque_iteratorIiRKiPS1_ElEvRT_T0_+0x28>
  28:	48 8b 55 f8          	mov    -0x8(%rbp),%rdx
  2c:	48 8b 45 e8          	mov    -0x18(%rbp),%rax
  30:	48 89 d6             	mov    %rdx,%rsi
  33:	48 89 c7             	mov    %rax,%rdi
  36:	e8 00 00 00 00       	call   3b <_ZSt7advanceISt15_Deque_iteratorIiRKiPS1_ElEvRT_T0_+0x3b>
  3b:	90                   	nop
  3c:	c9                   	leave  
  3d:	c3                   	ret    

Disassembly of section .text._ZSt25__uninitialized_move_copyISt15_Deque_iteratorIiRiPiES0_IiRKiPS4_ES3_SaIiEET1_T_SA_T0_SB_S9_RT2_:

0000000000000000 <_ZSt25__uninitialized_move_copyISt15_Deque_iteratorIiRiPiES0_IiRKiPS4_ES3_SaIiEET1_T_SA_T0_SB_S9_RT2_>:
   0:	f3 0f 1e fa          	endbr64 
   4:	55                   	push   %rbp
   5:	48 89 e5             	mov    %rsp,%rbp
   8:	53                   	push   %rbx
   9:	48 81 ec d8 00 00 00 	sub    $0xd8,%rsp
  10:	48 89 bd 58 ff ff ff 	mov    %rdi,-0xa8(%rbp)
  17:	48 89 b5 50 ff ff ff 	mov    %rsi,-0xb0(%rbp)
  1e:	48 89 95 48 ff ff ff 	mov    %rdx,-0xb8(%rbp)
  25:	48 89 8d 40 ff ff ff 	mov    %rcx,-0xc0(%rbp)
  2c:	4c 89 85 38 ff ff ff 	mov    %r8,-0xc8(%rbp)
  33:	4c 89 8d 30 ff ff ff 	mov    %r9,-0xd0(%rbp)
  3a:	48 8b 45 10          	mov    0x10(%rbp),%rax
  3e:	48 89 85 28 ff ff ff 	mov    %rax,-0xd8(%rbp)
  45:	64 48 8b 04 25 28 00 	mov    %fs:0x28,%rax
  4c:	00 00 
  4e:	48 89 45 e8          	mov    %rax,-0x18(%rbp)
  52:	31 c0                	xor    %eax,%eax
  54:	48 8b 95 30 ff ff ff 	mov    -0xd0(%rbp),%rdx
  5b:	48 8d 45 c0          	lea    -0x40(%rbp),%rax
  5f:	48 89 d6             	mov    %rdx,%rsi
  62:	48 89 c7             	mov    %rax,%rdi
  65:	e8 00 00 00 00       	call   6a <_ZSt25__uninitialized_move_copyISt15_Deque_iteratorIiRiPiES0_IiRKiPS4_ES3_SaIiEET1_T_SA_T0_SB_S9_RT2_+0x6a>
  6a:	48 8b 95 48 ff ff ff 	mov    -0xb8(%rbp),%rdx
  71:	48 8d 45 a0          	lea    -0x60(%rbp),%rax
  75:	48 89 d6             	mov    %rdx,%rsi
  78:	48 89 c7             	mov    %rax,%rdi
  7b:	e8 00 00 00 00       	call   80 <_ZSt25__uninitialized_move_copyISt15_Deque_iteratorIiRiPiES0_IiRKiPS4_ES3_SaIiEET1_T_SA_T0_SB_S9_RT2_+0x80>
  80:	48 8b 95 50 ff ff ff 	mov    -0xb0(%rbp),%rdx
  87:	48 8d 45 80          	lea    -0x80(%rbp),%rax
  8b:	48 89 d6             	mov    %rdx,%rsi
  8e:	48 89 c7             	mov    %rax,%rdi
  91:	e8 00 00 00 00       	call   96 <_ZSt25__uninitialized_move_copyISt15_Deque_iteratorIiRiPiES0_IiRKiPS4_ES3_SaIiEET1_T_SA_T0_SB_S9_RT2_+0x96>
  96:	48 8d 85 60 ff ff ff 	lea    -0xa0(%rbp),%rax
  9d:	48 8b bd 28 ff ff ff 	mov    -0xd8(%rbp),%rdi
  a4:	48 8d 4d c0          	lea    -0x40(%rbp),%rcx
  a8:	48 8d 55 a0          	lea    -0x60(%rbp),%rdx
  ac:	48 8d 75 80          	lea    -0x80(%rbp),%rsi
  b0:	49 89 f8             	mov    %rdi,%r8
  b3:	48 89 c7             	mov    %rax,%rdi
  b6:	e8 00 00 00 00       	call   bb <_ZSt25__uninitialized_move_copyISt15_Deque_iteratorIiRiPiES0_IiRKiPS4_ES3_SaIiEET1_T_SA_T0_SB_S9_RT2_+0xbb>
  bb:	48 8d 95 60 ff ff ff 	lea    -0xa0(%rbp),%rdx
  c2:	48 8d 45 c0          	lea    -0x40(%rbp),%rax
  c6:	48 89 d6             	mov    %rdx,%rsi
  c9:	48 89 c7             	mov    %rax,%rdi
  cc:	e8 00 00 00 00       	call   d1 <_ZSt25__uninitialized_move_copyISt15_Deque_iteratorIiRiPiES0_IiRKiPS4_ES3_SaIiEET1_T_SA_T0_SB_S9_RT2_+0xd1>
  d1:	48 8b 95 38 ff ff ff 	mov    -0xc8(%rbp),%rdx
  d8:	48 8d 45 a0          	lea    -0x60(%rbp),%rax
  dc:	48 89 d6             	mov    %rdx,%rsi
  df:	48 89 c7             	mov    %rax,%rdi
  e2:	e8 00 00 00 00       	call   e7 <_ZSt25__uninitialized_move_copyISt15_Deque_iteratorIiRiPiES0_IiRKiPS4_ES3_SaIiEET1_T_SA_T0_SB_S9_RT2_+0xe7>
  e7:	48 8b 95 40 ff ff ff 	mov    -0xc0(%rbp),%rdx
  ee:	48 8d 45 80          	lea    -0x80(%rbp),%rax
  f2:	48 89 d6             	mov    %rdx,%rsi
  f5:	48 89 c7             	mov    %rax,%rdi
  f8:	e8 00 00 00 00       	call   fd <_ZSt25__uninitialized_move_copyISt15_Deque_iteratorIiRiPiES0_IiRKiPS4_ES3_SaIiEET1_T_SA_T0_SB_S9_RT2_+0xfd>
  fd:	48 8b 85 58 ff ff ff 	mov    -0xa8(%rbp),%rax
 104:	48 8b bd 28 ff ff ff 	mov    -0xd8(%rbp),%rdi
 10b:	48 8d 4d c0          	lea    -0x40(%rbp),%rcx
 10f:	48 8d 55 a0          	lea    -0x60(%rbp),%rdx
 113:	48 8d 75 80          	lea    -0x80(%rbp),%rsi
 117:	49 89 f8             	mov    %rdi,%r8
 11a:	48 89 c7             	mov    %rax,%rdi
 11d:	e8 00 00 00 00       	call   122 <_ZSt25__uninitialized_move_copyISt15_Deque_iteratorIiRiPiES0_IiRKiPS4_ES3_SaIiEET1_T_SA_T0_SB_S9_RT2_+0x122>
 122:	eb 6e                	jmp    192 <_ZSt25__uninitialized_move_copyISt15_Deque_iteratorIiRiPiES0_IiRKiPS4_ES3_SaIiEET1_T_SA_T0_SB_S9_RT2_+0x192>
 124:	f3 0f 1e fa          	endbr64 
 128:	48 89 c7             	mov    %rax,%rdi
 12b:	e8 00 00 00 00       	call   130 <_ZSt25__uninitialized_move_copyISt15_Deque_iteratorIiRiPiES0_IiRKiPS4_ES3_SaIiEET1_T_SA_T0_SB_S9_RT2_+0x130>
 130:	48 8d 95 60 ff ff ff 	lea    -0xa0(%rbp),%rdx
 137:	48 8d 45 c0          	lea    -0x40(%rbp),%rax
 13b:	48 89 d6             	mov    %rdx,%rsi
 13e:	48 89 c7             	mov    %rax,%rdi
 141:	e8 00 00 00 00       	call   146 <_ZSt25__uninitialized_move_copyISt15_Deque_iteratorIiRiPiES0_IiRKiPS4_ES3_SaIiEET1_T_SA_T0_SB_S9_RT2_+0x146>
 146:	48 8b 95 30 ff ff ff 	mov    -0xd0(%rbp),%rdx
 14d:	48 8d 45 a0          	lea    -0x60(%rbp),%rax
 151:	48 89 d6             	mov    %rdx,%rsi
 154:	48 89 c7             	mov    %rax,%rdi
 157:	e8 00 00 00 00       	call   15c <_ZSt25__uninitialized_move_copyISt15_Deque_iteratorIiRiPiES0_IiRKiPS4_ES3_SaIiEET1_T_SA_T0_SB_S9_RT2_+0x15c>
 15c:	48 8b 95 28 ff ff ff 	mov    -0xd8(%rbp),%rdx
 163:	48 8d 4d c0          	lea    -0x40(%rbp),%rcx
 167:	48 8d 45 a0          	lea    -0x60(%rbp),%rax
 16b:	48 89 ce             	mov    %rcx,%rsi
 16e:	48 89 c7             	mov    %rax,%rdi
 171:	e8 00 00 00 00       	call   176 <_ZSt25__uninitialized_move_copyISt15_Deque_iteratorIiRiPiES0_IiRKiPS4_ES3_SaIiEET1_T_SA_T0_SB_S9_RT2_+0x176>
 176:	e8 00 00 00 00       	call   17b <_ZSt25__uninitialized_move_copyISt15_Deque_iteratorIiRiPiES0_IiRKiPS4_ES3_SaIiEET1_T_SA_T0_SB_S9_RT2_+0x17b>
 17b:	f3 0f 1e fa          	endbr64 
 17f:	48 89 c3             	mov    %rax,%rbx
 182:	e8 00 00 00 00       	call   187 <_ZSt25__uninitialized_move_copyISt15_Deque_iteratorIiRiPiES0_IiRKiPS4_ES3_SaIiEET1_T_SA_T0_SB_S9_RT2_+0x187>
 187:	48 89 d8             	mov    %rbx,%rax
 18a:	48 89 c7             	mov    %rax,%rdi
 18d:	e8 00 00 00 00       	call   192 <_ZSt25__uninitialized_move_copyISt15_Deque_iteratorIiRiPiES0_IiRKiPS4_ES3_SaIiEET1_T_SA_T0_SB_S9_RT2_+0x192>
 192:	48 8b 45 e8          	mov    -0x18(%rbp),%rax
 196:	64 48 2b 04 25 28 00 	sub    %fs:0x28,%rax
 19d:	00 00 
 19f:	74 05                	je     1a6 <_ZSt25__uninitialized_move_copyISt15_Deque_iteratorIiRiPiES0_IiRKiPS4_ES3_SaIiEET1_T_SA_T0_SB_S9_RT2_+0x1a6>
 1a1:	e8 00 00 00 00       	call   1a6 <_ZSt25__uninitialized_move_copyISt15_Deque_iteratorIiRiPiES0_IiRKiPS4_ES3_SaIiEET1_T_SA_T0_SB_S9_RT2_+0x1a6>
 1a6:	48 8b 85 58 ff ff ff 	mov    -0xa8(%rbp),%rax
 1ad:	48 8b 5d f8          	mov    -0x8(%rbp),%rbx
 1b1:	c9                   	leave  
 1b2:	c3                   	ret    

Disassembly of section .text._ZSt13move_backwardISt15_Deque_iteratorIiRiPiES3_ET0_T_S5_S4_:

0000000000000000 <_ZSt13move_backwardISt15_Deque_iteratorIiRiPiES3_ET0_T_S5_S4_>:
   0:	f3 0f 1e fa          	endbr64 
   4:	55                   	push   %rbp
   5:	48 89 e5             	mov    %rsp,%rbp
   8:	48 81 ec d0 00 00 00 	sub    $0xd0,%rsp
   f:	48 89 bd 48 ff ff ff 	mov    %rdi,-0xb8(%rbp)
  16:	48 89 b5 40 ff ff ff 	mov    %rsi,-0xc0(%rbp)
  1d:	48 89 95 38 ff ff ff 	mov    %rdx,-0xc8(%rbp)
  24:	48 89 8d 30 ff ff ff 	mov    %rcx,-0xd0(%rbp)
  2b:	64 48 8b 04 25 28 00 	mov    %fs:0x28,%rax
  32:	00 00 
  34:	48 89 45 f8          	mov    %rax,-0x8(%rbp)
  38:	31 c0                	xor    %eax,%eax
  3a:	48 8b 95 30 ff ff ff 	mov    -0xd0(%rbp),%rdx
  41:	48 8d 45 d0          	lea    -0x30(%rbp),%rax
  45:	48 89 d6             	mov    %rdx,%rsi
  48:	48 89 c7             	mov    %rax,%rdi
  4b:	e8 00 00 00 00       	call   50 <_ZSt13move_backwardISt15_Deque_iteratorIiRiPiES3_ET0_T_S5_S4_+0x50>
  50:	48 8b 95 38 ff ff ff 	mov    -0xc8(%rbp),%rdx
  57:	48 8d 45 90          	lea    -0x70(%rbp),%rax
  5b:	48 89 d6             	mov    %rdx,%rsi
  5e:	48 89 c7             	mov    %rax,%rdi
  61:	e8 00 00 00 00       	call   66 <_ZSt13move_backwardISt15_Deque_iteratorIiRiPiES3_ET0_T_S5_S4_+0x66>
  66:	48 8d 45 b0          	lea    -0x50(%rbp),%rax
  6a:	48 8d 55 90          	lea    -0x70(%rbp),%rdx
  6e:	48 89 d6             	mov    %rdx,%rsi
  71:	48 89 c7             	mov    %rax,%rdi
  74:	e8 00 00 00 00       	call   79 <_ZSt13move_backwardISt15_Deque_iteratorIiRiPiES3_ET0_T_S5_S4_+0x79>
  79:	48 8b 95 40 ff ff ff 	mov    -0xc0(%rbp),%rdx
  80:	48 8d 85 50 ff ff ff 	lea    -0xb0(%rbp),%rax
  87:	48 89 d6             	mov    %rdx,%rsi
  8a:	48 89 c7             	mov    %rax,%rdi
  8d:	e8 00 00 00 00       	call   92 <_ZSt13move_backwardISt15_Deque_iteratorIiRiPiES3_ET0_T_S5_S4_+0x92>
  92:	48 8d 85 70 ff ff ff 	lea    -0x90(%rbp),%rax
  99:	48 8d 95 50 ff ff ff 	lea    -0xb0(%rbp),%rdx
  a0:	48 89 d6             	mov    %rdx,%rsi
  a3:	48 89 c7             	mov    %rax,%rdi
  a6:	e8 00 00 00 00       	call   ab <_ZSt13move_backwardISt15_Deque_iteratorIiRiPiES3_ET0_T_S5_S4_+0xab>
  ab:	48 8b 85 48 ff ff ff 	mov    -0xb8(%rbp),%rax
  b2:	48 8d 4d d0          	lea    -0x30(%rbp),%rcx
  b6:	48 8d 55 b0          	lea    -0x50(%rbp),%rdx
  ba:	48 8d b5 70 ff ff ff 	lea    -0x90(%rbp),%rsi
  c1:	48 89 c7             	mov    %rax,%rdi
  c4:	e8 00 00 00 00       	call   c9 <_ZSt13move_backwardISt15_Deque_iteratorIiRiPiES3_ET0_T_S5_S4_+0xc9>
  c9:	48 8b 45 f8          	mov    -0x8(%rbp),%rax
  cd:	64 48 2b 04 25 28 00 	sub    %fs:0x28,%rax
  d4:	00 00 
  d6:	74 05                	je     dd <_ZSt13move_backwardISt15_Deque_iteratorIiRiPiES3_ET0_T_S5_S4_+0xdd>
  d8:	e8 00 00 00 00       	call   dd <_ZSt13move_backwardISt15_Deque_iteratorIiRiPiES3_ET0_T_S5_S4_+0xdd>
  dd:	48 8b 85 48 ff ff ff 	mov    -0xb8(%rbp),%rax
  e4:	c9                   	leave  
  e5:	c3                   	ret    

Disassembly of section .text._ZSt25__uninitialized_copy_moveISt15_Deque_iteratorIiRKiPS1_ES0_IiRiPiES7_SaIiEET1_T_SA_T0_SB_S9_RT2_:

0000000000000000 <_ZSt25__uninitialized_copy_moveISt15_Deque_iteratorIiRKiPS1_ES0_IiRiPiES7_SaIiEET1_T_SA_T0_SB_S9_RT2_>:
   0:	f3 0f 1e fa          	endbr64 
   4:	55                   	push   %rbp
   5:	48 89 e5             	mov    %rsp,%rbp
   8:	53                   	push   %rbx
   9:	48 81 ec d8 00 00 00 	sub    $0xd8,%rsp
  10:	48 89 bd 58 ff ff ff 	mov    %rdi,-0xa8(%rbp)
  17:	48 89 b5 50 ff ff ff 	mov    %rsi,-0xb0(%rbp)
  1e:	48 89 95 48 ff ff ff 	mov    %rdx,-0xb8(%rbp)
  25:	48 89 8d 40 ff ff ff 	mov    %rcx,-0xc0(%rbp)
  2c:	4c 89 85 38 ff ff ff 	mov    %r8,-0xc8(%rbp)
  33:	4c 89 8d 30 ff ff ff 	mov    %r9,-0xd0(%rbp)
  3a:	48 8b 45 10          	mov    0x10(%rbp),%rax
  3e:	48 89 85 28 ff ff ff 	mov    %rax,-0xd8(%rbp)
  45:	64 48 8b 04 25 28 00 	mov    %fs:0x28,%rax
  4c:	00 00 
  4e:	48 89 45 e8          	mov    %rax,-0x18(%rbp)
  52:	31 c0                	xor    %eax,%eax
  54:	48 8b 95 30 ff ff ff 	mov    -0xd0(%rbp),%rdx
  5b:	48 8d 45 c0          	lea    -0x40(%rbp),%rax
  5f:	48 89 d6             	mov    %rdx,%rsi
  62:	48 89 c7             	mov    %rax,%rdi
  65:	e8 00 00 00 00       	call   6a <_ZSt25__uninitialized_copy_moveISt15_Deque_iteratorIiRKiPS1_ES0_IiRiPiES7_SaIiEET1_T_SA_T0_SB_S9_RT2_+0x6a>
  6a:	48 8b 95 48 ff ff ff 	mov    -0xb8(%rbp),%rdx
  71:	48 8d 45 a0          	lea    -0x60(%rbp),%rax
  75:	48 89 d6             	mov    %rdx,%rsi
  78:	48 89 c7             	mov    %rax,%rdi
  7b:	e8 00 00 00 00       	call   80 <_ZSt25__uninitialized_copy_moveISt15_Deque_iteratorIiRKiPS1_ES0_IiRiPiES7_SaIiEET1_T_SA_T0_SB_S9_RT2_+0x80>
  80:	48 8b 95 50 ff ff ff 	mov    -0xb0(%rbp),%rdx
  87:	48 8d 45 80          	lea    -0x80(%rbp),%rax
  8b:	48 89 d6             	mov    %rdx,%rsi
  8e:	48 89 c7             	mov    %rax,%rdi
  91:	e8 00 00 00 00       	call   96 <_ZSt25__uninitialized_copy_moveISt15_Deque_iteratorIiRKiPS1_ES0_IiRiPiES7_SaIiEET1_T_SA_T0_SB_S9_RT2_+0x96>
  96:	48 8d 85 60 ff ff ff 	lea    -0xa0(%rbp),%rax
  9d:	48 8b bd 28 ff ff ff 	mov    -0xd8(%rbp),%rdi
  a4:	48 8d 4d c0          	lea    -0x40(%rbp),%rcx
  a8:	48 8d 55 a0          	lea    -0x60(%rbp),%rdx
  ac:	48 8d 75 80          	lea    -0x80(%rbp),%rsi
  b0:	49 89 f8             	mov    %rdi,%r8
  b3:	48 89 c7             	mov    %rax,%rdi
  b6:	e8 00 00 00 00       	call   bb <_ZSt25__uninitialized_copy_moveISt15_Deque_iteratorIiRKiPS1_ES0_IiRiPiES7_SaIiEET1_T_SA_T0_SB_S9_RT2_+0xbb>
  bb:	48 8d 95 60 ff ff ff 	lea    -0xa0(%rbp),%rdx
  c2:	48 8d 45 c0          	lea    -0x40(%rbp),%rax
  c6:	48 89 d6             	mov    %rdx,%rsi
  c9:	48 89 c7             	mov    %rax,%rdi
  cc:	e8 00 00 00 00       	call   d1 <_ZSt25__uninitialized_copy_moveISt15_Deque_iteratorIiRKiPS1_ES0_IiRiPiES7_SaIiEET1_T_SA_T0_SB_S9_RT2_+0xd1>
  d1:	48 8b 95 38 ff ff ff 	mov    -0xc8(%rbp),%rdx
  d8:	48 8d 45 a0          	lea    -0x60(%rbp),%rax
  dc:	48 89 d6             	mov    %rdx,%rsi
  df:	48 89 c7             	mov    %rax,%rdi
  e2:	e8 00 00 00 00       	call   e7 <_ZSt25__uninitialized_copy_moveISt15_Deque_iteratorIiRKiPS1_ES0_IiRiPiES7_SaIiEET1_T_SA_T0_SB_S9_RT2_+0xe7>
  e7:	48 8b 95 40 ff ff ff 	mov    -0xc0(%rbp),%rdx
  ee:	48 8d 45 80          	lea    -0x80(%rbp),%rax
  f2:	48 89 d6             	mov    %rdx,%rsi
  f5:	48 89 c7             	mov    %rax,%rdi
  f8:	e8 00 00 00 00       	call   fd <_ZSt25__uninitialized_copy_moveISt15_Deque_iteratorIiRKiPS1_ES0_IiRiPiES7_SaIiEET1_T_SA_T0_SB_S9_RT2_+0xfd>
  fd:	48 8b 85 58 ff ff ff 	mov    -0xa8(%rbp),%rax
 104:	48 8b bd 28 ff ff ff 	mov    -0xd8(%rbp),%rdi
 10b:	48 8d 4d c0          	lea    -0x40(%rbp),%rcx
 10f:	48 8d 55 a0          	lea    -0x60(%rbp),%rdx
 113:	48 8d 75 80          	lea    -0x80(%rbp),%rsi
 117:	49 89 f8             	mov    %rdi,%r8
 11a:	48 89 c7             	mov    %rax,%rdi
 11d:	e8 00 00 00 00       	call   122 <_ZSt25__uninitialized_copy_moveISt15_Deque_iteratorIiRKiPS1_ES0_IiRiPiES7_SaIiEET1_T_SA_T0_SB_S9_RT2_+0x122>
 122:	eb 6e                	jmp    192 <_ZSt25__uninitialized_copy_moveISt15_Deque_iteratorIiRKiPS1_ES0_IiRiPiES7_SaIiEET1_T_SA_T0_SB_S9_RT2_+0x192>
 124:	f3 0f 1e fa          	endbr64 
 128:	48 89 c7             	mov    %rax,%rdi
 12b:	e8 00 00 00 00       	call   130 <_ZSt25__uninitialized_copy_moveISt15_Deque_iteratorIiRKiPS1_ES0_IiRiPiES7_SaIiEET1_T_SA_T0_SB_S9_RT2_+0x130>
 130:	48 8d 95 60 ff ff ff 	lea    -0xa0(%rbp),%rdx
 137:	48 8d 45 c0          	lea    -0x40(%rbp),%rax
 13b:	48 89 d6             	mov    %rdx,%rsi
 13e:	48 89 c7             	mov    %rax,%rdi
 141:	e8 00 00 00 00       	call   146 <_ZSt25__uninitialized_copy_moveISt15_Deque_iteratorIiRKiPS1_ES0_IiRiPiES7_SaIiEET1_T_SA_T0_SB_S9_RT2_+0x146>
 146:	48 8b 95 30 ff ff ff 	mov    -0xd0(%rbp),%rdx
 14d:	48 8d 45 a0          	lea    -0x60(%rbp),%rax
 151:	48 89 d6             	mov    %rdx,%rsi
 154:	48 89 c7             	mov    %rax,%rdi
 157:	e8 00 00 00 00       	call   15c <_ZSt25__uninitialized_copy_moveISt15_Deque_iteratorIiRKiPS1_ES0_IiRiPiES7_SaIiEET1_T_SA_T0_SB_S9_RT2_+0x15c>
 15c:	48 8b 95 28 ff ff ff 	mov    -0xd8(%rbp),%rdx
 163:	48 8d 4d c0          	lea    -0x40(%rbp),%rcx
 167:	48 8d 45 a0          	lea    -0x60(%rbp),%rax
 16b:	48 89 ce             	mov    %rcx,%rsi
 16e:	48 89 c7             	mov    %rax,%rdi
 171:	e8 00 00 00 00       	call   176 <_ZSt25__uninitialized_copy_moveISt15_Deque_iteratorIiRKiPS1_ES0_IiRiPiES7_SaIiEET1_T_SA_T0_SB_S9_RT2_+0x176>
 176:	e8 00 00 00 00       	call   17b <_ZSt25__uninitialized_copy_moveISt15_Deque_iteratorIiRKiPS1_ES0_IiRiPiES7_SaIiEET1_T_SA_T0_SB_S9_RT2_+0x17b>
 17b:	f3 0f 1e fa          	endbr64 
 17f:	48 89 c3             	mov    %rax,%rbx
 182:	e8 00 00 00 00       	call   187 <_ZSt25__uninitialized_copy_moveISt15_Deque_iteratorIiRKiPS1_ES0_IiRiPiES7_SaIiEET1_T_SA_T0_SB_S9_RT2_+0x187>
 187:	48 89 d8             	mov    %rbx,%rax
 18a:	48 89 c7             	mov    %rax,%rdi
 18d:	e8 00 00 00 00       	call   192 <_ZSt25__uninitialized_copy_moveISt15_Deque_iteratorIiRKiPS1_ES0_IiRiPiES7_SaIiEET1_T_SA_T0_SB_S9_RT2_+0x192>
 192:	48 8b 45 e8          	mov    -0x18(%rbp),%rax
 196:	64 48 2b 04 25 28 00 	sub    %fs:0x28,%rax
 19d:	00 00 
 19f:	74 05                	je     1a6 <_ZSt25__uninitialized_copy_moveISt15_Deque_iteratorIiRKiPS1_ES0_IiRiPiES7_SaIiEET1_T_SA_T0_SB_S9_RT2_+0x1a6>
 1a1:	e8 00 00 00 00       	call   1a6 <_ZSt25__uninitialized_copy_moveISt15_Deque_iteratorIiRKiPS1_ES0_IiRiPiES7_SaIiEET1_T_SA_T0_SB_S9_RT2_+0x1a6>
 1a6:	48 8b 85 58 ff ff ff 	mov    -0xa8(%rbp),%rax
 1ad:	48 8b 5d f8          	mov    -0x8(%rbp),%rbx
 1b1:	c9                   	leave  
 1b2:	c3                   	ret    

Disassembly of section .text._ZN9__gnu_cxx13new_allocatorIiEC2Ev:

0000000000000000 <_ZN9__gnu_cxx13new_allocatorIiEC1Ev>:
   0:	f3 0f 1e fa          	endbr64 
   4:	55                   	push   %rbp
   5:	48 89 e5             	mov    %rsp,%rbp
   8:	48 89 7d f8          	mov    %rdi,-0x8(%rbp)
   c:	90                   	nop
   d:	5d                   	pop    %rbp
   e:	c3                   	ret    

Disassembly of section .text._ZNSt15_Deque_iteratorIiRiPiEC2Ev:

0000000000000000 <_ZNSt15_Deque_iteratorIiRiPiEC1Ev>:
   0:	f3 0f 1e fa          	endbr64 
   4:	55                   	push   %rbp
   5:	48 89 e5             	mov    %rsp,%rbp
   8:	48 89 7d f8          	mov    %rdi,-0x8(%rbp)
   c:	48 8b 45 f8          	mov    -0x8(%rbp),%rax
  10:	48 c7 00 00 00 00 00 	movq   $0x0,(%rax)
  17:	48 8b 45 f8          	mov    -0x8(%rbp),%rax
  1b:	48 c7 40 08 00 00 00 	movq   $0x0,0x8(%rax)
  22:	00 
  23:	48 8b 45 f8          	mov    -0x8(%rbp),%rax
  27:	48 c7 40 10 00 00 00 	movq   $0x0,0x10(%rax)
  2e:	00 
  2f:	48 8b 45 f8          	mov    -0x8(%rbp),%rax
  33:	48 c7 40 18 00 00 00 	movq   $0x0,0x18(%rax)
  3a:	00 
  3b:	90                   	nop
  3c:	5d                   	pop    %rbp
  3d:	c3                   	ret    

Disassembly of section .text._ZNSt16allocator_traitsISaIPiEE8allocateERS1_m:

0000000000000000 <_ZNSt16allocator_traitsISaIPiEE8allocateERS1_m>:
   0:	f3 0f 1e fa          	endbr64 
   4:	55                   	push   %rbp
   5:	48 89 e5             	mov    %rsp,%rbp
   8:	48 83 ec 10          	sub    $0x10,%rsp
   c:	48 89 7d f8          	mov    %rdi,-0x8(%rbp)
  10:	48 89 75 f0          	mov    %rsi,-0x10(%rbp)
  14:	48 8b 4d f0          	mov    -0x10(%rbp),%rcx
  18:	48 8b 45 f8          	mov    -0x8(%rbp),%rax
  1c:	ba 00 00 00 00       	mov    $0x0,%edx
  21:	48 89 ce             	mov    %rcx,%rsi
  24:	48 89 c7             	mov    %rax,%rdi
  27:	e8 00 00 00 00       	call   2c <_ZNSt16allocator_traitsISaIPiEE8allocateERS1_m+0x2c>
  2c:	c9                   	leave  
  2d:	c3                   	ret    

Disassembly of section .text._ZNSt11_Deque_baseIiSaIiEE16_M_allocate_nodeEv:

0000000000000000 <_ZNSt11_Deque_baseIiSaIiEE16_M_allocate_nodeEv>:
   0:	f3 0f 1e fa          	endbr64 
   4:	55                   	push   %rbp
   5:	48 89 e5             	mov    %rsp,%rbp
   8:	48 83 ec 10          	sub    $0x10,%rsp
   c:	48 89 7d f8          	mov    %rdi,-0x8(%rbp)
  10:	bf 04 00 00 00       	mov    $0x4,%edi
  15:	e8 00 00 00 00       	call   1a <_ZNSt11_Deque_baseIiSaIiEE16_M_allocate_nodeEv+0x1a>
  1a:	48 89 c2             	mov    %rax,%rdx
  1d:	48 8b 45 f8          	mov    -0x8(%rbp),%rax
  21:	48 89 d6             	mov    %rdx,%rsi
  24:	48 89 c7             	mov    %rax,%rdi
  27:	e8 00 00 00 00       	call   2c <_ZNSt11_Deque_baseIiSaIiEE16_M_allocate_nodeEv+0x2c>
  2c:	c9                   	leave  
  2d:	c3                   	ret    

Disassembly of section .text._ZNSaIPiEC2IiEERKSaIT_E:

0000000000000000 <_ZNSaIPiEC1IiEERKSaIT_E>:
   0:	f3 0f 1e fa          	endbr64 
   4:	55                   	push   %rbp
   5:	48 89 e5             	mov    %rsp,%rbp
   8:	48 83 ec 10          	sub    $0x10,%rsp
   c:	48 89 7d f8          	mov    %rdi,-0x8(%rbp)
  10:	48 89 75 f0          	mov    %rsi,-0x10(%rbp)
  14:	48 8b 45 f8          	mov    -0x8(%rbp),%rax
  18:	48 89 c7             	mov    %rax,%rdi
  1b:	e8 00 00 00 00       	call   20 <_ZNSaIPiEC1IiEERKSaIT_E+0x20>
  20:	90                   	nop
  21:	c9                   	leave  
  22:	c3                   	ret    

Disassembly of section .text._ZN9__gnu_cxx13new_allocatorIPiED2Ev:

0000000000000000 <_ZN9__gnu_cxx13new_allocatorIPiED1Ev>:
   0:	f3 0f 1e fa          	endbr64 
   4:	55                   	push   %rbp
   5:	48 89 e5             	mov    %rsp,%rbp
   8:	48 89 7d f8          	mov    %rdi,-0x8(%rbp)
   c:	90                   	nop
   d:	5d                   	pop    %rbp
   e:	c3                   	ret    

Disassembly of section .text._ZN9__gnu_cxx13new_allocatorIPiE10deallocateEPS1_m:

0000000000000000 <_ZN9__gnu_cxx13new_allocatorIPiE10deallocateEPS1_m>:
   0:	f3 0f 1e fa          	endbr64 
   4:	55                   	push   %rbp
   5:	48 89 e5             	mov    %rsp,%rbp
   8:	48 83 ec 20          	sub    $0x20,%rsp
   c:	48 89 7d f8          	mov    %rdi,-0x8(%rbp)
  10:	48 89 75 f0          	mov    %rsi,-0x10(%rbp)
  14:	48 89 55 e8          	mov    %rdx,-0x18(%rbp)
  18:	48 8b 45 e8          	mov    -0x18(%rbp),%rax
  1c:	48 8d 14 c5 00 00 00 	lea    0x0(,%rax,8),%rdx
  23:	00 
  24:	48 8b 45 f0          	mov    -0x10(%rbp),%rax
  28:	48 89 d6             	mov    %rdx,%rsi
  2b:	48 89 c7             	mov    %rax,%rdi
  2e:	e8 00 00 00 00       	call   33 <_ZN9__gnu_cxx13new_allocatorIPiE10deallocateEPS1_m+0x33>
  33:	c9                   	leave  
  34:	c3                   	ret    

Disassembly of section .text._ZN9__gnu_cxx13new_allocatorIiE9constructIiJiEEEvPT_DpOT0_:

0000000000000000 <_ZN9__gnu_cxx13new_allocatorIiE9constructIiJiEEEvPT_DpOT0_>:
   0:	f3 0f 1e fa          	endbr64 
   4:	55                   	push   %rbp
   5:	48 89 e5             	mov    %rsp,%rbp
   8:	53                   	push   %rbx
   9:	48 83 ec 28          	sub    $0x28,%rsp
   d:	48 89 7d e8          	mov    %rdi,-0x18(%rbp)
  11:	48 89 75 e0          	mov    %rsi,-0x20(%rbp)
  15:	48 89 55 d8          	mov    %rdx,-0x28(%rbp)
  19:	48 8b 45 d8          	mov    -0x28(%rbp),%rax
  1d:	48 89 c7             	mov    %rax,%rdi
  20:	e8 00 00 00 00       	call   25 <_ZN9__gnu_cxx13new_allocatorIiE9constructIiJiEEEvPT_DpOT0_+0x25>
  25:	8b 18                	mov    (%rax),%ebx
  27:	48 8b 45 e0          	mov    -0x20(%rbp),%rax
  2b:	48 89 c6             	mov    %rax,%rsi
  2e:	bf 04 00 00 00       	mov    $0x4,%edi
  33:	e8 00 00 00 00       	call   38 <_ZN9__gnu_cxx13new_allocatorIiE9constructIiJiEEEvPT_DpOT0_+0x38>
  38:	89 18                	mov    %ebx,(%rax)
  3a:	90                   	nop
  3b:	48 8b 5d f8          	mov    -0x8(%rbp),%rbx
  3f:	c9                   	leave  
  40:	c3                   	ret    

Disassembly of section .text._ZNKSt5dequeIiSaIiEE8max_sizeEv:

0000000000000000 <_ZNKSt5dequeIiSaIiEE8max_sizeEv>:
   0:	f3 0f 1e fa          	endbr64 
   4:	55                   	push   %rbp
   5:	48 89 e5             	mov    %rsp,%rbp
   8:	48 83 ec 10          	sub    $0x10,%rsp
   c:	48 89 7d f8          	mov    %rdi,-0x8(%rbp)
  10:	48 8b 45 f8          	mov    -0x8(%rbp),%rax
  14:	48 89 c7             	mov    %rax,%rdi
  17:	e8 00 00 00 00       	call   1c <_ZNKSt5dequeIiSaIiEE8max_sizeEv+0x1c>
  1c:	48 89 c7             	mov    %rax,%rdi
  1f:	e8 00 00 00 00       	call   24 <_ZNKSt5dequeIiSaIiEE8max_sizeEv+0x24>
  24:	c9                   	leave  
  25:	c3                   	ret    

Disassembly of section .text._ZNSt5dequeIiSaIiEE22_M_reserve_map_at_backEm:

0000000000000000 <_ZNSt5dequeIiSaIiEE22_M_reserve_map_at_backEm>:
   0:	f3 0f 1e fa          	endbr64 
   4:	55                   	push   %rbp
   5:	48 89 e5             	mov    %rsp,%rbp
   8:	48 83 ec 10          	sub    $0x10,%rsp
   c:	48 89 7d f8          	mov    %rdi,-0x8(%rbp)
  10:	48 89 75 f0          	mov    %rsi,-0x10(%rbp)
  14:	48 8b 45 f0          	mov    -0x10(%rbp),%rax
  18:	48 8d 70 01          	lea    0x1(%rax),%rsi
  1c:	48 8b 45 f8          	mov    -0x8(%rbp),%rax
  20:	48 8b 50 08          	mov    0x8(%rax),%rdx
  24:	48 8b 45 f8          	mov    -0x8(%rbp),%rax
  28:	48 8b 48 48          	mov    0x48(%rax),%rcx
  2c:	48 8b 45 f8          	mov    -0x8(%rbp),%rax
  30:	48 8b 38             	mov    (%rax),%rdi
  33:	48 89 c8             	mov    %rcx,%rax
  36:	48 29 f8             	sub    %rdi,%rax
  39:	48 c1 f8 03          	sar    $0x3,%rax
  3d:	48 89 c1             	mov    %rax,%rcx
  40:	48 89 d0             	mov    %rdx,%rax
  43:	48 29 c8             	sub    %rcx,%rax
  46:	48 39 c6             	cmp    %rax,%rsi
  49:	76 18                	jbe    63 <_ZNSt5dequeIiSaIiEE22_M_reserve_map_at_backEm+0x63>
  4b:	48 8b 4d f0          	mov    -0x10(%rbp),%rcx
  4f:	48 8b 45 f8          	mov    -0x8(%rbp),%rax
  53:	ba 00 00 00 00       	mov    $0x0,%edx
  58:	48 89 ce             	mov    %rcx,%rsi
  5b:	48 89 c7             	mov    %rax,%rdi
  5e:	e8 00 00 00 00       	call   63 <_ZNSt5dequeIiSaIiEE22_M_reserve_map_at_backEm+0x63>
  63:	90                   	nop
  64:	c9                   	leave  
  65:	c3                   	ret    

Disassembly of section .text._ZN9__gnu_cxx13new_allocatorIiEC2ERKS1_:

0000000000000000 <_ZN9__gnu_cxx13new_allocatorIiEC1ERKS1_>:
   0:	f3 0f 1e fa          	endbr64 
   4:	55                   	push   %rbp
   5:	48 89 e5             	mov    %rsp,%rbp
   8:	48 89 7d f8          	mov    %rdi,-0x8(%rbp)
   c:	48 89 75 f0          	mov    %rsi,-0x10(%rbp)
  10:	90                   	nop
  11:	5d                   	pop    %rbp
  12:	c3                   	ret    

Disassembly of section .text._ZNSt11_Deque_baseIiSaIiEE11_Deque_implC2ERKS0_:

0000000000000000 <_ZNSt11_Deque_baseIiSaIiEE11_Deque_implC1ERKS0_>:
   0:	f3 0f 1e fa          	endbr64 
   4:	55                   	push   %rbp
   5:	48 89 e5             	mov    %rsp,%rbp
   8:	48 83 ec 10          	sub    $0x10,%rsp
   c:	48 89 7d f8          	mov    %rdi,-0x8(%rbp)
  10:	48 89 75 f0          	mov    %rsi,-0x10(%rbp)
  14:	48 8b 55 f0          	mov    -0x10(%rbp),%rdx
  18:	48 8b 45 f8          	mov    -0x8(%rbp),%rax
  1c:	48 89 d6             	mov    %rdx,%rsi
  1f:	48 89 c7             	mov    %rax,%rdi
  22:	e8 00 00 00 00       	call   27 <_ZNSt11_Deque_baseIiSaIiEE11_Deque_implC1ERKS0_+0x27>
  27:	48 8b 45 f8          	mov    -0x8(%rbp),%rax
  2b:	48 89 c7             	mov    %rax,%rdi
  2e:	e8 00 00 00 00       	call   33 <_ZNSt11_Deque_baseIiSaIiEE11_Deque_implC1ERKS0_+0x33>
  33:	90                   	nop
  34:	c9                   	leave  
  35:	c3                   	ret    

Disassembly of section .text._ZN9__gnu_cxx13new_allocatorIiE10deallocateEPim:

0000000000000000 <_ZN9__gnu_cxx13new_allocatorIiE10deallocateEPim>:
   0:	f3 0f 1e fa          	endbr64 
   4:	55                   	push   %rbp
   5:	48 89 e5             	mov    %rsp,%rbp
   8:	48 83 ec 20          	sub    $0x20,%rsp
   c:	48 89 7d f8          	mov    %rdi,-0x8(%rbp)
  10:	48 89 75 f0          	mov    %rsi,-0x10(%rbp)
  14:	48 89 55 e8          	mov    %rdx,-0x18(%rbp)
  18:	48 8b 45 e8          	mov    -0x18(%rbp),%rax
  1c:	48 8d 14 85 00 00 00 	lea    0x0(,%rax,4),%rdx
  23:	00 
  24:	48 8b 45 f0          	mov    -0x10(%rbp),%rax
  28:	48 89 d6             	mov    %rdx,%rsi
  2b:	48 89 c7             	mov    %rax,%rdi
  2e:	e8 00 00 00 00       	call   33 <_ZN9__gnu_cxx13new_allocatorIiE10deallocateEPim+0x33>
  33:	c9                   	leave  
  34:	c3                   	ret    

Disassembly of section .text._ZSt4moveIRNSt11_Deque_baseIiSaIiEE16_Deque_impl_dataEEONSt16remove_referenceIT_E4typeEOS6_:

0000000000000000 <_ZSt4moveIRNSt11_Deque_baseIiSaIiEE16_Deque_impl_dataEEONSt16remove_referenceIT_E4typeEOS6_>:
   0:	f3 0f 1e fa          	endbr64 
   4:	55                   	push   %rbp
   5:	48 89 e5             	mov    %rsp,%rbp
   8:	48 89 7d f8          	mov    %rdi,-0x8(%rbp)
   c:	48 8b 45 f8          	mov    -0x8(%rbp),%rax
  10:	5d                   	pop    %rbp
  11:	c3                   	ret    

Disassembly of section .text._ZNSt11_Deque_baseIiSaIiEE16_Deque_impl_dataC2ERKS2_:

0000000000000000 <_ZNSt11_Deque_baseIiSaIiEE16_Deque_impl_dataC1ERKS2_>:
   0:	f3 0f 1e fa          	endbr64 
   4:	55                   	push   %rbp
   5:	48 89 e5             	mov    %rsp,%rbp
   8:	48 83 ec 10          	sub    $0x10,%rsp
   c:	48 89 7d f8          	mov    %rdi,-0x8(%rbp)
  10:	48 89 75 f0          	mov    %rsi,-0x10(%rbp)
  14:	48 8b 45 f0          	mov    -0x10(%rbp),%rax
  18:	48 8b 10             	mov    (%rax),%rdx
  1b:	48 8b 45 f8          	mov    -0x8(%rbp),%rax
  1f:	48 89 10             	mov    %rdx,(%rax)
  22:	48 8b 45 f0          	mov    -0x10(%rbp),%rax
  26:	48 8b 50 08          	mov    0x8(%rax),%rdx
  2a:	48 8b 45 f8          	mov    -0x8(%rbp),%rax
  2e:	48 89 50 08          	mov    %rdx,0x8(%rax)
  32:	48 8b 45 f8          	mov    -0x8(%rbp),%rax
  36:	48 83 c0 10          	add    $0x10,%rax
  3a:	48 8b 55 f0          	mov    -0x10(%rbp),%rdx
  3e:	48 83 c2 10          	add    $0x10,%rdx
  42:	48 89 d6             	mov    %rdx,%rsi
  45:	48 89 c7             	mov    %rax,%rdi
  48:	e8 00 00 00 00       	call   4d <_ZNSt11_Deque_baseIiSaIiEE16_Deque_impl_dataC1ERKS2_+0x4d>
  4d:	48 8b 45 f8          	mov    -0x8(%rbp),%rax
  51:	48 83 c0 30          	add    $0x30,%rax
  55:	48 8b 55 f0          	mov    -0x10(%rbp),%rdx
  59:	48 83 c2 30          	add    $0x30,%rdx
  5d:	48 89 d6             	mov    %rdx,%rsi
  60:	48 89 c7             	mov    %rax,%rdi
  63:	e8 00 00 00 00       	call   68 <_ZNSt11_Deque_baseIiSaIiEE16_Deque_impl_dataC1ERKS2_+0x68>
  68:	90                   	nop
  69:	c9                   	leave  
  6a:	c3                   	ret    

Disassembly of section .text._ZNSt11_Deque_baseIiSaIiEE16_Deque_impl_dataC2EOS2_:

0000000000000000 <_ZNSt11_Deque_baseIiSaIiEE16_Deque_impl_dataC1EOS2_>:
   0:	f3 0f 1e fa          	endbr64 
   4:	55                   	push   %rbp
   5:	48 89 e5             	mov    %rsp,%rbp
   8:	53                   	push   %rbx
   9:	48 83 ec 78          	sub    $0x78,%rsp
   d:	48 89 7d 88          	mov    %rdi,-0x78(%rbp)
  11:	48 89 75 80          	mov    %rsi,-0x80(%rbp)
  15:	64 48 8b 04 25 28 00 	mov    %fs:0x28,%rax
  1c:	00 00 
  1e:	48 89 45 e8          	mov    %rax,-0x18(%rbp)
  22:	31 c0                	xor    %eax,%eax
  24:	48 8b 55 80          	mov    -0x80(%rbp),%rdx
  28:	48 8b 45 88          	mov    -0x78(%rbp),%rax
  2c:	48 89 d6             	mov    %rdx,%rsi
  2f:	48 89 c7             	mov    %rax,%rdi
  32:	e8 00 00 00 00       	call   37 <_ZNSt11_Deque_baseIiSaIiEE16_Deque_impl_dataC1EOS2_+0x37>
  37:	48 8d 45 90          	lea    -0x70(%rbp),%rax
  3b:	48 89 c7             	mov    %rax,%rdi
  3e:	e8 00 00 00 00       	call   43 <_ZNSt11_Deque_baseIiSaIiEE16_Deque_impl_dataC1EOS2_+0x43>
  43:	48 8b 45 80          	mov    -0x80(%rbp),%rax
  47:	48 8b 4d 90          	mov    -0x70(%rbp),%rcx
  4b:	48 8b 5d 98          	mov    -0x68(%rbp),%rbx
  4f:	48 89 08             	mov    %rcx,(%rax)
  52:	48 89 58 08          	mov    %rbx,0x8(%rax)
  56:	48 8b 4d a0          	mov    -0x60(%rbp),%rcx
  5a:	48 8b 5d a8          	mov    -0x58(%rbp),%rbx
  5e:	48 89 48 10          	mov    %rcx,0x10(%rax)
  62:	48 89 58 18          	mov    %rbx,0x18(%rax)
  66:	48 8b 4d b0          	mov    -0x50(%rbp),%rcx
  6a:	48 8b 5d b8          	mov    -0x48(%rbp),%rbx
  6e:	48 89 48 20          	mov    %rcx,0x20(%rax)
  72:	48 89 58 28          	mov    %rbx,0x28(%rax)
  76:	48 8b 4d c0          	mov    -0x40(%rbp),%rcx
  7a:	48 8b 5d c8          	mov    -0x38(%rbp),%rbx
  7e:	48 89 48 30          	mov    %rcx,0x30(%rax)
  82:	48 89 58 38          	mov    %rbx,0x38(%rax)
  86:	48 8b 4d d0          	mov    -0x30(%rbp),%rcx
  8a:	48 8b 5d d8          	mov    -0x28(%rbp),%rbx
  8e:	48 89 48 40          	mov    %rcx,0x40(%rax)
  92:	48 89 58 48          	mov    %rbx,0x48(%rax)
  96:	90                   	nop
  97:	48 8b 45 e8          	mov    -0x18(%rbp),%rax
  9b:	64 48 2b 04 25 28 00 	sub    %fs:0x28,%rax
  a2:	00 00 
  a4:	74 05                	je     ab <_ZNSt11_Deque_baseIiSaIiEE16_Deque_impl_dataC1EOS2_+0xab>
  a6:	e8 00 00 00 00       	call   ab <_ZNSt11_Deque_baseIiSaIiEE16_Deque_impl_dataC1EOS2_+0xab>
  ab:	48 8b 5d f8          	mov    -0x8(%rbp),%rbx
  af:	c9                   	leave  
  b0:	c3                   	ret    

Disassembly of section .text._ZSt15__copy_move_ditILb0EiRKiPS0_St15_Deque_iteratorIiRiPiEET3_S3_IT0_T1_T2_ESB_S7_:

0000000000000000 <_ZSt15__copy_move_ditILb0EiRKiPS0_St15_Deque_iteratorIiRiPiEET3_S3_IT0_T1_T2_ESB_S7_>:
   0:	f3 0f 1e fa          	endbr64 
   4:	55                   	push   %rbp
   5:	48 89 e5             	mov    %rsp,%rbp
   8:	53                   	push   %rbx
   9:	48 81 ec 88 00 00 00 	sub    $0x88,%rsp
  10:	48 89 7d 88          	mov    %rdi,-0x78(%rbp)
  14:	48 89 75 80          	mov    %rsi,-0x80(%rbp)
  18:	48 89 95 78 ff ff ff 	mov    %rdx,-0x88(%rbp)
  1f:	48 89 8d 70 ff ff ff 	mov    %rcx,-0x90(%rbp)
  26:	64 48 8b 04 25 28 00 	mov    %fs:0x28,%rax
  2d:	00 00 
  2f:	48 89 45 e8          	mov    %rax,-0x18(%rbp)
  33:	31 c0                	xor    %eax,%eax
  35:	48 8b 45 80          	mov    -0x80(%rbp),%rax
  39:	48 8b 50 18          	mov    0x18(%rax),%rdx
  3d:	48 8b 85 78 ff ff ff 	mov    -0x88(%rbp),%rax
  44:	48 8b 40 18          	mov    0x18(%rax),%rax
  48:	48 39 c2             	cmp    %rax,%rdx
  4b:	0f 84 31 01 00 00    	je     182 <_ZSt15__copy_move_ditILb0EiRKiPS0_St15_Deque_iteratorIiRiPiEET3_S3_IT0_T1_T2_ESB_S7_+0x182>
  51:	48 8b 95 70 ff ff ff 	mov    -0x90(%rbp),%rdx
  58:	48 8d 45 a0          	lea    -0x60(%rbp),%rax
  5c:	48 89 d6             	mov    %rdx,%rsi
  5f:	48 89 c7             	mov    %rax,%rdi
  62:	e8 00 00 00 00       	call   67 <_ZSt15__copy_move_ditILb0EiRKiPS0_St15_Deque_iteratorIiRiPiEET3_S3_IT0_T1_T2_ESB_S7_+0x67>
  67:	48 8b 45 80          	mov    -0x80(%rbp),%rax
  6b:	48 8b 50 10          	mov    0x10(%rax),%rdx
  6f:	48 8b 45 80          	mov    -0x80(%rbp),%rax
  73:	48 8b 30             	mov    (%rax),%rsi
  76:	48 8d 45 c0          	lea    -0x40(%rbp),%rax
  7a:	48 8d 4d a0          	lea    -0x60(%rbp),%rcx
  7e:	48 89 c7             	mov    %rax,%rdi
  81:	e8 00 00 00 00       	call   86 <_ZSt15__copy_move_ditILb0EiRKiPS0_St15_Deque_iteratorIiRiPiEET3_S3_IT0_T1_T2_ESB_S7_+0x86>
  86:	48 8b 8d 70 ff ff ff 	mov    -0x90(%rbp),%rcx
  8d:	48 8b 45 c0          	mov    -0x40(%rbp),%rax
  91:	48 8b 55 c8          	mov    -0x38(%rbp),%rdx
  95:	48 89 01             	mov    %rax,(%rcx)
  98:	48 89 51 08          	mov    %rdx,0x8(%rcx)
  9c:	48 8b 45 d0          	mov    -0x30(%rbp),%rax
  a0:	48 8b 55 d8          	mov    -0x28(%rbp),%rdx
  a4:	48 89 41 10          	mov    %rax,0x10(%rcx)
  a8:	48 89 51 18          	mov    %rdx,0x18(%rcx)
  ac:	48 8b 45 80          	mov    -0x80(%rbp),%rax
  b0:	48 8b 40 18          	mov    0x18(%rax),%rax
  b4:	48 83 c0 08          	add    $0x8,%rax
  b8:	48 89 45 98          	mov    %rax,-0x68(%rbp)
  bc:	eb 72                	jmp    130 <_ZSt15__copy_move_ditILb0EiRKiPS0_St15_Deque_iteratorIiRiPiEET3_S3_IT0_T1_T2_ESB_S7_+0x130>
  be:	48 8b 95 70 ff ff ff 	mov    -0x90(%rbp),%rdx
  c5:	48 8d 45 a0          	lea    -0x60(%rbp),%rax
  c9:	48 89 d6             	mov    %rdx,%rsi
  cc:	48 89 c7             	mov    %rax,%rdi
  cf:	e8 00 00 00 00       	call   d4 <_ZSt15__copy_move_ditILb0EiRKiPS0_St15_Deque_iteratorIiRiPiEET3_S3_IT0_T1_T2_ESB_S7_+0xd4>
  d4:	48 8b 45 98          	mov    -0x68(%rbp),%rax
  d8:	48 8b 18             	mov    (%rax),%rbx
  db:	e8 00 00 00 00       	call   e0 <_ZSt15__copy_move_ditILb0EiRKiPS0_St15_Deque_iteratorIiRiPiEET3_S3_IT0_T1_T2_ESB_S7_+0xe0>
  e0:	48 c1 e0 02          	shl    $0x2,%rax
  e4:	48 8d 3c 03          	lea    (%rbx,%rax,1),%rdi
  e8:	48 8b 45 98          	mov    -0x68(%rbp),%rax
  ec:	48 8b 30             	mov    (%rax),%rsi
  ef:	48 8d 45 c0          	lea    -0x40(%rbp),%rax
  f3:	48 8d 55 a0          	lea    -0x60(%rbp),%rdx
  f7:	48 89 d1             	mov    %rdx,%rcx
  fa:	48 89 fa             	mov    %rdi,%rdx
  fd:	48 89 c7             	mov    %rax,%rdi
 100:	e8 00 00 00 00       	call   105 <_ZSt15__copy_move_ditILb0EiRKiPS0_St15_Deque_iteratorIiRiPiEET3_S3_IT0_T1_T2_ESB_S7_+0x105>
 105:	48 8b 8d 70 ff ff ff 	mov    -0x90(%rbp),%rcx
 10c:	48 8b 45 c0          	mov    -0x40(%rbp),%rax
 110:	48 8b 55 c8          	mov    -0x38(%rbp),%rdx
 114:	48 89 01             	mov    %rax,(%rcx)
 117:	48 89 51 08          	mov    %rdx,0x8(%rcx)
 11b:	48 8b 45 d0          	mov    -0x30(%rbp),%rax
 11f:	48 8b 55 d8          	mov    -0x28(%rbp),%rdx
 123:	48 89 41 10          	mov    %rax,0x10(%rcx)
 127:	48 89 51 18          	mov    %rdx,0x18(%rcx)
 12b:	48 83 45 98 08       	addq   $0x8,-0x68(%rbp)
 130:	48 8b 85 78 ff ff ff 	mov    -0x88(%rbp),%rax
 137:	48 8b 40 18          	mov    0x18(%rax),%rax
 13b:	48 39 45 98          	cmp    %rax,-0x68(%rbp)
 13f:	0f 85 79 ff ff ff    	jne    be <_ZSt15__copy_move_ditILb0EiRKiPS0_St15_Deque_iteratorIiRiPiEET3_S3_IT0_T1_T2_ESB_S7_+0xbe>
 145:	48 8b 95 70 ff ff ff 	mov    -0x90(%rbp),%rdx
 14c:	48 8d 45 c0          	lea    -0x40(%rbp),%rax
 150:	48 89 d6             	mov    %rdx,%rsi
 153:	48 89 c7             	mov    %rax,%rdi
 156:	e8 00 00 00 00       	call   15b <_ZSt15__copy_move_ditILb0EiRKiPS0_St15_Deque_iteratorIiRiPiEET3_S3_IT0_T1_T2_ESB_S7_+0x15b>
 15b:	48 8b 85 78 ff ff ff 	mov    -0x88(%rbp),%rax
 162:	48 8b 10             	mov    (%rax),%rdx
 165:	48 8b 85 78 ff ff ff 	mov    -0x88(%rbp),%rax
 16c:	48 8b 70 08          	mov    0x8(%rax),%rsi
 170:	48 8b 45 88          	mov    -0x78(%rbp),%rax
 174:	48 8d 4d c0          	lea    -0x40(%rbp),%rcx
 178:	48 89 c7             	mov    %rax,%rdi
 17b:	e8 00 00 00 00       	call   180 <_ZSt15__copy_move_ditILb0EiRKiPS0_St15_Deque_iteratorIiRiPiEET3_S3_IT0_T1_T2_ESB_S7_+0x180>
 180:	eb 37                	jmp    1b9 <_ZSt15__copy_move_ditILb0EiRKiPS0_St15_Deque_iteratorIiRiPiEET3_S3_IT0_T1_T2_ESB_S7_+0x1b9>
 182:	48 8b 95 70 ff ff ff 	mov    -0x90(%rbp),%rdx
 189:	48 8d 45 c0          	lea    -0x40(%rbp),%rax
 18d:	48 89 d6             	mov    %rdx,%rsi
 190:	48 89 c7             	mov    %rax,%rdi
 193:	e8 00 00 00 00       	call   198 <_ZSt15__copy_move_ditILb0EiRKiPS0_St15_Deque_iteratorIiRiPiEET3_S3_IT0_T1_T2_ESB_S7_+0x198>
 198:	48 8b 85 78 ff ff ff 	mov    -0x88(%rbp),%rax
 19f:	48 8b 10             	mov    (%rax),%rdx
 1a2:	48 8b 45 80          	mov    -0x80(%rbp),%rax
 1a6:	48 8b 30             	mov    (%rax),%rsi
 1a9:	48 8b 45 88          	mov    -0x78(%rbp),%rax
 1ad:	48 8d 4d c0          	lea    -0x40(%rbp),%rcx
 1b1:	48 89 c7             	mov    %rax,%rdi
 1b4:	e8 00 00 00 00       	call   1b9 <_ZSt15__copy_move_ditILb0EiRKiPS0_St15_Deque_iteratorIiRiPiEET3_S3_IT0_T1_T2_ESB_S7_+0x1b9>
 1b9:	48 8b 45 e8          	mov    -0x18(%rbp),%rax
 1bd:	64 48 2b 04 25 28 00 	sub    %fs:0x28,%rax
 1c4:	00 00 
 1c6:	74 05                	je     1cd <_ZSt15__copy_move_ditILb0EiRKiPS0_St15_Deque_iteratorIiRiPiEET3_S3_IT0_T1_T2_ESB_S7_+0x1cd>
 1c8:	e8 00 00 00 00       	call   1cd <_ZSt15__copy_move_ditILb0EiRKiPS0_St15_Deque_iteratorIiRiPiEET3_S3_IT0_T1_T2_ESB_S7_+0x1cd>
 1cd:	48 8b 45 88          	mov    -0x78(%rbp),%rax
 1d1:	48 8b 5d f8          	mov    -0x8(%rbp),%rbx
 1d5:	c9                   	leave  
 1d6:	c3                   	ret    

Disassembly of section .text._ZStmiRKSt15_Deque_iteratorIiRKiPS0_ES5_:

0000000000000000 <_ZStmiRKSt15_Deque_iteratorIiRKiPS0_ES5_>:
   0:	f3 0f 1e fa          	endbr64 
   4:	55                   	push   %rbp
   5:	48 89 e5             	mov    %rsp,%rbp
   8:	48 83 ec 10          	sub    $0x10,%rsp
   c:	48 89 7d f8          	mov    %rdi,-0x8(%rbp)
  10:	48 89 75 f0          	mov    %rsi,-0x10(%rbp)
  14:	e8 00 00 00 00       	call   19 <_ZStmiRKSt15_Deque_iteratorIiRKiPS0_ES5_+0x19>
  19:	48 89 c6             	mov    %rax,%rsi
  1c:	48 8b 45 f8          	mov    -0x8(%rbp),%rax
  20:	48 8b 50 18          	mov    0x18(%rax),%rdx
  24:	48 8b 45 f0          	mov    -0x10(%rbp),%rax
  28:	48 8b 48 18          	mov    0x18(%rax),%rcx
  2c:	48 89 d0             	mov    %rdx,%rax
  2f:	48 29 c8             	sub    %rcx,%rax
  32:	48 c1 f8 03          	sar    $0x3,%rax
  36:	48 89 c1             	mov    %rax,%rcx
  39:	48 8b 45 f8          	mov    -0x8(%rbp),%rax
  3d:	48 8b 40 18          	mov    0x18(%rax),%rax
  41:	48 85 c0             	test   %rax,%rax
  44:	0f 95 c0             	setne  %al
  47:	0f b6 d0             	movzbl %al,%edx
  4a:	48 89 c8             	mov    %rcx,%rax
  4d:	48 29 d0             	sub    %rdx,%rax
  50:	48 0f af f0          	imul   %rax,%rsi
  54:	48 89 f1             	mov    %rsi,%rcx
  57:	48 8b 45 f8          	mov    -0x8(%rbp),%rax
  5b:	48 8b 10             	mov    (%rax),%rdx
  5e:	48 8b 45 f8          	mov    -0x8(%rbp),%rax
  62:	48 8b 70 08          	mov    0x8(%rax),%rsi
  66:	48 89 d0             	mov    %rdx,%rax
  69:	48 29 f0             	sub    %rsi,%rax
  6c:	48 c1 f8 02          	sar    $0x2,%rax
  70:	48 8d 34 01          	lea    (%rcx,%rax,1),%rsi
  74:	48 8b 45 f0          	mov    -0x10(%rbp),%rax
  78:	48 8b 50 10          	mov    0x10(%rax),%rdx
  7c:	48 8b 45 f0          	mov    -0x10(%rbp),%rax
  80:	48 8b 08             	mov    (%rax),%rcx
  83:	48 89 d0             	mov    %rdx,%rax
  86:	48 29 c8             	sub    %rcx,%rax
  89:	48 c1 f8 02          	sar    $0x2,%rax
  8d:	48 01 f0             	add    %rsi,%rax
  90:	c9                   	leave  
  91:	c3                   	ret    

Disassembly of section .text._ZNSt5dequeIiSaIiEE23_M_reserve_map_at_frontEm:

0000000000000000 <_ZNSt5dequeIiSaIiEE23_M_reserve_map_at_frontEm>:
   0:	f3 0f 1e fa          	endbr64 
   4:	55                   	push   %rbp
   5:	48 89 e5             	mov    %rsp,%rbp
   8:	48 83 ec 10          	sub    $0x10,%rsp
   c:	48 89 7d f8          	mov    %rdi,-0x8(%rbp)
  10:	48 89 75 f0          	mov    %rsi,-0x10(%rbp)
  14:	48 8b 45 f8          	mov    -0x8(%rbp),%rax
  18:	48 8b 50 28          	mov    0x28(%rax),%rdx
  1c:	48 8b 45 f8          	mov    -0x8(%rbp),%rax
  20:	48 8b 08             	mov    (%rax),%rcx
  23:	48 89 d0             	mov    %rdx,%rax
  26:	48 29 c8             	sub    %rcx,%rax
  29:	48 c1 f8 03          	sar    $0x3,%rax
  2d:	48 39 45 f0          	cmp    %rax,-0x10(%rbp)
  31:	76 18                	jbe    4b <_ZNSt5dequeIiSaIiEE23_M_reserve_map_at_frontEm+0x4b>
  33:	48 8b 4d f0          	mov    -0x10(%rbp),%rcx
  37:	48 8b 45 f8          	mov    -0x8(%rbp),%rax
  3b:	ba 01 00 00 00       	mov    $0x1,%edx
  40:	48 89 ce             	mov    %rcx,%rsi
  43:	48 89 c7             	mov    %rax,%rdi
  46:	e8 00 00 00 00       	call   4b <_ZNSt5dequeIiSaIiEE23_M_reserve_map_at_frontEm+0x4b>
  4b:	90                   	nop
  4c:	c9                   	leave  
  4d:	c3                   	ret    

Disassembly of section .text._ZNSt15_Deque_iteratorIiRiPiEmIEl:

0000000000000000 <_ZNSt15_Deque_iteratorIiRiPiEmIEl>:
   0:	f3 0f 1e fa          	endbr64 
   4:	55                   	push   %rbp
   5:	48 89 e5             	mov    %rsp,%rbp
   8:	48 83 ec 10          	sub    $0x10,%rsp
   c:	48 89 7d f8          	mov    %rdi,-0x8(%rbp)
  10:	48 89 75 f0          	mov    %rsi,-0x10(%rbp)
  14:	48 8b 45 f0          	mov    -0x10(%rbp),%rax
  18:	48 f7 d8             	neg    %rax
  1b:	48 89 c2             	mov    %rax,%rdx
  1e:	48 8b 45 f8          	mov    -0x8(%rbp),%rax
  22:	48 89 d6             	mov    %rdx,%rsi
  25:	48 89 c7             	mov    %rax,%rdi
  28:	e8 00 00 00 00       	call   2d <_ZNSt15_Deque_iteratorIiRiPiEmIEl+0x2d>
  2d:	c9                   	leave  
  2e:	c3                   	ret    

Disassembly of section .text._ZNSt20__uninitialized_copyILb1EE13__uninit_copyISt15_Deque_iteratorIiRKiPS3_ES2_IiRiPiEEET0_T_SB_SA_:

0000000000000000 <_ZNSt20__uninitialized_copyILb1EE13__uninit_copyISt15_Deque_iteratorIiRKiPS3_ES2_IiRiPiEEET0_T_SB_SA_>:
   0:	f3 0f 1e fa          	endbr64 
   4:	55                   	push   %rbp
   5:	48 89 e5             	mov    %rsp,%rbp
   8:	48 81 ec 90 00 00 00 	sub    $0x90,%rsp
   f:	48 89 7d 88          	mov    %rdi,-0x78(%rbp)
  13:	48 89 75 80          	mov    %rsi,-0x80(%rbp)
  17:	48 89 95 78 ff ff ff 	mov    %rdx,-0x88(%rbp)
  1e:	48 89 8d 70 ff ff ff 	mov    %rcx,-0x90(%rbp)
  25:	64 48 8b 04 25 28 00 	mov    %fs:0x28,%rax
  2c:	00 00 
  2e:	48 89 45 f8          	mov    %rax,-0x8(%rbp)
  32:	31 c0                	xor    %eax,%eax
  34:	48 8b 95 70 ff ff ff 	mov    -0x90(%rbp),%rdx
  3b:	48 8d 45 d0          	lea    -0x30(%rbp),%rax
  3f:	48 89 d6             	mov    %rdx,%rsi
  42:	48 89 c7             	mov    %rax,%rdi
  45:	e8 00 00 00 00       	call   4a <_ZNSt20__uninitialized_copyILb1EE13__uninit_copyISt15_Deque_iteratorIiRKiPS3_ES2_IiRiPiEEET0_T_SB_SA_+0x4a>
  4a:	48 8b 95 78 ff ff ff 	mov    -0x88(%rbp),%rdx
  51:	48 8d 45 b0          	lea    -0x50(%rbp),%rax
  55:	48 89 d6             	mov    %rdx,%rsi
  58:	48 89 c7             	mov    %rax,%rdi
  5b:	e8 00 00 00 00       	call   60 <_ZNSt20__uninitialized_copyILb1EE13__uninit_copyISt15_Deque_iteratorIiRKiPS3_ES2_IiRiPiEEET0_T_SB_SA_+0x60>
  60:	48 8b 55 80          	mov    -0x80(%rbp),%rdx
  64:	48 8d 45 90          	lea    -0x70(%rbp),%rax
  68:	48 89 d6             	mov    %rdx,%rsi
  6b:	48 89 c7             	mov    %rax,%rdi
  6e:	e8 00 00 00 00       	call   73 <_ZNSt20__uninitialized_copyILb1EE13__uninit_copyISt15_Deque_iteratorIiRKiPS3_ES2_IiRiPiEEET0_T_SB_SA_+0x73>
  73:	48 8b 45 88          	mov    -0x78(%rbp),%rax
  77:	48 8d 4d d0          	lea    -0x30(%rbp),%rcx
  7b:	48 8d 55 b0          	lea    -0x50(%rbp),%rdx
  7f:	48 8d 75 90          	lea    -0x70(%rbp),%rsi
  83:	48 89 c7             	mov    %rax,%rdi
  86:	e8 00 00 00 00       	call   8b <_ZNSt20__uninitialized_copyILb1EE13__uninit_copyISt15_Deque_iteratorIiRKiPS3_ES2_IiRiPiEEET0_T_SB_SA_+0x8b>
  8b:	48 8b 45 f8          	mov    -0x8(%rbp),%rax
  8f:	64 48 2b 04 25 28 00 	sub    %fs:0x28,%rax
  96:	00 00 
  98:	74 05                	je     9f <_ZNSt20__uninitialized_copyILb1EE13__uninit_copyISt15_Deque_iteratorIiRKiPS3_ES2_IiRiPiEEET0_T_SB_SA_+0x9f>
  9a:	e8 00 00 00 00       	call   9f <_ZNSt20__uninitialized_copyILb1EE13__uninit_copyISt15_Deque_iteratorIiRKiPS3_ES2_IiRiPiEEET0_T_SB_SA_+0x9f>
  9f:	48 8b 45 88          	mov    -0x78(%rbp),%rax
  a3:	c9                   	leave  
  a4:	c3                   	ret    

Disassembly of section .text._ZNSt15_Deque_iteratorIiRiPiEpLEl:

0000000000000000 <_ZNSt15_Deque_iteratorIiRiPiEpLEl>:
   0:	f3 0f 1e fa          	endbr64 
   4:	55                   	push   %rbp
   5:	48 89 e5             	mov    %rsp,%rbp
   8:	53                   	push   %rbx
   9:	48 83 ec 28          	sub    $0x28,%rsp
   d:	48 89 7d d8          	mov    %rdi,-0x28(%rbp)
  11:	48 89 75 d0          	mov    %rsi,-0x30(%rbp)
  15:	48 8b 45 d8          	mov    -0x28(%rbp),%rax
  19:	48 8b 10             	mov    (%rax),%rdx
  1c:	48 8b 45 d8          	mov    -0x28(%rbp),%rax
  20:	48 8b 48 08          	mov    0x8(%rax),%rcx
  24:	48 89 d0             	mov    %rdx,%rax
  27:	48 29 c8             	sub    %rcx,%rax
  2a:	48 c1 f8 02          	sar    $0x2,%rax
  2e:	48 89 c2             	mov    %rax,%rdx
  31:	48 8b 45 d0          	mov    -0x30(%rbp),%rax
  35:	48 01 d0             	add    %rdx,%rax
  38:	48 89 45 e0          	mov    %rax,-0x20(%rbp)
  3c:	48 83 7d e0 00       	cmpq   $0x0,-0x20(%rbp)
  41:	78 12                	js     55 <_ZNSt15_Deque_iteratorIiRiPiEpLEl+0x55>
  43:	e8 00 00 00 00       	call   48 <_ZNSt15_Deque_iteratorIiRiPiEpLEl+0x48>
  48:	48 39 45 e0          	cmp    %rax,-0x20(%rbp)
  4c:	7d 07                	jge    55 <_ZNSt15_Deque_iteratorIiRiPiEpLEl+0x55>
  4e:	b8 01 00 00 00       	mov    $0x1,%eax
  53:	eb 05                	jmp    5a <_ZNSt15_Deque_iteratorIiRiPiEpLEl+0x5a>
  55:	b8 00 00 00 00       	mov    $0x0,%eax
  5a:	84 c0                	test   %al,%al
  5c:	74 1e                	je     7c <_ZNSt15_Deque_iteratorIiRiPiEpLEl+0x7c>
  5e:	48 8b 45 d8          	mov    -0x28(%rbp),%rax
  62:	48 8b 10             	mov    (%rax),%rdx
  65:	48 8b 45 d0          	mov    -0x30(%rbp),%rax
  69:	48 c1 e0 02          	shl    $0x2,%rax
  6d:	48 01 c2             	add    %rax,%rdx
  70:	48 8b 45 d8          	mov    -0x28(%rbp),%rax
  74:	48 89 10             	mov    %rdx,(%rax)
  77:	e9 8b 00 00 00       	jmp    107 <_ZNSt15_Deque_iteratorIiRiPiEpLEl+0x107>
  7c:	48 83 7d e0 00       	cmpq   $0x0,-0x20(%rbp)
  81:	7e 13                	jle    96 <_ZNSt15_Deque_iteratorIiRiPiEpLEl+0x96>
  83:	e8 00 00 00 00       	call   88 <_ZNSt15_Deque_iteratorIiRiPiEpLEl+0x88>
  88:	48 89 c1             	mov    %rax,%rcx
  8b:	48 8b 45 e0          	mov    -0x20(%rbp),%rax
  8f:	48 99                	cqto   
  91:	48 f7 f9             	idiv   %rcx
  94:	eb 20                	jmp    b6 <_ZNSt15_Deque_iteratorIiRiPiEpLEl+0xb6>
  96:	48 8b 45 e0          	mov    -0x20(%rbp),%rax
  9a:	48 f7 d0             	not    %rax
  9d:	48 89 c3             	mov    %rax,%rbx
  a0:	e8 00 00 00 00       	call   a5 <_ZNSt15_Deque_iteratorIiRiPiEpLEl+0xa5>
  a5:	48 89 c6             	mov    %rax,%rsi
  a8:	48 89 d8             	mov    %rbx,%rax
  ab:	ba 00 00 00 00       	mov    $0x0,%edx
  b0:	48 f7 f6             	div    %rsi
  b3:	48 f7 d0             	not    %rax
  b6:	48 89 45 e8          	mov    %rax,-0x18(%rbp)
  ba:	48 8b 45 d8          	mov    -0x28(%rbp),%rax
  be:	48 8b 50 18          	mov    0x18(%rax),%rdx
  c2:	48 8b 45 e8          	mov    -0x18(%rbp),%rax
  c6:	48 c1 e0 03          	shl    $0x3,%rax
  ca:	48 01 c2             	add    %rax,%rdx
  cd:	48 8b 45 d8          	mov    -0x28(%rbp),%rax
  d1:	48 89 d6             	mov    %rdx,%rsi
  d4:	48 89 c7             	mov    %rax,%rdi
  d7:	e8 00 00 00 00       	call   dc <_ZNSt15_Deque_iteratorIiRiPiEpLEl+0xdc>
  dc:	48 8b 45 d8          	mov    -0x28(%rbp),%rax
  e0:	48 8b 58 08          	mov    0x8(%rax),%rbx
  e4:	e8 00 00 00 00       	call   e9 <_ZNSt15_Deque_iteratorIiRiPiEpLEl+0xe9>
  e9:	48 0f af 45 e8       	imul   -0x18(%rbp),%rax
  ee:	48 89 c2             	mov    %rax,%rdx
  f1:	48 8b 45 e0          	mov    -0x20(%rbp),%rax
  f5:	48 29 d0             	sub    %rdx,%rax
  f8:	48 c1 e0 02          	shl    $0x2,%rax
  fc:	48 8d 14 03          	lea    (%rbx,%rax,1),%rdx
 100:	48 8b 45 d8          	mov    -0x28(%rbp),%rax
 104:	48 89 10             	mov    %rdx,(%rax)
 107:	48 8b 45 d8          	mov    -0x28(%rbp),%rax
 10b:	48 8b 5d f8          	mov    -0x8(%rbp),%rbx
 10f:	c9                   	leave  
 110:	c3                   	ret    

Disassembly of section .text._ZSt18make_move_iteratorISt15_Deque_iteratorIiRiPiEESt13move_iteratorIT_ES5_:

0000000000000000 <_ZSt18make_move_iteratorISt15_Deque_iteratorIiRiPiEESt13move_iteratorIT_ES5_>:
   0:	f3 0f 1e fa          	endbr64 
   4:	55                   	push   %rbp
   5:	48 89 e5             	mov    %rsp,%rbp
   8:	48 83 ec 40          	sub    $0x40,%rsp
   c:	48 89 7d c8          	mov    %rdi,-0x38(%rbp)
  10:	48 89 75 c0          	mov    %rsi,-0x40(%rbp)
  14:	64 48 8b 04 25 28 00 	mov    %fs:0x28,%rax
  1b:	00 00 
  1d:	48 89 45 f8          	mov    %rax,-0x8(%rbp)
  21:	31 c0                	xor    %eax,%eax
  23:	48 8b 45 c0          	mov    -0x40(%rbp),%rax
  27:	48 89 c7             	mov    %rax,%rdi
  2a:	e8 00 00 00 00       	call   2f <_ZSt18make_move_iteratorISt15_Deque_iteratorIiRiPiEESt13move_iteratorIT_ES5_+0x2f>
  2f:	48 89 c2             	mov    %rax,%rdx
  32:	48 8d 45 d0          	lea    -0x30(%rbp),%rax
  36:	48 89 d6             	mov    %rdx,%rsi
  39:	48 89 c7             	mov    %rax,%rdi
  3c:	e8 00 00 00 00       	call   41 <_ZSt18make_move_iteratorISt15_Deque_iteratorIiRiPiEESt13move_iteratorIT_ES5_+0x41>
  41:	48 8d 55 d0          	lea    -0x30(%rbp),%rdx
  45:	48 8b 45 c8          	mov    -0x38(%rbp),%rax
  49:	48 89 d6             	mov    %rdx,%rsi
  4c:	48 89 c7             	mov    %rax,%rdi
  4f:	e8 00 00 00 00       	call   54 <_ZSt18make_move_iteratorISt15_Deque_iteratorIiRiPiEESt13move_iteratorIT_ES5_+0x54>
  54:	48 8b 45 f8          	mov    -0x8(%rbp),%rax
  58:	64 48 2b 04 25 28 00 	sub    %fs:0x28,%rax
  5f:	00 00 
  61:	74 05                	je     68 <_ZSt18make_move_iteratorISt15_Deque_iteratorIiRiPiEESt13move_iteratorIT_ES5_+0x68>
  63:	e8 00 00 00 00       	call   68 <_ZSt18make_move_iteratorISt15_Deque_iteratorIiRiPiEESt13move_iteratorIT_ES5_+0x68>
  68:	48 8b 45 c8          	mov    -0x38(%rbp),%rax
  6c:	c9                   	leave  
  6d:	c3                   	ret    

Disassembly of section .text._ZNSt13move_iteratorISt15_Deque_iteratorIiRiPiEEC2ERKS4_:

0000000000000000 <_ZNSt13move_iteratorISt15_Deque_iteratorIiRiPiEEC1ERKS4_>:
   0:	f3 0f 1e fa          	endbr64 
   4:	55                   	push   %rbp
   5:	48 89 e5             	mov    %rsp,%rbp
   8:	48 83 ec 10          	sub    $0x10,%rsp
   c:	48 89 7d f8          	mov    %rdi,-0x8(%rbp)
  10:	48 89 75 f0          	mov    %rsi,-0x10(%rbp)
  14:	48 8b 45 f8          	mov    -0x8(%rbp),%rax
  18:	48 8b 55 f0          	mov    -0x10(%rbp),%rdx
  1c:	48 89 d6             	mov    %rdx,%rsi
  1f:	48 89 c7             	mov    %rax,%rdi
  22:	e8 00 00 00 00       	call   27 <_ZNSt13move_iteratorISt15_Deque_iteratorIiRiPiEEC1ERKS4_+0x27>
  27:	90                   	nop
  28:	c9                   	leave  
  29:	c3                   	ret    

Disassembly of section .text._ZSt22__uninitialized_copy_aISt13move_iteratorISt15_Deque_iteratorIiRiPiEES4_iET0_T_S7_S6_RSaIT1_E:

0000000000000000 <_ZSt22__uninitialized_copy_aISt13move_iteratorISt15_Deque_iteratorIiRiPiEES4_iET0_T_S7_S6_RSaIT1_E>:
   0:	f3 0f 1e fa          	endbr64 
   4:	55                   	push   %rbp
   5:	48 89 e5             	mov    %rsp,%rbp
   8:	48 81 ec a0 00 00 00 	sub    $0xa0,%rsp
   f:	48 89 7d 88          	mov    %rdi,-0x78(%rbp)
  13:	48 89 75 80          	mov    %rsi,-0x80(%rbp)
  17:	48 89 95 78 ff ff ff 	mov    %rdx,-0x88(%rbp)
  1e:	48 89 8d 70 ff ff ff 	mov    %rcx,-0x90(%rbp)
  25:	4c 89 85 68 ff ff ff 	mov    %r8,-0x98(%rbp)
  2c:	64 48 8b 04 25 28 00 	mov    %fs:0x28,%rax
  33:	00 00 
  35:	48 89 45 f8          	mov    %rax,-0x8(%rbp)
  39:	31 c0                	xor    %eax,%eax
  3b:	48 8b 95 70 ff ff ff 	mov    -0x90(%rbp),%rdx
  42:	48 8d 45 d0          	lea    -0x30(%rbp),%rax
  46:	48 89 d6             	mov    %rdx,%rsi
  49:	48 89 c7             	mov    %rax,%rdi
  4c:	e8 00 00 00 00       	call   51 <_ZSt22__uninitialized_copy_aISt13move_iteratorISt15_Deque_iteratorIiRiPiEES4_iET0_T_S7_S6_RSaIT1_E+0x51>
  51:	48 8b 95 78 ff ff ff 	mov    -0x88(%rbp),%rdx
  58:	48 8d 45 b0          	lea    -0x50(%rbp),%rax
  5c:	48 89 d6             	mov    %rdx,%rsi
  5f:	48 89 c7             	mov    %rax,%rdi
  62:	e8 00 00 00 00       	call   67 <_ZSt22__uninitialized_copy_aISt13move_iteratorISt15_Deque_iteratorIiRiPiEES4_iET0_T_S7_S6_RSaIT1_E+0x67>
  67:	48 8b 55 80          	mov    -0x80(%rbp),%rdx
  6b:	48 8d 45 90          	lea    -0x70(%rbp),%rax
  6f:	48 89 d6             	mov    %rdx,%rsi
  72:	48 89 c7             	mov    %rax,%rdi
  75:	e8 00 00 00 00       	call   7a <_ZSt22__uninitialized_copy_aISt13move_iteratorISt15_Deque_iteratorIiRiPiEES4_iET0_T_S7_S6_RSaIT1_E+0x7a>
  7a:	48 8b 45 88          	mov    -0x78(%rbp),%rax
  7e:	48 8d 4d d0          	lea    -0x30(%rbp),%rcx
  82:	48 8d 55 b0          	lea    -0x50(%rbp),%rdx
  86:	48 8d 75 90          	lea    -0x70(%rbp),%rsi
  8a:	48 89 c7             	mov    %rax,%rdi
  8d:	e8 00 00 00 00       	call   92 <_ZSt22__uninitialized_copy_aISt13move_iteratorISt15_Deque_iteratorIiRiPiEES4_iET0_T_S7_S6_RSaIT1_E+0x92>
  92:	48 8b 45 f8          	mov    -0x8(%rbp),%rax
  96:	64 48 2b 04 25 28 00 	sub    %fs:0x28,%rax
  9d:	00 00 
  9f:	74 05                	je     a6 <_ZSt22__uninitialized_copy_aISt13move_iteratorISt15_Deque_iteratorIiRiPiEES4_iET0_T_S7_S6_RSaIT1_E+0xa6>
  a1:	e8 00 00 00 00       	call   a6 <_ZSt22__uninitialized_copy_aISt13move_iteratorISt15_Deque_iteratorIiRiPiEES4_iET0_T_S7_S6_RSaIT1_E+0xa6>
  a6:	48 8b 45 88          	mov    -0x78(%rbp),%rax
  aa:	c9                   	leave  
  ab:	c3                   	ret    

Disassembly of section .text._ZSt12__miter_baseISt15_Deque_iteratorIiRiPiEET_S4_:

0000000000000000 <_ZSt12__miter_baseISt15_Deque_iteratorIiRiPiEET_S4_>:
   0:	f3 0f 1e fa          	endbr64 
   4:	55                   	push   %rbp
   5:	48 89 e5             	mov    %rsp,%rbp
   8:	48 83 ec 10          	sub    $0x10,%rsp
   c:	48 89 7d f8          	mov    %rdi,-0x8(%rbp)
  10:	48 89 75 f0          	mov    %rsi,-0x10(%rbp)
  14:	48 8b 55 f0          	mov    -0x10(%rbp),%rdx
  18:	48 8b 45 f8          	mov    -0x8(%rbp),%rax
  1c:	48 89 d6             	mov    %rdx,%rsi
  1f:	48 89 c7             	mov    %rax,%rdi
  22:	e8 00 00 00 00       	call   27 <_ZSt12__miter_baseISt15_Deque_iteratorIiRiPiEET_S4_+0x27>
  27:	48 8b 45 f8          	mov    -0x8(%rbp),%rax
  2b:	c9                   	leave  
  2c:	c3                   	ret    

Disassembly of section .text._ZSt13__copy_move_aILb1ESt15_Deque_iteratorIiRiPiES3_ET1_T0_S5_S4_:

0000000000000000 <_ZSt13__copy_move_aILb1ESt15_Deque_iteratorIiRiPiES3_ET1_T0_S5_S4_>:
   0:	f3 0f 1e fa          	endbr64 
   4:	55                   	push   %rbp
   5:	48 89 e5             	mov    %rsp,%rbp
   8:	48 81 ec 10 01 00 00 	sub    $0x110,%rsp
   f:	48 89 bd 08 ff ff ff 	mov    %rdi,-0xf8(%rbp)
  16:	48 89 b5 00 ff ff ff 	mov    %rsi,-0x100(%rbp)
  1d:	48 89 95 f8 fe ff ff 	mov    %rdx,-0x108(%rbp)
  24:	48 89 8d f0 fe ff ff 	mov    %rcx,-0x110(%rbp)
  2b:	64 48 8b 04 25 28 00 	mov    %fs:0x28,%rax
  32:	00 00 
  34:	48 89 45 f8          	mov    %rax,-0x8(%rbp)
  38:	31 c0                	xor    %eax,%eax
  3a:	48 8b 95 f0 fe ff ff 	mov    -0x110(%rbp),%rdx
  41:	48 8d 45 90          	lea    -0x70(%rbp),%rax
  45:	48 89 d6             	mov    %rdx,%rsi
  48:	48 89 c7             	mov    %rax,%rdi
  4b:	e8 00 00 00 00       	call   50 <_ZSt13__copy_move_aILb1ESt15_Deque_iteratorIiRiPiES3_ET1_T0_S5_S4_+0x50>
  50:	48 8d 45 b0          	lea    -0x50(%rbp),%rax
  54:	48 8d 55 90          	lea    -0x70(%rbp),%rdx
  58:	48 89 d6             	mov    %rdx,%rsi
  5b:	48 89 c7             	mov    %rax,%rdi
  5e:	e8 00 00 00 00       	call   63 <_ZSt13__copy_move_aILb1ESt15_Deque_iteratorIiRiPiES3_ET1_T0_S5_S4_+0x63>
  63:	48 8b 95 f8 fe ff ff 	mov    -0x108(%rbp),%rdx
  6a:	48 8d 85 50 ff ff ff 	lea    -0xb0(%rbp),%rax
  71:	48 89 d6             	mov    %rdx,%rsi
  74:	48 89 c7             	mov    %rax,%rdi
  77:	e8 00 00 00 00       	call   7c <_ZSt13__copy_move_aILb1ESt15_Deque_iteratorIiRiPiES3_ET1_T0_S5_S4_+0x7c>
  7c:	48 8d 85 70 ff ff ff 	lea    -0x90(%rbp),%rax
  83:	48 8d 95 50 ff ff ff 	lea    -0xb0(%rbp),%rdx
  8a:	48 89 d6             	mov    %rdx,%rsi
  8d:	48 89 c7             	mov    %rax,%rdi
  90:	e8 00 00 00 00       	call   95 <_ZSt13__copy_move_aILb1ESt15_Deque_iteratorIiRiPiES3_ET1_T0_S5_S4_+0x95>
  95:	48 8b 95 00 ff ff ff 	mov    -0x100(%rbp),%rdx
  9c:	48 8d 85 10 ff ff ff 	lea    -0xf0(%rbp),%rax
  a3:	48 89 d6             	mov    %rdx,%rsi
  a6:	48 89 c7             	mov    %rax,%rdi
  a9:	e8 00 00 00 00       	call   ae <_ZSt13__copy_move_aILb1ESt15_Deque_iteratorIiRiPiES3_ET1_T0_S5_S4_+0xae>
  ae:	48 8d 85 30 ff ff ff 	lea    -0xd0(%rbp),%rax
  b5:	48 8d 95 10 ff ff ff 	lea    -0xf0(%rbp),%rdx
  bc:	48 89 d6             	mov    %rdx,%rsi
  bf:	48 89 c7             	mov    %rax,%rdi
  c2:	e8 00 00 00 00       	call   c7 <_ZSt13__copy_move_aILb1ESt15_Deque_iteratorIiRiPiES3_ET1_T0_S5_S4_+0xc7>
  c7:	48 8d 45 d0          	lea    -0x30(%rbp),%rax
  cb:	48 8d 4d b0          	lea    -0x50(%rbp),%rcx
  cf:	48 8d 95 70 ff ff ff 	lea    -0x90(%rbp),%rdx
  d6:	48 8d b5 30 ff ff ff 	lea    -0xd0(%rbp),%rsi
  dd:	48 89 c7             	mov    %rax,%rdi
  e0:	e8 00 00 00 00       	call   e5 <_ZSt13__copy_move_aILb1ESt15_Deque_iteratorIiRiPiES3_ET1_T0_S5_S4_+0xe5>
  e5:	48 8b 85 08 ff ff ff 	mov    -0xf8(%rbp),%rax
  ec:	48 8d 55 d0          	lea    -0x30(%rbp),%rdx
  f0:	48 8b 8d f0 fe ff ff 	mov    -0x110(%rbp),%rcx
  f7:	48 89 ce             	mov    %rcx,%rsi
  fa:	48 89 c7             	mov    %rax,%rdi
  fd:	e8 00 00 00 00       	call   102 <_ZSt13__copy_move_aILb1ESt15_Deque_iteratorIiRiPiES3_ET1_T0_S5_S4_+0x102>
 102:	48 8b 45 f8          	mov    -0x8(%rbp),%rax
 106:	64 48 2b 04 25 28 00 	sub    %fs:0x28,%rax
 10d:	00 00 
 10f:	74 05                	je     116 <_ZSt13__copy_move_aILb1ESt15_Deque_iteratorIiRiPiES3_ET1_T0_S5_S4_+0x116>
 111:	e8 00 00 00 00       	call   116 <_ZSt13__copy_move_aILb1ESt15_Deque_iteratorIiRiPiES3_ET1_T0_S5_S4_+0x116>
 116:	48 8b 85 08 ff ff ff 	mov    -0xf8(%rbp),%rax
 11d:	c9                   	leave  
 11e:	c3                   	ret    

Disassembly of section .text._ZSt9__advanceISt15_Deque_iteratorIiRKiPS1_ElEvRT_T0_St26random_access_iterator_tag:

0000000000000000 <_ZSt9__advanceISt15_Deque_iteratorIiRKiPS1_ElEvRT_T0_St26random_access_iterator_tag>:
   0:	f3 0f 1e fa          	endbr64 
   4:	55                   	push   %rbp
   5:	48 89 e5             	mov    %rsp,%rbp
   8:	48 83 ec 10          	sub    $0x10,%rsp
   c:	48 89 7d f8          	mov    %rdi,-0x8(%rbp)
  10:	48 89 75 f0          	mov    %rsi,-0x10(%rbp)
  14:	48 8b 55 f0          	mov    -0x10(%rbp),%rdx
  18:	48 8b 45 f8          	mov    -0x8(%rbp),%rax
  1c:	48 89 d6             	mov    %rdx,%rsi
  1f:	48 89 c7             	mov    %rax,%rdi
  22:	e8 00 00 00 00       	call   27 <_ZSt9__advanceISt15_Deque_iteratorIiRKiPS1_ElEvRT_T0_St26random_access_iterator_tag+0x27>
  27:	90                   	nop
  28:	c9                   	leave  
  29:	c3                   	ret    

Disassembly of section .text._ZSt8_DestroyISt15_Deque_iteratorIiRiPiEiEvT_S4_RSaIT0_E:

0000000000000000 <_ZSt8_DestroyISt15_Deque_iteratorIiRiPiEiEvT_S4_RSaIT0_E>:
   0:	f3 0f 1e fa          	endbr64 
   4:	55                   	push   %rbp
   5:	48 89 e5             	mov    %rsp,%rbp
   8:	48 83 ec 70          	sub    $0x70,%rsp
   c:	48 89 7d a8          	mov    %rdi,-0x58(%rbp)
  10:	48 89 75 a0          	mov    %rsi,-0x60(%rbp)
  14:	48 89 55 98          	mov    %rdx,-0x68(%rbp)
  18:	64 48 8b 04 25 28 00 	mov    %fs:0x28,%rax
  1f:	00 00 
  21:	48 89 45 f8          	mov    %rax,-0x8(%rbp)
  25:	31 c0                	xor    %eax,%eax
  27:	48 8b 55 a0          	mov    -0x60(%rbp),%rdx
  2b:	48 8d 45 d0          	lea    -0x30(%rbp),%rax
  2f:	48 89 d6             	mov    %rdx,%rsi
  32:	48 89 c7             	mov    %rax,%rdi
  35:	e8 00 00 00 00       	call   3a <_ZSt8_DestroyISt15_Deque_iteratorIiRiPiEiEvT_S4_RSaIT0_E+0x3a>
  3a:	48 8b 55 a8          	mov    -0x58(%rbp),%rdx
  3e:	48 8d 45 b0          	lea    -0x50(%rbp),%rax
  42:	48 89 d6             	mov    %rdx,%rsi
  45:	48 89 c7             	mov    %rax,%rdi
  48:	e8 00 00 00 00       	call   4d <_ZSt8_DestroyISt15_Deque_iteratorIiRiPiEiEvT_S4_RSaIT0_E+0x4d>
  4d:	48 8d 55 d0          	lea    -0x30(%rbp),%rdx
  51:	48 8d 45 b0          	lea    -0x50(%rbp),%rax
  55:	48 89 d6             	mov    %rdx,%rsi
  58:	48 89 c7             	mov    %rax,%rdi
  5b:	e8 00 00 00 00       	call   60 <_ZSt8_DestroyISt15_Deque_iteratorIiRiPiEiEvT_S4_RSaIT0_E+0x60>
  60:	90                   	nop
  61:	48 8b 45 f8          	mov    -0x8(%rbp),%rax
  65:	64 48 2b 04 25 28 00 	sub    %fs:0x28,%rax
  6c:	00 00 
  6e:	74 05                	je     75 <_ZSt8_DestroyISt15_Deque_iteratorIiRiPiEiEvT_S4_RSaIT0_E+0x75>
  70:	e8 00 00 00 00       	call   75 <_ZSt8_DestroyISt15_Deque_iteratorIiRiPiEiEvT_S4_RSaIT0_E+0x75>
  75:	c9                   	leave  
  76:	c3                   	ret    

Disassembly of section .text._ZSt22__copy_move_backward_aILb1ESt15_Deque_iteratorIiRiPiES3_ET1_T0_S5_S4_:

0000000000000000 <_ZSt22__copy_move_backward_aILb1ESt15_Deque_iteratorIiRiPiES3_ET1_T0_S5_S4_>:
   0:	f3 0f 1e fa          	endbr64 
   4:	55                   	push   %rbp
   5:	48 89 e5             	mov    %rsp,%rbp
   8:	48 81 ec 10 01 00 00 	sub    $0x110,%rsp
   f:	48 89 bd 08 ff ff ff 	mov    %rdi,-0xf8(%rbp)
  16:	48 89 b5 00 ff ff ff 	mov    %rsi,-0x100(%rbp)
  1d:	48 89 95 f8 fe ff ff 	mov    %rdx,-0x108(%rbp)
  24:	48 89 8d f0 fe ff ff 	mov    %rcx,-0x110(%rbp)
  2b:	64 48 8b 04 25 28 00 	mov    %fs:0x28,%rax
  32:	00 00 
  34:	48 89 45 f8          	mov    %rax,-0x8(%rbp)
  38:	31 c0                	xor    %eax,%eax
  3a:	48 8b 95 f0 fe ff ff 	mov    -0x110(%rbp),%rdx
  41:	48 8d 45 90          	lea    -0x70(%rbp),%rax
  45:	48 89 d6             	mov    %rdx,%rsi
  48:	48 89 c7             	mov    %rax,%rdi
  4b:	e8 00 00 00 00       	call   50 <_ZSt22__copy_move_backward_aILb1ESt15_Deque_iteratorIiRiPiES3_ET1_T0_S5_S4_+0x50>
  50:	48 8d 45 b0          	lea    -0x50(%rbp),%rax
  54:	48 8d 55 90          	lea    -0x70(%rbp),%rdx
  58:	48 89 d6             	mov    %rdx,%rsi
  5b:	48 89 c7             	mov    %rax,%rdi
  5e:	e8 00 00 00 00       	call   63 <_ZSt22__copy_move_backward_aILb1ESt15_Deque_iteratorIiRiPiES3_ET1_T0_S5_S4_+0x63>
  63:	48 8b 95 f8 fe ff ff 	mov    -0x108(%rbp),%rdx
  6a:	48 8d 85 50 ff ff ff 	lea    -0xb0(%rbp),%rax
  71:	48 89 d6             	mov    %rdx,%rsi
  74:	48 89 c7             	mov    %rax,%rdi
  77:	e8 00 00 00 00       	call   7c <_ZSt22__copy_move_backward_aILb1ESt15_Deque_iteratorIiRiPiES3_ET1_T0_S5_S4_+0x7c>
  7c:	48 8d 85 70 ff ff ff 	lea    -0x90(%rbp),%rax
  83:	48 8d 95 50 ff ff ff 	lea    -0xb0(%rbp),%rdx
  8a:	48 89 d6             	mov    %rdx,%rsi
  8d:	48 89 c7             	mov    %rax,%rdi
  90:	e8 00 00 00 00       	call   95 <_ZSt22__copy_move_backward_aILb1ESt15_Deque_iteratorIiRiPiES3_ET1_T0_S5_S4_+0x95>
  95:	48 8b 95 00 ff ff ff 	mov    -0x100(%rbp),%rdx
  9c:	48 8d 85 10 ff ff ff 	lea    -0xf0(%rbp),%rax
  a3:	48 89 d6             	mov    %rdx,%rsi
  a6:	48 89 c7             	mov    %rax,%rdi
  a9:	e8 00 00 00 00       	call   ae <_ZSt22__copy_move_backward_aILb1ESt15_Deque_iteratorIiRiPiES3_ET1_T0_S5_S4_+0xae>
  ae:	48 8d 85 30 ff ff ff 	lea    -0xd0(%rbp),%rax
  b5:	48 8d 95 10 ff ff ff 	lea    -0xf0(%rbp),%rdx
  bc:	48 89 d6             	mov    %rdx,%rsi
  bf:	48 89 c7             	mov    %rax,%rdi
  c2:	e8 00 00 00 00       	call   c7 <_ZSt22__copy_move_backward_aILb1ESt15_Deque_iteratorIiRiPiES3_ET1_T0_S5_S4_+0xc7>
  c7:	48 8d 45 d0          	lea    -0x30(%rbp),%rax
  cb:	48 8d 4d b0          	lea    -0x50(%rbp),%rcx
  cf:	48 8d 95 70 ff ff ff 	lea    -0x90(%rbp),%rdx
  d6:	48 8d b5 30 ff ff ff 	lea    -0xd0(%rbp),%rsi
  dd:	48 89 c7             	mov    %rax,%rdi
  e0:	e8 00 00 00 00       	call   e5 <_ZSt22__copy_move_backward_aILb1ESt15_Deque_iteratorIiRiPiES3_ET1_T0_S5_S4_+0xe5>
  e5:	48 8b 85 08 ff ff ff 	mov    -0xf8(%rbp),%rax
  ec:	48 8d 55 d0          	lea    -0x30(%rbp),%rdx
  f0:	48 8b 8d f0 fe ff ff 	mov    -0x110(%rbp),%rcx
  f7:	48 89 ce             	mov    %rcx,%rsi
  fa:	48 89 c7             	mov    %rax,%rdi
  fd:	e8 00 00 00 00       	call   102 <_ZSt22__copy_move_backward_aILb1ESt15_Deque_iteratorIiRiPiES3_ET1_T0_S5_S4_+0x102>
 102:	48 8b 45 f8          	mov    -0x8(%rbp),%rax
 106:	64 48 2b 04 25 28 00 	sub    %fs:0x28,%rax
 10d:	00 00 
 10f:	74 05                	je     116 <_ZSt22__copy_move_backward_aILb1ESt15_Deque_iteratorIiRiPiES3_ET1_T0_S5_S4_+0x116>
 111:	e8 00 00 00 00       	call   116 <_ZSt22__copy_move_backward_aILb1ESt15_Deque_iteratorIiRiPiES3_ET1_T0_S5_S4_+0x116>
 116:	48 8b 85 08 ff ff ff 	mov    -0xf8(%rbp),%rax
 11d:	c9                   	leave  
 11e:	c3                   	ret    

Disassembly of section .text._ZNK9__gnu_cxx13new_allocatorIPiE11_M_max_sizeEv:

0000000000000000 <_ZNK9__gnu_cxx13new_allocatorIPiE11_M_max_sizeEv>:
   0:	f3 0f 1e fa          	endbr64 
   4:	55                   	push   %rbp
   5:	48 89 e5             	mov    %rsp,%rbp
   8:	48 89 7d f8          	mov    %rdi,-0x8(%rbp)
   c:	48 b8 ff ff ff ff ff 	movabs $0xfffffffffffffff,%rax
  13:	ff ff 0f 
  16:	5d                   	pop    %rbp
  17:	c3                   	ret    

Disassembly of section .text._ZN9__gnu_cxx13new_allocatorIPiE8allocateEmPKv:

0000000000000000 <_ZN9__gnu_cxx13new_allocatorIPiE8allocateEmPKv>:
   0:	f3 0f 1e fa          	endbr64 
   4:	55                   	push   %rbp
   5:	48 89 e5             	mov    %rsp,%rbp
   8:	48 83 ec 20          	sub    $0x20,%rsp
   c:	48 89 7d f8          	mov    %rdi,-0x8(%rbp)
  10:	48 89 75 f0          	mov    %rsi,-0x10(%rbp)
  14:	48 89 55 e8          	mov    %rdx,-0x18(%rbp)
  18:	48 8b 45 f8          	mov    -0x8(%rbp),%rax
  1c:	48 89 c7             	mov    %rax,%rdi
  1f:	e8 00 00 00 00       	call   24 <_ZN9__gnu_cxx13new_allocatorIPiE8allocateEmPKv+0x24>
  24:	48 39 45 f0          	cmp    %rax,-0x10(%rbp)
  28:	0f 97 c0             	seta   %al
  2b:	0f b6 c0             	movzbl %al,%eax
  2e:	48 85 c0             	test   %rax,%rax
  31:	0f 95 c0             	setne  %al
  34:	84 c0                	test   %al,%al
  36:	74 1a                	je     52 <_ZN9__gnu_cxx13new_allocatorIPiE8allocateEmPKv+0x52>
  38:	48 b8 ff ff ff ff ff 	movabs $0x1fffffffffffffff,%rax
  3f:	ff ff 1f 
  42:	48 39 45 f0          	cmp    %rax,-0x10(%rbp)
  46:	76 05                	jbe    4d <_ZN9__gnu_cxx13new_allocatorIPiE8allocateEmPKv+0x4d>
  48:	e8 00 00 00 00       	call   4d <_ZN9__gnu_cxx13new_allocatorIPiE8allocateEmPKv+0x4d>
  4d:	e8 00 00 00 00       	call   52 <_ZN9__gnu_cxx13new_allocatorIPiE8allocateEmPKv+0x52>
  52:	48 8b 45 f0          	mov    -0x10(%rbp),%rax
  56:	48 c1 e0 03          	shl    $0x3,%rax
  5a:	48 89 c7             	mov    %rax,%rdi
  5d:	e8 00 00 00 00       	call   62 <_ZN9__gnu_cxx13new_allocatorIPiE8allocateEmPKv+0x62>
  62:	90                   	nop
  63:	c9                   	leave  
  64:	c3                   	ret    

Disassembly of section .text._ZNSt16allocator_traitsISaIiEE8allocateERS0_m:

0000000000000000 <_ZNSt16allocator_traitsISaIiEE8allocateERS0_m>:
   0:	f3 0f 1e fa          	endbr64 
   4:	55                   	push   %rbp
   5:	48 89 e5             	mov    %rsp,%rbp
   8:	48 83 ec 10          	sub    $0x10,%rsp
   c:	48 89 7d f8          	mov    %rdi,-0x8(%rbp)
  10:	48 89 75 f0          	mov    %rsi,-0x10(%rbp)
  14:	48 8b 4d f0          	mov    -0x10(%rbp),%rcx
  18:	48 8b 45 f8          	mov    -0x8(%rbp),%rax
  1c:	ba 00 00 00 00       	mov    $0x0,%edx
  21:	48 89 ce             	mov    %rcx,%rsi
  24:	48 89 c7             	mov    %rax,%rdi
  27:	e8 00 00 00 00       	call   2c <_ZNSt16allocator_traitsISaIiEE8allocateERS0_m+0x2c>
  2c:	c9                   	leave  
  2d:	c3                   	ret    

Disassembly of section .text._ZN9__gnu_cxx13new_allocatorIPiEC2Ev:

0000000000000000 <_ZN9__gnu_cxx13new_allocatorIPiEC1Ev>:
   0:	f3 0f 1e fa          	endbr64 
   4:	55                   	push   %rbp
   5:	48 89 e5             	mov    %rsp,%rbp
   8:	48 89 7d f8          	mov    %rdi,-0x8(%rbp)
   c:	90                   	nop
   d:	5d                   	pop    %rbp
   e:	c3                   	ret    

Disassembly of section .text._ZNSt5dequeIiSaIiEE11_S_max_sizeERKS0_:

0000000000000000 <_ZNSt5dequeIiSaIiEE11_S_max_sizeERKS0_>:
   0:	f3 0f 1e fa          	endbr64 
   4:	55                   	push   %rbp
   5:	48 89 e5             	mov    %rsp,%rbp
   8:	48 83 ec 30          	sub    $0x30,%rsp
   c:	48 89 7d d8          	mov    %rdi,-0x28(%rbp)
  10:	64 48 8b 04 25 28 00 	mov    %fs:0x28,%rax
  17:	00 00 
  19:	48 89 45 f8          	mov    %rax,-0x8(%rbp)
  1d:	31 c0                	xor    %eax,%eax
  1f:	48 b8 ff ff ff ff ff 	movabs $0x7fffffffffffffff,%rax
  26:	ff ff 7f 
  29:	48 89 45 e8          	mov    %rax,-0x18(%rbp)
  2d:	48 8b 45 d8          	mov    -0x28(%rbp),%rax
  31:	48 89 c7             	mov    %rax,%rdi
  34:	e8 00 00 00 00       	call   39 <_ZNSt5dequeIiSaIiEE11_S_max_sizeERKS0_+0x39>
  39:	48 89 45 f0          	mov    %rax,-0x10(%rbp)
  3d:	48 8d 55 f0          	lea    -0x10(%rbp),%rdx
  41:	48 8d 45 e8          	lea    -0x18(%rbp),%rax
  45:	48 89 d6             	mov    %rdx,%rsi
  48:	48 89 c7             	mov    %rax,%rdi
  4b:	e8 00 00 00 00       	call   50 <_ZNSt5dequeIiSaIiEE11_S_max_sizeERKS0_+0x50>
  50:	48 8b 00             	mov    (%rax),%rax
  53:	48 8b 55 f8          	mov    -0x8(%rbp),%rdx
  57:	64 48 2b 14 25 28 00 	sub    %fs:0x28,%rdx
  5e:	00 00 
  60:	74 05                	je     67 <_ZNSt5dequeIiSaIiEE11_S_max_sizeERKS0_+0x67>
  62:	e8 00 00 00 00       	call   67 <_ZNSt5dequeIiSaIiEE11_S_max_sizeERKS0_+0x67>
  67:	c9                   	leave  
  68:	c3                   	ret    

Disassembly of section .text._ZNSt5dequeIiSaIiEE17_M_reallocate_mapEmb:

0000000000000000 <_ZNSt5dequeIiSaIiEE17_M_reallocate_mapEmb>:
   0:	f3 0f 1e fa          	endbr64 
   4:	55                   	push   %rbp
   5:	48 89 e5             	mov    %rsp,%rbp
   8:	53                   	push   %rbx
   9:	48 83 ec 58          	sub    $0x58,%rsp
   d:	48 89 7d b8          	mov    %rdi,-0x48(%rbp)
  11:	48 89 75 b0          	mov    %rsi,-0x50(%rbp)
  15:	89 d0                	mov    %edx,%eax
  17:	88 45 ac             	mov    %al,-0x54(%rbp)
  1a:	48 8b 45 b8          	mov    -0x48(%rbp),%rax
  1e:	48 8b 50 48          	mov    0x48(%rax),%rdx
  22:	48 8b 45 b8          	mov    -0x48(%rbp),%rax
  26:	48 8b 48 28          	mov    0x28(%rax),%rcx
  2a:	48 89 d0             	mov    %rdx,%rax
  2d:	48 29 c8             	sub    %rcx,%rax
  30:	48 c1 f8 03          	sar    $0x3,%rax
  34:	48 83 c0 01          	add    $0x1,%rax
  38:	48 89 45 d0          	mov    %rax,-0x30(%rbp)
  3c:	48 8b 55 b0          	mov    -0x50(%rbp),%rdx
  40:	48 8b 45 d0          	mov    -0x30(%rbp),%rax
  44:	48 01 d0             	add    %rdx,%rax
  47:	48 89 45 d8          	mov    %rax,-0x28(%rbp)
  4b:	48 8b 45 b8          	mov    -0x48(%rbp),%rax
  4f:	48 8b 40 08          	mov    0x8(%rax),%rax
  53:	48 8b 55 d8          	mov    -0x28(%rbp),%rdx
  57:	48 01 d2             	add    %rdx,%rdx
  5a:	48 39 d0             	cmp    %rdx,%rax
  5d:	0f 86 aa 00 00 00    	jbe    10d <_ZNSt5dequeIiSaIiEE17_M_reallocate_mapEmb+0x10d>
  63:	48 8b 45 b8          	mov    -0x48(%rbp),%rax
  67:	48 8b 10             	mov    (%rax),%rdx
  6a:	48 8b 45 b8          	mov    -0x48(%rbp),%rax
  6e:	48 8b 40 08          	mov    0x8(%rax),%rax
  72:	48 2b 45 d8          	sub    -0x28(%rbp),%rax
  76:	48 d1 e8             	shr    %rax
  79:	48 8d 0c c5 00 00 00 	lea    0x0(,%rax,8),%rcx
  80:	00 
  81:	80 7d ac 00          	cmpb   $0x0,-0x54(%rbp)
  85:	74 0a                	je     91 <_ZNSt5dequeIiSaIiEE17_M_reallocate_mapEmb+0x91>
  87:	48 8b 45 b0          	mov    -0x50(%rbp),%rax
  8b:	48 c1 e0 03          	shl    $0x3,%rax
  8f:	eb 05                	jmp    96 <_ZNSt5dequeIiSaIiEE17_M_reallocate_mapEmb+0x96>
  91:	b8 00 00 00 00       	mov    $0x0,%eax
  96:	48 01 c8             	add    %rcx,%rax
  99:	48 01 d0             	add    %rdx,%rax
  9c:	48 89 45 c8          	mov    %rax,-0x38(%rbp)
  a0:	48 8b 45 b8          	mov    -0x48(%rbp),%rax
  a4:	48 8b 40 28          	mov    0x28(%rax),%rax
  a8:	48 39 45 c8          	cmp    %rax,-0x38(%rbp)
  ac:	73 28                	jae    d6 <_ZNSt5dequeIiSaIiEE17_M_reallocate_mapEmb+0xd6>
  ae:	48 8b 45 b8          	mov    -0x48(%rbp),%rax
  b2:	48 8b 40 48          	mov    0x48(%rax),%rax
  b6:	48 8d 48 08          	lea    0x8(%rax),%rcx
  ba:	48 8b 45 b8          	mov    -0x48(%rbp),%rax
  be:	48 8b 40 28          	mov    0x28(%rax),%rax
  c2:	48 8b 55 c8          	mov    -0x38(%rbp),%rdx
  c6:	48 89 ce             	mov    %rcx,%rsi
  c9:	48 89 c7             	mov    %rax,%rdi
  cc:	e8 00 00 00 00       	call   d1 <_ZNSt5dequeIiSaIiEE17_M_reallocate_mapEmb+0xd1>
  d1:	e9 09 01 00 00       	jmp    1df <_ZNSt5dequeIiSaIiEE17_M_reallocate_mapEmb+0x1df>
  d6:	48 8b 45 d0          	mov    -0x30(%rbp),%rax
  da:	48 8d 14 c5 00 00 00 	lea    0x0(,%rax,8),%rdx
  e1:	00 
  e2:	48 8b 45 c8          	mov    -0x38(%rbp),%rax
  e6:	48 01 c2             	add    %rax,%rdx
  e9:	48 8b 45 b8          	mov    -0x48(%rbp),%rax
  ed:	48 8b 40 48          	mov    0x48(%rax),%rax
  f1:	48 8d 48 08          	lea    0x8(%rax),%rcx
  f5:	48 8b 45 b8          	mov    -0x48(%rbp),%rax
  f9:	48 8b 40 28          	mov    0x28(%rax),%rax
  fd:	48 89 ce             	mov    %rcx,%rsi
 100:	48 89 c7             	mov    %rax,%rdi
 103:	e8 00 00 00 00       	call   108 <_ZNSt5dequeIiSaIiEE17_M_reallocate_mapEmb+0x108>
 108:	e9 d2 00 00 00       	jmp    1df <_ZNSt5dequeIiSaIiEE17_M_reallocate_mapEmb+0x1df>
 10d:	48 8b 45 b8          	mov    -0x48(%rbp),%rax
 111:	48 8b 58 08          	mov    0x8(%rax),%rbx
 115:	48 8b 45 b8          	mov    -0x48(%rbp),%rax
 119:	48 8d 50 08          	lea    0x8(%rax),%rdx
 11d:	48 8d 45 b0          	lea    -0x50(%rbp),%rax
 121:	48 89 c6             	mov    %rax,%rsi
 124:	48 89 d7             	mov    %rdx,%rdi
 127:	e8 00 00 00 00       	call   12c <_ZNSt5dequeIiSaIiEE17_M_reallocate_mapEmb+0x12c>
 12c:	48 8b 00             	mov    (%rax),%rax
 12f:	48 01 d8             	add    %rbx,%rax
 132:	48 83 c0 02          	add    $0x2,%rax
 136:	48 89 45 e0          	mov    %rax,-0x20(%rbp)
 13a:	48 8b 45 b8          	mov    -0x48(%rbp),%rax
 13e:	48 8b 55 e0          	mov    -0x20(%rbp),%rdx
 142:	48 89 d6             	mov    %rdx,%rsi
 145:	48 89 c7             	mov    %rax,%rdi
 148:	e8 00 00 00 00       	call   14d <_ZNSt5dequeIiSaIiEE17_M_reallocate_mapEmb+0x14d>
 14d:	48 89 45 e8          	mov    %rax,-0x18(%rbp)
 151:	48 8b 45 e0          	mov    -0x20(%rbp),%rax
 155:	48 2b 45 d8          	sub    -0x28(%rbp),%rax
 159:	48 d1 e8             	shr    %rax
 15c:	48 8d 14 c5 00 00 00 	lea    0x0(,%rax,8),%rdx
 163:	00 
 164:	80 7d ac 00          	cmpb   $0x0,-0x54(%rbp)
 168:	74 0a                	je     174 <_ZNSt5dequeIiSaIiEE17_M_reallocate_mapEmb+0x174>
 16a:	48 8b 45 b0          	mov    -0x50(%rbp),%rax
 16e:	48 c1 e0 03          	shl    $0x3,%rax
 172:	eb 05                	jmp    179 <_ZNSt5dequeIiSaIiEE17_M_reallocate_mapEmb+0x179>
 174:	b8 00 00 00 00       	mov    $0x0,%eax
 179:	48 01 c2             	add    %rax,%rdx
 17c:	48 8b 45 e8          	mov    -0x18(%rbp),%rax
 180:	48 01 d0             	add    %rdx,%rax
 183:	48 89 45 c8          	mov    %rax,-0x38(%rbp)
 187:	48 8b 45 b8          	mov    -0x48(%rbp),%rax
 18b:	48 8b 40 48          	mov    0x48(%rax),%rax
 18f:	48 8d 48 08          	lea    0x8(%rax),%rcx
 193:	48 8b 45 b8          	mov    -0x48(%rbp),%rax
 197:	48 8b 40 28          	mov    0x28(%rax),%rax
 19b:	48 8b 55 c8          	mov    -0x38(%rbp),%rdx
 19f:	48 89 ce             	mov    %rcx,%rsi
 1a2:	48 89 c7             	mov    %rax,%rdi
 1a5:	e8 00 00 00 00       	call   1aa <_ZNSt5dequeIiSaIiEE17_M_reallocate_mapEmb+0x1aa>
 1aa:	48 8b 45 b8          	mov    -0x48(%rbp),%rax
 1ae:	48 8b 55 b8          	mov    -0x48(%rbp),%rdx
 1b2:	48 8b 52 08          	mov    0x8(%rdx),%rdx
 1b6:	48 8b 4d b8          	mov    -0x48(%rbp),%rcx
 1ba:	48 8b 09             	mov    (%rcx),%rcx
 1bd:	48 89 ce             	mov    %rcx,%rsi
 1c0:	48 89 c7             	mov    %rax,%rdi
 1c3:	e8 00 00 00 00       	call   1c8 <_ZNSt5dequeIiSaIiEE17_M_reallocate_mapEmb+0x1c8>
 1c8:	48 8b 45 b8          	mov    -0x48(%rbp),%rax
 1cc:	48 8b 55 e8          	mov    -0x18(%rbp),%rdx
 1d0:	48 89 10             	mov    %rdx,(%rax)
 1d3:	48 8b 45 b8          	mov    -0x48(%rbp),%rax
 1d7:	48 8b 55 e0          	mov    -0x20(%rbp),%rdx
 1db:	48 89 50 08          	mov    %rdx,0x8(%rax)
 1df:	48 8b 45 b8          	mov    -0x48(%rbp),%rax
 1e3:	48 8d 50 10          	lea    0x10(%rax),%rdx
 1e7:	48 8b 45 c8          	mov    -0x38(%rbp),%rax
 1eb:	48 89 c6             	mov    %rax,%rsi
 1ee:	48 89 d7             	mov    %rdx,%rdi
 1f1:	e8 00 00 00 00       	call   1f6 <_ZNSt5dequeIiSaIiEE17_M_reallocate_mapEmb+0x1f6>
 1f6:	48 8b 45 b8          	mov    -0x48(%rbp),%rax
 1fa:	48 83 c0 30          	add    $0x30,%rax
 1fe:	48 8b 55 d0          	mov    -0x30(%rbp),%rdx
 202:	48 c1 e2 03          	shl    $0x3,%rdx
 206:	48 8d 4a f8          	lea    -0x8(%rdx),%rcx
 20a:	48 8b 55 c8          	mov    -0x38(%rbp),%rdx
 20e:	48 01 ca             	add    %rcx,%rdx
 211:	48 89 d6             	mov    %rdx,%rsi
 214:	48 89 c7             	mov    %rax,%rdi
 217:	e8 00 00 00 00       	call   21c <_ZNSt5dequeIiSaIiEE17_M_reallocate_mapEmb+0x21c>
 21c:	90                   	nop
 21d:	48 8b 5d f8          	mov    -0x8(%rbp),%rbx
 221:	c9                   	leave  
 222:	c3                   	ret    

Disassembly of section .text._ZSt3minIlERKT_S2_S2_:

0000000000000000 <_ZSt3minIlERKT_S2_S2_>:
   0:	f3 0f 1e fa          	endbr64 
   4:	55                   	push   %rbp
   5:	48 89 e5             	mov    %rsp,%rbp
   8:	48 89 7d f8          	mov    %rdi,-0x8(%rbp)
   c:	48 89 75 f0          	mov    %rsi,-0x10(%rbp)
  10:	48 8b 45 f0          	mov    -0x10(%rbp),%rax
  14:	48 8b 10             	mov    (%rax),%rdx
  17:	48 8b 45 f8          	mov    -0x8(%rbp),%rax
  1b:	48 8b 00             	mov    (%rax),%rax
  1e:	48 39 c2             	cmp    %rax,%rdx
  21:	7d 06                	jge    29 <_ZSt3minIlERKT_S2_S2_+0x29>
  23:	48 8b 45 f0          	mov    -0x10(%rbp),%rax
  27:	eb 04                	jmp    2d <_ZSt3minIlERKT_S2_S2_+0x2d>
  29:	48 8b 45 f8          	mov    -0x8(%rbp),%rax
  2d:	5d                   	pop    %rbp
  2e:	c3                   	ret    

Disassembly of section .text._ZSt14__copy_move_a1ILb0EPiiEN9__gnu_cxx11__enable_ifIXsrSt23__is_random_access_iterIT0_NSt15iterator_traitsIS4_E17iterator_categoryEE7__valueESt15_Deque_iteratorIT1_RSA_PSA_EE6__typeES4_S4_SD_:

0000000000000000 <_ZSt14__copy_move_a1ILb0EPiiEN9__gnu_cxx11__enable_ifIXsrSt23__is_random_access_iterIT0_NSt15iterator_traitsIS4_E17iterator_categoryEE7__valueESt15_Deque_iteratorIT1_RSA_PSA_EE6__typeES4_S4_SD_>:
   0:	f3 0f 1e fa          	endbr64 
   4:	55                   	push   %rbp
   5:	48 89 e5             	mov    %rsp,%rbp
   8:	48 83 ec 40          	sub    $0x40,%rsp
   c:	48 89 7d d8          	mov    %rdi,-0x28(%rbp)
  10:	48 89 75 d0          	mov    %rsi,-0x30(%rbp)
  14:	48 89 55 c8          	mov    %rdx,-0x38(%rbp)
  18:	48 89 4d c0          	mov    %rcx,-0x40(%rbp)
  1c:	64 48 8b 04 25 28 00 	mov    %fs:0x28,%rax
  23:	00 00 
  25:	48 89 45 f8          	mov    %rax,-0x8(%rbp)
  29:	31 c0                	xor    %eax,%eax
  2b:	48 8b 45 c8          	mov    -0x38(%rbp),%rax
  2f:	48 2b 45 d0          	sub    -0x30(%rbp),%rax
  33:	48 c1 f8 02          	sar    $0x2,%rax
  37:	48 89 45 e0          	mov    %rax,-0x20(%rbp)
  3b:	e9 8b 00 00 00       	jmp    cb <_ZSt14__copy_move_a1ILb0EPiiEN9__gnu_cxx11__enable_ifIXsrSt23__is_random_access_iterIT0_NSt15iterator_traitsIS4_E17iterator_categoryEE7__valueESt15_Deque_iteratorIT1_RSA_PSA_EE6__typeES4_S4_SD_+0xcb>
  40:	48 8b 45 c0          	mov    -0x40(%rbp),%rax
  44:	48 8b 50 10          	mov    0x10(%rax),%rdx
  48:	48 8b 45 c0          	mov    -0x40(%rbp),%rax
  4c:	48 8b 08             	mov    (%rax),%rcx
  4f:	48 89 d0             	mov    %rdx,%rax
  52:	48 29 c8             	sub    %rcx,%rax
  55:	48 c1 f8 02          	sar    $0x2,%rax
  59:	48 89 45 e8          	mov    %rax,-0x18(%rbp)
  5d:	48 8d 55 e8          	lea    -0x18(%rbp),%rdx
  61:	48 8d 45 e0          	lea    -0x20(%rbp),%rax
  65:	48 89 d6             	mov    %rdx,%rsi
  68:	48 89 c7             	mov    %rax,%rdi
  6b:	e8 00 00 00 00       	call   70 <_ZSt14__copy_move_a1ILb0EPiiEN9__gnu_cxx11__enable_ifIXsrSt23__is_random_access_iterIT0_NSt15iterator_traitsIS4_E17iterator_categoryEE7__valueESt15_Deque_iteratorIT1_RSA_PSA_EE6__typeES4_S4_SD_+0x70>
  70:	48 8b 00             	mov    (%rax),%rax
  73:	48 89 45 f0          	mov    %rax,-0x10(%rbp)
  77:	48 8b 45 c0          	mov    -0x40(%rbp),%rax
  7b:	48 8b 10             	mov    (%rax),%rdx
  7e:	48 8b 45 f0          	mov    -0x10(%rbp),%rax
  82:	48 8d 0c 85 00 00 00 	lea    0x0(,%rax,4),%rcx
  89:	00 
  8a:	48 8b 45 d0          	mov    -0x30(%rbp),%rax
  8e:	48 01 c1             	add    %rax,%rcx
  91:	48 8b 45 d0          	mov    -0x30(%rbp),%rax
  95:	48 89 ce             	mov    %rcx,%rsi
  98:	48 89 c7             	mov    %rax,%rdi
  9b:	e8 00 00 00 00       	call   a0 <_ZSt14__copy_move_a1ILb0EPiiEN9__gnu_cxx11__enable_ifIXsrSt23__is_random_access_iterIT0_NSt15iterator_traitsIS4_E17iterator_categoryEE7__valueESt15_Deque_iteratorIT1_RSA_PSA_EE6__typeES4_S4_SD_+0xa0>
  a0:	48 8b 45 f0          	mov    -0x10(%rbp),%rax
  a4:	48 c1 e0 02          	shl    $0x2,%rax
  a8:	48 01 45 d0          	add    %rax,-0x30(%rbp)
  ac:	48 8b 55 f0          	mov    -0x10(%rbp),%rdx
  b0:	48 8b 45 c0          	mov    -0x40(%rbp),%rax
  b4:	48 89 d6             	mov    %rdx,%rsi
  b7:	48 89 c7             	mov    %rax,%rdi
  ba:	e8 00 00 00 00       	call   bf <_ZSt14__copy_move_a1ILb0EPiiEN9__gnu_cxx11__enable_ifIXsrSt23__is_random_access_iterIT0_NSt15iterator_traitsIS4_E17iterator_categoryEE7__valueESt15_Deque_iteratorIT1_RSA_PSA_EE6__typeES4_S4_SD_+0xbf>
  bf:	48 8b 45 e0          	mov    -0x20(%rbp),%rax
  c3:	48 2b 45 f0          	sub    -0x10(%rbp),%rax
  c7:	48 89 45 e0          	mov    %rax,-0x20(%rbp)
  cb:	48 8b 45 e0          	mov    -0x20(%rbp),%rax
  cf:	48 85 c0             	test   %rax,%rax
  d2:	0f 8f 68 ff ff ff    	jg     40 <_ZSt14__copy_move_a1ILb0EPiiEN9__gnu_cxx11__enable_ifIXsrSt23__is_random_access_iterIT0_NSt15iterator_traitsIS4_E17iterator_categoryEE7__valueESt15_Deque_iteratorIT1_RSA_PSA_EE6__typeES4_S4_SD_+0x40>
  d8:	48 8b 55 c0          	mov    -0x40(%rbp),%rdx
  dc:	48 8b 45 d8          	mov    -0x28(%rbp),%rax
  e0:	48 89 d6             	mov    %rdx,%rsi
  e3:	48 89 c7             	mov    %rax,%rdi
  e6:	e8 00 00 00 00       	call   eb <_ZSt14__copy_move_a1ILb0EPiiEN9__gnu_cxx11__enable_ifIXsrSt23__is_random_access_iterIT0_NSt15iterator_traitsIS4_E17iterator_categoryEE7__valueESt15_Deque_iteratorIT1_RSA_PSA_EE6__typeES4_S4_SD_+0xeb>
  eb:	48 8b 45 f8          	mov    -0x8(%rbp),%rax
  ef:	64 48 2b 04 25 28 00 	sub    %fs:0x28,%rax
  f6:	00 00 
  f8:	74 05                	je     ff <_ZSt14__copy_move_a1ILb0EPiiEN9__gnu_cxx11__enable_ifIXsrSt23__is_random_access_iterIT0_NSt15iterator_traitsIS4_E17iterator_categoryEE7__valueESt15_Deque_iteratorIT1_RSA_PSA_EE6__typeES4_S4_SD_+0xff>
  fa:	e8 00 00 00 00       	call   ff <_ZSt14__copy_move_a1ILb0EPiiEN9__gnu_cxx11__enable_ifIXsrSt23__is_random_access_iterIT0_NSt15iterator_traitsIS4_E17iterator_categoryEE7__valueESt15_Deque_iteratorIT1_RSA_PSA_EE6__typeES4_S4_SD_+0xff>
  ff:	48 8b 45 d8          	mov    -0x28(%rbp),%rax
 103:	c9                   	leave  
 104:	c3                   	ret    

Disassembly of section .text._ZSt4moveIRSt15_Deque_iteratorIiRiPiEEONSt16remove_referenceIT_E4typeEOS6_:

0000000000000000 <_ZSt4moveIRSt15_Deque_iteratorIiRiPiEEONSt16remove_referenceIT_E4typeEOS6_>:
   0:	f3 0f 1e fa          	endbr64 
   4:	55                   	push   %rbp
   5:	48 89 e5             	mov    %rsp,%rbp
   8:	48 89 7d f8          	mov    %rdi,-0x8(%rbp)
   c:	48 8b 45 f8          	mov    -0x8(%rbp),%rax
  10:	5d                   	pop    %rbp
  11:	c3                   	ret    

Disassembly of section .text._ZNSt13move_iteratorISt15_Deque_iteratorIiRiPiEEC2ES3_:

0000000000000000 <_ZNSt13move_iteratorISt15_Deque_iteratorIiRiPiEEC1ES3_>:
   0:	f3 0f 1e fa          	endbr64 
   4:	55                   	push   %rbp
   5:	48 89 e5             	mov    %rsp,%rbp
   8:	53                   	push   %rbx
   9:	48 83 ec 18          	sub    $0x18,%rsp
   d:	48 89 7d e8          	mov    %rdi,-0x18(%rbp)
  11:	48 89 75 e0          	mov    %rsi,-0x20(%rbp)
  15:	48 8b 5d e8          	mov    -0x18(%rbp),%rbx
  19:	48 8b 45 e0          	mov    -0x20(%rbp),%rax
  1d:	48 89 c7             	mov    %rax,%rdi
  20:	e8 00 00 00 00       	call   25 <_ZNSt13move_iteratorISt15_Deque_iteratorIiRiPiEEC1ES3_+0x25>
  25:	48 89 c6             	mov    %rax,%rsi
  28:	48 89 df             	mov    %rbx,%rdi
  2b:	e8 00 00 00 00       	call   30 <_ZNSt13move_iteratorISt15_Deque_iteratorIiRiPiEEC1ES3_+0x30>
  30:	90                   	nop
  31:	48 8b 5d f8          	mov    -0x8(%rbp),%rbx
  35:	c9                   	leave  
  36:	c3                   	ret    

Disassembly of section .text._ZSt18uninitialized_copyISt13move_iteratorISt15_Deque_iteratorIiRiPiEES4_ET0_T_S7_S6_:

0000000000000000 <_ZSt18uninitialized_copyISt13move_iteratorISt15_Deque_iteratorIiRiPiEES4_ET0_T_S7_S6_>:
   0:	f3 0f 1e fa          	endbr64 
   4:	55                   	push   %rbp
   5:	48 89 e5             	mov    %rsp,%rbp
   8:	48 81 ec a0 00 00 00 	sub    $0xa0,%rsp
   f:	48 89 bd 78 ff ff ff 	mov    %rdi,-0x88(%rbp)
  16:	48 89 b5 70 ff ff ff 	mov    %rsi,-0x90(%rbp)
  1d:	48 89 95 68 ff ff ff 	mov    %rdx,-0x98(%rbp)
  24:	48 89 8d 60 ff ff ff 	mov    %rcx,-0xa0(%rbp)
  2b:	64 48 8b 04 25 28 00 	mov    %fs:0x28,%rax
  32:	00 00 
  34:	48 89 45 f8          	mov    %rax,-0x8(%rbp)
  38:	31 c0                	xor    %eax,%eax
  3a:	c6 45 8f 01          	movb   $0x1,-0x71(%rbp)
  3e:	48 8b 95 60 ff ff ff 	mov    -0xa0(%rbp),%rdx
  45:	48 8d 45 d0          	lea    -0x30(%rbp),%rax
  49:	48 89 d6             	mov    %rdx,%rsi
  4c:	48 89 c7             	mov    %rax,%rdi
  4f:	e8 00 00 00 00       	call   54 <_ZSt18uninitialized_copyISt13move_iteratorISt15_Deque_iteratorIiRiPiEES4_ET0_T_S7_S6_+0x54>
  54:	48 8b 95 68 ff ff ff 	mov    -0x98(%rbp),%rdx
  5b:	48 8d 45 b0          	lea    -0x50(%rbp),%rax
  5f:	48 89 d6             	mov    %rdx,%rsi
  62:	48 89 c7             	mov    %rax,%rdi
  65:	e8 00 00 00 00       	call   6a <_ZSt18uninitialized_copyISt13move_iteratorISt15_Deque_iteratorIiRiPiEES4_ET0_T_S7_S6_+0x6a>
  6a:	48 8b 95 70 ff ff ff 	mov    -0x90(%rbp),%rdx
  71:	48 8d 45 90          	lea    -0x70(%rbp),%rax
  75:	48 89 d6             	mov    %rdx,%rsi
  78:	48 89 c7             	mov    %rax,%rdi
  7b:	e8 00 00 00 00       	call   80 <_ZSt18uninitialized_copyISt13move_iteratorISt15_Deque_iteratorIiRiPiEES4_ET0_T_S7_S6_+0x80>
  80:	48 8b 85 78 ff ff ff 	mov    -0x88(%rbp),%rax
  87:	48 8d 4d d0          	lea    -0x30(%rbp),%rcx
  8b:	48 8d 55 b0          	lea    -0x50(%rbp),%rdx
  8f:	48 8d 75 90          	lea    -0x70(%rbp),%rsi
  93:	48 89 c7             	mov    %rax,%rdi
  96:	e8 00 00 00 00       	call   9b <_ZSt18uninitialized_copyISt13move_iteratorISt15_Deque_iteratorIiRiPiEES4_ET0_T_S7_S6_+0x9b>
  9b:	48 8b 45 f8          	mov    -0x8(%rbp),%rax
  9f:	64 48 2b 04 25 28 00 	sub    %fs:0x28,%rax
  a6:	00 00 
  a8:	74 05                	je     af <_ZSt18uninitialized_copyISt13move_iteratorISt15_Deque_iteratorIiRiPiEES4_ET0_T_S7_S6_+0xaf>
  aa:	e8 00 00 00 00       	call   af <_ZSt18uninitialized_copyISt13move_iteratorISt15_Deque_iteratorIiRiPiEES4_ET0_T_S7_S6_+0xaf>
  af:	48 8b 85 78 ff ff ff 	mov    -0x88(%rbp),%rax
  b6:	c9                   	leave  
  b7:	c3                   	ret    

Disassembly of section .text._ZSt14__copy_move_a1ILb1EiRiPiiESt15_Deque_iteratorIT3_RS3_PS3_ES2_IT0_T1_T2_ESA_S6_:

0000000000000000 <_ZSt14__copy_move_a1ILb1EiRiPiiESt15_Deque_iteratorIT3_RS3_PS3_ES2_IT0_T1_T2_ESA_S6_>:
   0:	f3 0f 1e fa          	endbr64 
   4:	55                   	push   %rbp
   5:	48 89 e5             	mov    %rsp,%rbp
   8:	48 81 ec 90 00 00 00 	sub    $0x90,%rsp
   f:	48 89 7d 88          	mov    %rdi,-0x78(%rbp)
  13:	48 89 75 80          	mov    %rsi,-0x80(%rbp)
  17:	48 89 95 78 ff ff ff 	mov    %rdx,-0x88(%rbp)
  1e:	48 89 8d 70 ff ff ff 	mov    %rcx,-0x90(%rbp)
  25:	64 48 8b 04 25 28 00 	mov    %fs:0x28,%rax
  2c:	00 00 
  2e:	48 89 45 f8          	mov    %rax,-0x8(%rbp)
  32:	31 c0                	xor    %eax,%eax
  34:	48 8b 95 70 ff ff ff 	mov    -0x90(%rbp),%rdx
  3b:	48 8d 45 d0          	lea    -0x30(%rbp),%rax
  3f:	48 89 d6             	mov    %rdx,%rsi
  42:	48 89 c7             	mov    %rax,%rdi
  45:	e8 00 00 00 00       	call   4a <_ZSt14__copy_move_a1ILb1EiRiPiiESt15_Deque_iteratorIT3_RS3_PS3_ES2_IT0_T1_T2_ESA_S6_+0x4a>
  4a:	48 8b 95 78 ff ff ff 	mov    -0x88(%rbp),%rdx
  51:	48 8d 45 b0          	lea    -0x50(%rbp),%rax
  55:	48 89 d6             	mov    %rdx,%rsi
  58:	48 89 c7             	mov    %rax,%rdi
  5b:	e8 00 00 00 00       	call   60 <_ZSt14__copy_move_a1ILb1EiRiPiiESt15_Deque_iteratorIT3_RS3_PS3_ES2_IT0_T1_T2_ESA_S6_+0x60>
  60:	48 8b 55 80          	mov    -0x80(%rbp),%rdx
  64:	48 8d 45 90          	lea    -0x70(%rbp),%rax
  68:	48 89 d6             	mov    %rdx,%rsi
  6b:	48 89 c7             	mov    %rax,%rdi
  6e:	e8 00 00 00 00       	call   73 <_ZSt14__copy_move_a1ILb1EiRiPiiESt15_Deque_iteratorIT3_RS3_PS3_ES2_IT0_T1_T2_ESA_S6_+0x73>
  73:	48 8b 45 88          	mov    -0x78(%rbp),%rax
  77:	48 8d 4d d0          	lea    -0x30(%rbp),%rcx
  7b:	48 8d 55 b0          	lea    -0x50(%rbp),%rdx
  7f:	48 8d 75 90          	lea    -0x70(%rbp),%rsi
  83:	48 89 c7             	mov    %rax,%rdi
  86:	e8 00 00 00 00       	call   8b <_ZSt14__copy_move_a1ILb1EiRiPiiESt15_Deque_iteratorIT3_RS3_PS3_ES2_IT0_T1_T2_ESA_S6_+0x8b>
  8b:	48 8b 45 f8          	mov    -0x8(%rbp),%rax
  8f:	64 48 2b 04 25 28 00 	sub    %fs:0x28,%rax
  96:	00 00 
  98:	74 05                	je     9f <_ZSt14__copy_move_a1ILb1EiRiPiiESt15_Deque_iteratorIT3_RS3_PS3_ES2_IT0_T1_T2_ESA_S6_+0x9f>
  9a:	e8 00 00 00 00       	call   9f <_ZSt14__copy_move_a1ILb1EiRiPiiESt15_Deque_iteratorIT3_RS3_PS3_ES2_IT0_T1_T2_ESA_S6_+0x9f>
  9f:	48 8b 45 88          	mov    -0x78(%rbp),%rax
  a3:	c9                   	leave  
  a4:	c3                   	ret    

Disassembly of section .text._ZSt8_DestroyISt15_Deque_iteratorIiRiPiEEvT_S4_:

0000000000000000 <_ZSt8_DestroyISt15_Deque_iteratorIiRiPiEEvT_S4_>:
   0:	f3 0f 1e fa          	endbr64 
   4:	55                   	push   %rbp
   5:	48 89 e5             	mov    %rsp,%rbp
   8:	48 83 ec 60          	sub    $0x60,%rsp
   c:	48 89 7d a8          	mov    %rdi,-0x58(%rbp)
  10:	48 89 75 a0          	mov    %rsi,-0x60(%rbp)
  14:	64 48 8b 04 25 28 00 	mov    %fs:0x28,%rax
  1b:	00 00 
  1d:	48 89 45 f8          	mov    %rax,-0x8(%rbp)
  21:	31 c0                	xor    %eax,%eax
  23:	48 8b 55 a0          	mov    -0x60(%rbp),%rdx
  27:	48 8d 45 d0          	lea    -0x30(%rbp),%rax
  2b:	48 89 d6             	mov    %rdx,%rsi
  2e:	48 89 c7             	mov    %rax,%rdi
  31:	e8 00 00 00 00       	call   36 <_ZSt8_DestroyISt15_Deque_iteratorIiRiPiEEvT_S4_+0x36>
  36:	48 8b 55 a8          	mov    -0x58(%rbp),%rdx
  3a:	48 8d 45 b0          	lea    -0x50(%rbp),%rax
  3e:	48 89 d6             	mov    %rdx,%rsi
  41:	48 89 c7             	mov    %rax,%rdi
  44:	e8 00 00 00 00       	call   49 <_ZSt8_DestroyISt15_Deque_iteratorIiRiPiEEvT_S4_+0x49>
  49:	48 8d 55 d0          	lea    -0x30(%rbp),%rdx
  4d:	48 8d 45 b0          	lea    -0x50(%rbp),%rax
  51:	48 89 d6             	mov    %rdx,%rsi
  54:	48 89 c7             	mov    %rax,%rdi
  57:	e8 00 00 00 00       	call   5c <_ZSt8_DestroyISt15_Deque_iteratorIiRiPiEEvT_S4_+0x5c>
  5c:	90                   	nop
  5d:	48 8b 45 f8          	mov    -0x8(%rbp),%rax
  61:	64 48 2b 04 25 28 00 	sub    %fs:0x28,%rax
  68:	00 00 
  6a:	74 05                	je     71 <_ZSt8_DestroyISt15_Deque_iteratorIiRiPiEEvT_S4_+0x71>
  6c:	e8 00 00 00 00       	call   71 <_ZSt8_DestroyISt15_Deque_iteratorIiRiPiEEvT_S4_+0x71>
  71:	c9                   	leave  
  72:	c3                   	ret    

Disassembly of section .text._ZSt23__copy_move_backward_a1ILb1EiRiPiiESt15_Deque_iteratorIT3_RS3_PS3_ES2_IT0_T1_T2_ESA_S6_:

0000000000000000 <_ZSt23__copy_move_backward_a1ILb1EiRiPiiESt15_Deque_iteratorIT3_RS3_PS3_ES2_IT0_T1_T2_ESA_S6_>:
   0:	f3 0f 1e fa          	endbr64 
   4:	55                   	push   %rbp
   5:	48 89 e5             	mov    %rsp,%rbp
   8:	48 81 ec 90 00 00 00 	sub    $0x90,%rsp
   f:	48 89 7d 88          	mov    %rdi,-0x78(%rbp)
  13:	48 89 75 80          	mov    %rsi,-0x80(%rbp)
  17:	48 89 95 78 ff ff ff 	mov    %rdx,-0x88(%rbp)
  1e:	48 89 8d 70 ff ff ff 	mov    %rcx,-0x90(%rbp)
  25:	64 48 8b 04 25 28 00 	mov    %fs:0x28,%rax
  2c:	00 00 
  2e:	48 89 45 f8          	mov    %rax,-0x8(%rbp)
  32:	31 c0                	xor    %eax,%eax
  34:	48 8b 95 70 ff ff ff 	mov    -0x90(%rbp),%rdx
  3b:	48 8d 45 d0          	lea    -0x30(%rbp),%rax
  3f:	48 89 d6             	mov    %rdx,%rsi
  42:	48 89 c7             	mov    %rax,%rdi
  45:	e8 00 00 00 00       	call   4a <_ZSt23__copy_move_backward_a1ILb1EiRiPiiESt15_Deque_iteratorIT3_RS3_PS3_ES2_IT0_T1_T2_ESA_S6_+0x4a>
  4a:	48 8b 95 78 ff ff ff 	mov    -0x88(%rbp),%rdx
  51:	48 8d 45 b0          	lea    -0x50(%rbp),%rax
  55:	48 89 d6             	mov    %rdx,%rsi
  58:	48 89 c7             	mov    %rax,%rdi
  5b:	e8 00 00 00 00       	call   60 <_ZSt23__copy_move_backward_a1ILb1EiRiPiiESt15_Deque_iteratorIT3_RS3_PS3_ES2_IT0_T1_T2_ESA_S6_+0x60>
  60:	48 8b 55 80          	mov    -0x80(%rbp),%rdx
  64:	48 8d 45 90          	lea    -0x70(%rbp),%rax
  68:	48 89 d6             	mov    %rdx,%rsi
  6b:	48 89 c7             	mov    %rax,%rdi
  6e:	e8 00 00 00 00       	call   73 <_ZSt23__copy_move_backward_a1ILb1EiRiPiiESt15_Deque_iteratorIT3_RS3_PS3_ES2_IT0_T1_T2_ESA_S6_+0x73>
  73:	48 8b 45 88          	mov    -0x78(%rbp),%rax
  77:	48 8d 4d d0          	lea    -0x30(%rbp),%rcx
  7b:	48 8d 55 b0          	lea    -0x50(%rbp),%rdx
  7f:	48 8d 75 90          	lea    -0x70(%rbp),%rsi
  83:	48 89 c7             	mov    %rax,%rdi
  86:	e8 00 00 00 00       	call   8b <_ZSt23__copy_move_backward_a1ILb1EiRiPiiESt15_Deque_iteratorIT3_RS3_PS3_ES2_IT0_T1_T2_ESA_S6_+0x8b>
  8b:	48 8b 45 f8          	mov    -0x8(%rbp),%rax
  8f:	64 48 2b 04 25 28 00 	sub    %fs:0x28,%rax
  96:	00 00 
  98:	74 05                	je     9f <_ZSt23__copy_move_backward_a1ILb1EiRiPiiESt15_Deque_iteratorIT3_RS3_PS3_ES2_IT0_T1_T2_ESA_S6_+0x9f>
  9a:	e8 00 00 00 00       	call   9f <_ZSt23__copy_move_backward_a1ILb1EiRiPiiESt15_Deque_iteratorIT3_RS3_PS3_ES2_IT0_T1_T2_ESA_S6_+0x9f>
  9f:	48 8b 45 88          	mov    -0x78(%rbp),%rax
  a3:	c9                   	leave  
  a4:	c3                   	ret    

Disassembly of section .text._ZNK9__gnu_cxx13new_allocatorIiE11_M_max_sizeEv:

0000000000000000 <_ZNK9__gnu_cxx13new_allocatorIiE11_M_max_sizeEv>:
   0:	f3 0f 1e fa          	endbr64 
   4:	55                   	push   %rbp
   5:	48 89 e5             	mov    %rsp,%rbp
   8:	48 89 7d f8          	mov    %rdi,-0x8(%rbp)
   c:	48 b8 ff ff ff ff ff 	movabs $0x1fffffffffffffff,%rax
  13:	ff ff 1f 
  16:	5d                   	pop    %rbp
  17:	c3                   	ret    

Disassembly of section .text._ZN9__gnu_cxx13new_allocatorIiE8allocateEmPKv:

0000000000000000 <_ZN9__gnu_cxx13new_allocatorIiE8allocateEmPKv>:
   0:	f3 0f 1e fa          	endbr64 
   4:	55                   	push   %rbp
   5:	48 89 e5             	mov    %rsp,%rbp
   8:	48 83 ec 20          	sub    $0x20,%rsp
   c:	48 89 7d f8          	mov    %rdi,-0x8(%rbp)
  10:	48 89 75 f0          	mov    %rsi,-0x10(%rbp)
  14:	48 89 55 e8          	mov    %rdx,-0x18(%rbp)
  18:	48 8b 45 f8          	mov    -0x8(%rbp),%rax
  1c:	48 89 c7             	mov    %rax,%rdi
  1f:	e8 00 00 00 00       	call   24 <_ZN9__gnu_cxx13new_allocatorIiE8allocateEmPKv+0x24>
  24:	48 39 45 f0          	cmp    %rax,-0x10(%rbp)
  28:	0f 97 c0             	seta   %al
  2b:	0f b6 c0             	movzbl %al,%eax
  2e:	48 85 c0             	test   %rax,%rax
  31:	0f 95 c0             	setne  %al
  34:	84 c0                	test   %al,%al
  36:	74 1a                	je     52 <_ZN9__gnu_cxx13new_allocatorIiE8allocateEmPKv+0x52>
  38:	48 b8 ff ff ff ff ff 	movabs $0x3fffffffffffffff,%rax
  3f:	ff ff 3f 
  42:	48 39 45 f0          	cmp    %rax,-0x10(%rbp)
  46:	76 05                	jbe    4d <_ZN9__gnu_cxx13new_allocatorIiE8allocateEmPKv+0x4d>
  48:	e8 00 00 00 00       	call   4d <_ZN9__gnu_cxx13new_allocatorIiE8allocateEmPKv+0x4d>
  4d:	e8 00 00 00 00       	call   52 <_ZN9__gnu_cxx13new_allocatorIiE8allocateEmPKv+0x52>
  52:	48 8b 45 f0          	mov    -0x10(%rbp),%rax
  56:	48 c1 e0 02          	shl    $0x2,%rax
  5a:	48 89 c7             	mov    %rax,%rdi
  5d:	e8 00 00 00 00       	call   62 <_ZN9__gnu_cxx13new_allocatorIiE8allocateEmPKv+0x62>
  62:	90                   	nop
  63:	c9                   	leave  
  64:	c3                   	ret    

Disassembly of section .text._ZNSt16allocator_traitsISaIiEE8max_sizeERKS0_:

0000000000000000 <_ZNSt16allocator_traitsISaIiEE8max_sizeERKS0_>:
   0:	f3 0f 1e fa          	endbr64 
   4:	55                   	push   %rbp
   5:	48 89 e5             	mov    %rsp,%rbp
   8:	48 83 ec 10          	sub    $0x10,%rsp
   c:	48 89 7d f8          	mov    %rdi,-0x8(%rbp)
  10:	48 8b 45 f8          	mov    -0x8(%rbp),%rax
  14:	48 89 c7             	mov    %rax,%rdi
  17:	e8 00 00 00 00       	call   1c <_ZNSt16allocator_traitsISaIiEE8max_sizeERKS0_+0x1c>
  1c:	c9                   	leave  
  1d:	c3                   	ret    

Disassembly of section .text._ZSt3minImERKT_S2_S2_:

0000000000000000 <_ZSt3minImERKT_S2_S2_>:
   0:	f3 0f 1e fa          	endbr64 
   4:	55                   	push   %rbp
   5:	48 89 e5             	mov    %rsp,%rbp
   8:	48 89 7d f8          	mov    %rdi,-0x8(%rbp)
   c:	48 89 75 f0          	mov    %rsi,-0x10(%rbp)
  10:	48 8b 45 f0          	mov    -0x10(%rbp),%rax
  14:	48 8b 10             	mov    (%rax),%rdx
  17:	48 8b 45 f8          	mov    -0x8(%rbp),%rax
  1b:	48 8b 00             	mov    (%rax),%rax
  1e:	48 39 c2             	cmp    %rax,%rdx
  21:	73 06                	jae    29 <_ZSt3minImERKT_S2_S2_+0x29>
  23:	48 8b 45 f0          	mov    -0x10(%rbp),%rax
  27:	eb 04                	jmp    2d <_ZSt3minImERKT_S2_S2_+0x2d>
  29:	48 8b 45 f8          	mov    -0x8(%rbp),%rax
  2d:	5d                   	pop    %rbp
  2e:	c3                   	ret    

Disassembly of section .text._ZSt4copyIPPiS1_ET0_T_S3_S2_:

0000000000000000 <_ZSt4copyIPPiS1_ET0_T_S3_S2_>:
   0:	f3 0f 1e fa          	endbr64 
   4:	55                   	push   %rbp
   5:	48 89 e5             	mov    %rsp,%rbp
   8:	53                   	push   %rbx
   9:	48 83 ec 28          	sub    $0x28,%rsp
   d:	48 89 7d e8          	mov    %rdi,-0x18(%rbp)
  11:	48 89 75 e0          	mov    %rsi,-0x20(%rbp)
  15:	48 89 55 d8          	mov    %rdx,-0x28(%rbp)
  19:	48 8b 45 e0          	mov    -0x20(%rbp),%rax
  1d:	48 89 c7             	mov    %rax,%rdi
  20:	e8 00 00 00 00       	call   25 <_ZSt4copyIPPiS1_ET0_T_S3_S2_+0x25>
  25:	48 89 c3             	mov    %rax,%rbx
  28:	48 8b 45 e8          	mov    -0x18(%rbp),%rax
  2c:	48 89 c7             	mov    %rax,%rdi
  2f:	e8 00 00 00 00       	call   34 <_ZSt4copyIPPiS1_ET0_T_S3_S2_+0x34>
  34:	48 89 c1             	mov    %rax,%rcx
  37:	48 8b 45 d8          	mov    -0x28(%rbp),%rax
  3b:	48 89 c2             	mov    %rax,%rdx
  3e:	48 89 de             	mov    %rbx,%rsi
  41:	48 89 cf             	mov    %rcx,%rdi
  44:	e8 00 00 00 00       	call   49 <_ZSt4copyIPPiS1_ET0_T_S3_S2_+0x49>
  49:	48 8b 5d f8          	mov    -0x8(%rbp),%rbx
  4d:	c9                   	leave  
  4e:	c3                   	ret    

Disassembly of section .text._ZSt13copy_backwardIPPiS1_ET0_T_S3_S2_:

0000000000000000 <_ZSt13copy_backwardIPPiS1_ET0_T_S3_S2_>:
   0:	f3 0f 1e fa          	endbr64 
   4:	55                   	push   %rbp
   5:	48 89 e5             	mov    %rsp,%rbp
   8:	53                   	push   %rbx
   9:	48 83 ec 28          	sub    $0x28,%rsp
   d:	48 89 7d e8          	mov    %rdi,-0x18(%rbp)
  11:	48 89 75 e0          	mov    %rsi,-0x20(%rbp)
  15:	48 89 55 d8          	mov    %rdx,-0x28(%rbp)
  19:	48 8b 45 e0          	mov    -0x20(%rbp),%rax
  1d:	48 89 c7             	mov    %rax,%rdi
  20:	e8 00 00 00 00       	call   25 <_ZSt13copy_backwardIPPiS1_ET0_T_S3_S2_+0x25>
  25:	48 89 c3             	mov    %rax,%rbx
  28:	48 8b 45 e8          	mov    -0x18(%rbp),%rax
  2c:	48 89 c7             	mov    %rax,%rdi
  2f:	e8 00 00 00 00       	call   34 <_ZSt13copy_backwardIPPiS1_ET0_T_S3_S2_+0x34>
  34:	48 89 c1             	mov    %rax,%rcx
  37:	48 8b 45 d8          	mov    -0x28(%rbp),%rax
  3b:	48 89 c2             	mov    %rax,%rdx
  3e:	48 89 de             	mov    %rbx,%rsi
  41:	48 89 cf             	mov    %rcx,%rdi
  44:	e8 00 00 00 00       	call   49 <_ZSt13copy_backwardIPPiS1_ET0_T_S3_S2_+0x49>
  49:	48 8b 5d f8          	mov    -0x8(%rbp),%rbx
  4d:	c9                   	leave  
  4e:	c3                   	ret    

Disassembly of section .text._ZSt14__copy_move_a1ILb0EPiS0_ET1_T0_S2_S1_:

0000000000000000 <_ZSt14__copy_move_a1ILb0EPiS0_ET1_T0_S2_S1_>:
   0:	f3 0f 1e fa          	endbr64 
   4:	55                   	push   %rbp
   5:	48 89 e5             	mov    %rsp,%rbp
   8:	48 83 ec 20          	sub    $0x20,%rsp
   c:	48 89 7d f8          	mov    %rdi,-0x8(%rbp)
  10:	48 89 75 f0          	mov    %rsi,-0x10(%rbp)
  14:	48 89 55 e8          	mov    %rdx,-0x18(%rbp)
  18:	48 8b 55 e8          	mov    -0x18(%rbp),%rdx
  1c:	48 8b 4d f0          	mov    -0x10(%rbp),%rcx
  20:	48 8b 45 f8          	mov    -0x8(%rbp),%rax
  24:	48 89 ce             	mov    %rcx,%rsi
  27:	48 89 c7             	mov    %rax,%rdi
  2a:	e8 00 00 00 00       	call   2f <_ZSt14__copy_move_a1ILb0EPiS0_ET1_T0_S2_S1_+0x2f>
  2f:	c9                   	leave  
  30:	c3                   	ret    

Disassembly of section .text._ZNSt20__uninitialized_copyILb1EE13__uninit_copyISt13move_iteratorISt15_Deque_iteratorIiRiPiEES6_EET0_T_S9_S8_:

0000000000000000 <_ZNSt20__uninitialized_copyILb1EE13__uninit_copyISt13move_iteratorISt15_Deque_iteratorIiRiPiEES6_EET0_T_S9_S8_>:
   0:	f3 0f 1e fa          	endbr64 
   4:	55                   	push   %rbp
   5:	48 89 e5             	mov    %rsp,%rbp
   8:	48 81 ec 90 00 00 00 	sub    $0x90,%rsp
   f:	48 89 7d 88          	mov    %rdi,-0x78(%rbp)
  13:	48 89 75 80          	mov    %rsi,-0x80(%rbp)
  17:	48 89 95 78 ff ff ff 	mov    %rdx,-0x88(%rbp)
  1e:	48 89 8d 70 ff ff ff 	mov    %rcx,-0x90(%rbp)
  25:	64 48 8b 04 25 28 00 	mov    %fs:0x28,%rax
  2c:	00 00 
  2e:	48 89 45 f8          	mov    %rax,-0x8(%rbp)
  32:	31 c0                	xor    %eax,%eax
  34:	48 8b 95 70 ff ff ff 	mov    -0x90(%rbp),%rdx
  3b:	48 8d 45 d0          	lea    -0x30(%rbp),%rax
  3f:	48 89 d6             	mov    %rdx,%rsi
  42:	48 89 c7             	mov    %rax,%rdi
  45:	e8 00 00 00 00       	call   4a <_ZNSt20__uninitialized_copyILb1EE13__uninit_copyISt13move_iteratorISt15_Deque_iteratorIiRiPiEES6_EET0_T_S9_S8_+0x4a>
  4a:	48 8b 95 78 ff ff ff 	mov    -0x88(%rbp),%rdx
  51:	48 8d 45 b0          	lea    -0x50(%rbp),%rax
  55:	48 89 d6             	mov    %rdx,%rsi
  58:	48 89 c7             	mov    %rax,%rdi
  5b:	e8 00 00 00 00       	call   60 <_ZNSt20__uninitialized_copyILb1EE13__uninit_copyISt13move_iteratorISt15_Deque_iteratorIiRiPiEES6_EET0_T_S9_S8_+0x60>
  60:	48 8b 55 80          	mov    -0x80(%rbp),%rdx
  64:	48 8d 45 90          	lea    -0x70(%rbp),%rax
  68:	48 89 d6             	mov    %rdx,%rsi
  6b:	48 89 c7             	mov    %rax,%rdi
  6e:	e8 00 00 00 00       	call   73 <_ZNSt20__uninitialized_copyILb1EE13__uninit_copyISt13move_iteratorISt15_Deque_iteratorIiRiPiEES6_EET0_T_S9_S8_+0x73>
  73:	48 8b 45 88          	mov    -0x78(%rbp),%rax
  77:	48 8d 4d d0          	lea    -0x30(%rbp),%rcx
  7b:	48 8d 55 b0          	lea    -0x50(%rbp),%rdx
  7f:	48 8d 75 90          	lea    -0x70(%rbp),%rsi
  83:	48 89 c7             	mov    %rax,%rdi
  86:	e8 00 00 00 00       	call   8b <_ZNSt20__uninitialized_copyILb1EE13__uninit_copyISt13move_iteratorISt15_Deque_iteratorIiRiPiEES6_EET0_T_S9_S8_+0x8b>
  8b:	48 8b 45 f8          	mov    -0x8(%rbp),%rax
  8f:	64 48 2b 04 25 28 00 	sub    %fs:0x28,%rax
  96:	00 00 
  98:	74 05                	je     9f <_ZNSt20__uninitialized_copyILb1EE13__uninit_copyISt13move_iteratorISt15_Deque_iteratorIiRiPiEES6_EET0_T_S9_S8_+0x9f>
  9a:	e8 00 00 00 00       	call   9f <_ZNSt20__uninitialized_copyILb1EE13__uninit_copyISt13move_iteratorISt15_Deque_iteratorIiRiPiEES6_EET0_T_S9_S8_+0x9f>
  9f:	48 8b 45 88          	mov    -0x78(%rbp),%rax
  a3:	c9                   	leave  
  a4:	c3                   	ret    

Disassembly of section .text._ZSt15__copy_move_ditILb1EiRiPiSt15_Deque_iteratorIiS0_S1_EET3_S2_IT0_T1_T2_ES8_S4_:

0000000000000000 <_ZSt15__copy_move_ditILb1EiRiPiSt15_Deque_iteratorIiS0_S1_EET3_S2_IT0_T1_T2_ES8_S4_>:
   0:	f3 0f 1e fa          	endbr64 
   4:	55                   	push   %rbp
   5:	48 89 e5             	mov    %rsp,%rbp
   8:	53                   	push   %rbx
   9:	48 81 ec 88 00 00 00 	sub    $0x88,%rsp
  10:	48 89 7d 88          	mov    %rdi,-0x78(%rbp)
  14:	48 89 75 80          	mov    %rsi,-0x80(%rbp)
  18:	48 89 95 78 ff ff ff 	mov    %rdx,-0x88(%rbp)
  1f:	48 89 8d 70 ff ff ff 	mov    %rcx,-0x90(%rbp)
  26:	64 48 8b 04 25 28 00 	mov    %fs:0x28,%rax
  2d:	00 00 
  2f:	48 89 45 e8          	mov    %rax,-0x18(%rbp)
  33:	31 c0                	xor    %eax,%eax
  35:	48 8b 45 80          	mov    -0x80(%rbp),%rax
  39:	48 8b 50 18          	mov    0x18(%rax),%rdx
  3d:	48 8b 85 78 ff ff ff 	mov    -0x88(%rbp),%rax
  44:	48 8b 40 18          	mov    0x18(%rax),%rax
  48:	48 39 c2             	cmp    %rax,%rdx
  4b:	0f 84 31 01 00 00    	je     182 <_ZSt15__copy_move_ditILb1EiRiPiSt15_Deque_iteratorIiS0_S1_EET3_S2_IT0_T1_T2_ES8_S4_+0x182>
  51:	48 8b 95 70 ff ff ff 	mov    -0x90(%rbp),%rdx
  58:	48 8d 45 a0          	lea    -0x60(%rbp),%rax
  5c:	48 89 d6             	mov    %rdx,%rsi
  5f:	48 89 c7             	mov    %rax,%rdi
  62:	e8 00 00 00 00       	call   67 <_ZSt15__copy_move_ditILb1EiRiPiSt15_Deque_iteratorIiS0_S1_EET3_S2_IT0_T1_T2_ES8_S4_+0x67>
  67:	48 8b 45 80          	mov    -0x80(%rbp),%rax
  6b:	48 8b 50 10          	mov    0x10(%rax),%rdx
  6f:	48 8b 45 80          	mov    -0x80(%rbp),%rax
  73:	48 8b 30             	mov    (%rax),%rsi
  76:	48 8d 45 c0          	lea    -0x40(%rbp),%rax
  7a:	48 8d 4d a0          	lea    -0x60(%rbp),%rcx
  7e:	48 89 c7             	mov    %rax,%rdi
  81:	e8 00 00 00 00       	call   86 <_ZSt15__copy_move_ditILb1EiRiPiSt15_Deque_iteratorIiS0_S1_EET3_S2_IT0_T1_T2_ES8_S4_+0x86>
  86:	48 8b 8d 70 ff ff ff 	mov    -0x90(%rbp),%rcx
  8d:	48 8b 45 c0          	mov    -0x40(%rbp),%rax
  91:	48 8b 55 c8          	mov    -0x38(%rbp),%rdx
  95:	48 89 01             	mov    %rax,(%rcx)
  98:	48 89 51 08          	mov    %rdx,0x8(%rcx)
  9c:	48 8b 45 d0          	mov    -0x30(%rbp),%rax
  a0:	48 8b 55 d8          	mov    -0x28(%rbp),%rdx
  a4:	48 89 41 10          	mov    %rax,0x10(%rcx)
  a8:	48 89 51 18          	mov    %rdx,0x18(%rcx)
  ac:	48 8b 45 80          	mov    -0x80(%rbp),%rax
  b0:	48 8b 40 18          	mov    0x18(%rax),%rax
  b4:	48 83 c0 08          	add    $0x8,%rax
  b8:	48 89 45 98          	mov    %rax,-0x68(%rbp)
  bc:	eb 72                	jmp    130 <_ZSt15__copy_move_ditILb1EiRiPiSt15_Deque_iteratorIiS0_S1_EET3_S2_IT0_T1_T2_ES8_S4_+0x130>
  be:	48 8b 95 70 ff ff ff 	mov    -0x90(%rbp),%rdx
  c5:	48 8d 45 a0          	lea    -0x60(%rbp),%rax
  c9:	48 89 d6             	mov    %rdx,%rsi
  cc:	48 89 c7             	mov    %rax,%rdi
  cf:	e8 00 00 00 00       	call   d4 <_ZSt15__copy_move_ditILb1EiRiPiSt15_Deque_iteratorIiS0_S1_EET3_S2_IT0_T1_T2_ES8_S4_+0xd4>
  d4:	48 8b 45 98          	mov    -0x68(%rbp),%rax
  d8:	48 8b 18             	mov    (%rax),%rbx
  db:	e8 00 00 00 00       	call   e0 <_ZSt15__copy_move_ditILb1EiRiPiSt15_Deque_iteratorIiS0_S1_EET3_S2_IT0_T1_T2_ES8_S4_+0xe0>
  e0:	48 c1 e0 02          	shl    $0x2,%rax
  e4:	48 8d 3c 03          	lea    (%rbx,%rax,1),%rdi
  e8:	48 8b 45 98          	mov    -0x68(%rbp),%rax
  ec:	48 8b 30             	mov    (%rax),%rsi
  ef:	48 8d 45 c0          	lea    -0x40(%rbp),%rax
  f3:	48 8d 55 a0          	lea    -0x60(%rbp),%rdx
  f7:	48 89 d1             	mov    %rdx,%rcx
  fa:	48 89 fa             	mov    %rdi,%rdx
  fd:	48 89 c7             	mov    %rax,%rdi
 100:	e8 00 00 00 00       	call   105 <_ZSt15__copy_move_ditILb1EiRiPiSt15_Deque_iteratorIiS0_S1_EET3_S2_IT0_T1_T2_ES8_S4_+0x105>
 105:	48 8b 8d 70 ff ff ff 	mov    -0x90(%rbp),%rcx
 10c:	48 8b 45 c0          	mov    -0x40(%rbp),%rax
 110:	48 8b 55 c8          	mov    -0x38(%rbp),%rdx
 114:	48 89 01             	mov    %rax,(%rcx)
 117:	48 89 51 08          	mov    %rdx,0x8(%rcx)
 11b:	48 8b 45 d0          	mov    -0x30(%rbp),%rax
 11f:	48 8b 55 d8          	mov    -0x28(%rbp),%rdx
 123:	48 89 41 10          	mov    %rax,0x10(%rcx)
 127:	48 89 51 18          	mov    %rdx,0x18(%rcx)
 12b:	48 83 45 98 08       	addq   $0x8,-0x68(%rbp)
 130:	48 8b 85 78 ff ff ff 	mov    -0x88(%rbp),%rax
 137:	48 8b 40 18          	mov    0x18(%rax),%rax
 13b:	48 39 45 98          	cmp    %rax,-0x68(%rbp)
 13f:	0f 85 79 ff ff ff    	jne    be <_ZSt15__copy_move_ditILb1EiRiPiSt15_Deque_iteratorIiS0_S1_EET3_S2_IT0_T1_T2_ES8_S4_+0xbe>
 145:	48 8b 95 70 ff ff ff 	mov    -0x90(%rbp),%rdx
 14c:	48 8d 45 c0          	lea    -0x40(%rbp),%rax
 150:	48 89 d6             	mov    %rdx,%rsi
 153:	48 89 c7             	mov    %rax,%rdi
 156:	e8 00 00 00 00       	call   15b <_ZSt15__copy_move_ditILb1EiRiPiSt15_Deque_iteratorIiS0_S1_EET3_S2_IT0_T1_T2_ES8_S4_+0x15b>
 15b:	48 8b 85 78 ff ff ff 	mov    -0x88(%rbp),%rax
 162:	48 8b 10             	mov    (%rax),%rdx
 165:	48 8b 85 78 ff ff ff 	mov    -0x88(%rbp),%rax
 16c:	48 8b 70 08          	mov    0x8(%rax),%rsi
 170:	48 8b 45 88          	mov    -0x78(%rbp),%rax
 174:	48 8d 4d c0          	lea    -0x40(%rbp),%rcx
 178:	48 89 c7             	mov    %rax,%rdi
 17b:	e8 00 00 00 00       	call   180 <_ZSt15__copy_move_ditILb1EiRiPiSt15_Deque_iteratorIiS0_S1_EET3_S2_IT0_T1_T2_ES8_S4_+0x180>
 180:	eb 37                	jmp    1b9 <_ZSt15__copy_move_ditILb1EiRiPiSt15_Deque_iteratorIiS0_S1_EET3_S2_IT0_T1_T2_ES8_S4_+0x1b9>
 182:	48 8b 95 70 ff ff ff 	mov    -0x90(%rbp),%rdx
 189:	48 8d 45 c0          	lea    -0x40(%rbp),%rax
 18d:	48 89 d6             	mov    %rdx,%rsi
 190:	48 89 c7             	mov    %rax,%rdi
 193:	e8 00 00 00 00       	call   198 <_ZSt15__copy_move_ditILb1EiRiPiSt15_Deque_iteratorIiS0_S1_EET3_S2_IT0_T1_T2_ES8_S4_+0x198>
 198:	48 8b 85 78 ff ff ff 	mov    -0x88(%rbp),%rax
 19f:	48 8b 10             	mov    (%rax),%rdx
 1a2:	48 8b 45 80          	mov    -0x80(%rbp),%rax
 1a6:	48 8b 30             	mov    (%rax),%rsi
 1a9:	48 8b 45 88          	mov    -0x78(%rbp),%rax
 1ad:	48 8d 4d c0          	lea    -0x40(%rbp),%rcx
 1b1:	48 89 c7             	mov    %rax,%rdi
 1b4:	e8 00 00 00 00       	call   1b9 <_ZSt15__copy_move_ditILb1EiRiPiSt15_Deque_iteratorIiS0_S1_EET3_S2_IT0_T1_T2_ES8_S4_+0x1b9>
 1b9:	48 8b 45 e8          	mov    -0x18(%rbp),%rax
 1bd:	64 48 2b 04 25 28 00 	sub    %fs:0x28,%rax
 1c4:	00 00 
 1c6:	74 05                	je     1cd <_ZSt15__copy_move_ditILb1EiRiPiSt15_Deque_iteratorIiS0_S1_EET3_S2_IT0_T1_T2_ES8_S4_+0x1cd>
 1c8:	e8 00 00 00 00       	call   1cd <_ZSt15__copy_move_ditILb1EiRiPiSt15_Deque_iteratorIiS0_S1_EET3_S2_IT0_T1_T2_ES8_S4_+0x1cd>
 1cd:	48 8b 45 88          	mov    -0x78(%rbp),%rax
 1d1:	48 8b 5d f8          	mov    -0x8(%rbp),%rbx
 1d5:	c9                   	leave  
 1d6:	c3                   	ret    

Disassembly of section .text._ZNSt12_Destroy_auxILb1EE9__destroyISt15_Deque_iteratorIiRiPiEEEvT_S6_:

0000000000000000 <_ZNSt12_Destroy_auxILb1EE9__destroyISt15_Deque_iteratorIiRiPiEEEvT_S6_>:
   0:	f3 0f 1e fa          	endbr64 
   4:	55                   	push   %rbp
   5:	48 89 e5             	mov    %rsp,%rbp
   8:	48 89 7d f8          	mov    %rdi,-0x8(%rbp)
   c:	48 89 75 f0          	mov    %rsi,-0x10(%rbp)
  10:	90                   	nop
  11:	5d                   	pop    %rbp
  12:	c3                   	ret    

Disassembly of section .text._ZSt24__copy_move_backward_ditILb1EiRiPiSt15_Deque_iteratorIiS0_S1_EET3_S2_IT0_T1_T2_ES8_S4_:

0000000000000000 <_ZSt24__copy_move_backward_ditILb1EiRiPiSt15_Deque_iteratorIiS0_S1_EET3_S2_IT0_T1_T2_ES8_S4_>:
   0:	f3 0f 1e fa          	endbr64 
   4:	55                   	push   %rbp
   5:	48 89 e5             	mov    %rsp,%rbp
   8:	53                   	push   %rbx
   9:	48 81 ec 88 00 00 00 	sub    $0x88,%rsp
  10:	48 89 7d 88          	mov    %rdi,-0x78(%rbp)
  14:	48 89 75 80          	mov    %rsi,-0x80(%rbp)
  18:	48 89 95 78 ff ff ff 	mov    %rdx,-0x88(%rbp)
  1f:	48 89 8d 70 ff ff ff 	mov    %rcx,-0x90(%rbp)
  26:	64 48 8b 04 25 28 00 	mov    %fs:0x28,%rax
  2d:	00 00 
  2f:	48 89 45 e8          	mov    %rax,-0x18(%rbp)
  33:	31 c0                	xor    %eax,%eax
  35:	48 8b 45 80          	mov    -0x80(%rbp),%rax
  39:	48 8b 50 18          	mov    0x18(%rax),%rdx
  3d:	48 8b 85 78 ff ff ff 	mov    -0x88(%rbp),%rax
  44:	48 8b 40 18          	mov    0x18(%rax),%rax
  48:	48 39 c2             	cmp    %rax,%rdx
  4b:	0f 84 2d 01 00 00    	je     17e <_ZSt24__copy_move_backward_ditILb1EiRiPiSt15_Deque_iteratorIiS0_S1_EET3_S2_IT0_T1_T2_ES8_S4_+0x17e>
  51:	48 8b 95 70 ff ff ff 	mov    -0x90(%rbp),%rdx
  58:	48 8d 45 a0          	lea    -0x60(%rbp),%rax
  5c:	48 89 d6             	mov    %rdx,%rsi
  5f:	48 89 c7             	mov    %rax,%rdi
  62:	e8 00 00 00 00       	call   67 <_ZSt24__copy_move_backward_ditILb1EiRiPiSt15_Deque_iteratorIiS0_S1_EET3_S2_IT0_T1_T2_ES8_S4_+0x67>
  67:	48 8b 85 78 ff ff ff 	mov    -0x88(%rbp),%rax
  6e:	48 8b 10             	mov    (%rax),%rdx
  71:	48 8b 85 78 ff ff ff 	mov    -0x88(%rbp),%rax
  78:	48 8b 70 08          	mov    0x8(%rax),%rsi
  7c:	48 8d 45 c0          	lea    -0x40(%rbp),%rax
  80:	48 8d 4d a0          	lea    -0x60(%rbp),%rcx
  84:	48 89 c7             	mov    %rax,%rdi
  87:	e8 00 00 00 00       	call   8c <_ZSt24__copy_move_backward_ditILb1EiRiPiSt15_Deque_iteratorIiS0_S1_EET3_S2_IT0_T1_T2_ES8_S4_+0x8c>
  8c:	48 8b 8d 70 ff ff ff 	mov    -0x90(%rbp),%rcx
  93:	48 8b 45 c0          	mov    -0x40(%rbp),%rax
  97:	48 8b 55 c8          	mov    -0x38(%rbp),%rdx
  9b:	48 89 01             	mov    %rax,(%rcx)
  9e:	48 89 51 08          	mov    %rdx,0x8(%rcx)
  a2:	48 8b 45 d0          	mov    -0x30(%rbp),%rax
  a6:	48 8b 55 d8          	mov    -0x28(%rbp),%rdx
  aa:	48 89 41 10          	mov    %rax,0x10(%rcx)
  ae:	48 89 51 18          	mov    %rdx,0x18(%rcx)
  b2:	48 8b 85 78 ff ff ff 	mov    -0x88(%rbp),%rax
  b9:	48 8b 40 18          	mov    0x18(%rax),%rax
  bd:	48 83 e8 08          	sub    $0x8,%rax
  c1:	48 89 45 98          	mov    %rax,-0x68(%rbp)
  c5:	eb 72                	jmp    139 <_ZSt24__copy_move_backward_ditILb1EiRiPiSt15_Deque_iteratorIiS0_S1_EET3_S2_IT0_T1_T2_ES8_S4_+0x139>
  c7:	48 8b 95 70 ff ff ff 	mov    -0x90(%rbp),%rdx
  ce:	48 8d 45 a0          	lea    -0x60(%rbp),%rax
  d2:	48 89 d6             	mov    %rdx,%rsi
  d5:	48 89 c7             	mov    %rax,%rdi
  d8:	e8 00 00 00 00       	call   dd <_ZSt24__copy_move_backward_ditILb1EiRiPiSt15_Deque_iteratorIiS0_S1_EET3_S2_IT0_T1_T2_ES8_S4_+0xdd>
  dd:	48 8b 45 98          	mov    -0x68(%rbp),%rax
  e1:	48 8b 18             	mov    (%rax),%rbx
  e4:	e8 00 00 00 00       	call   e9 <_ZSt24__copy_move_backward_ditILb1EiRiPiSt15_Deque_iteratorIiS0_S1_EET3_S2_IT0_T1_T2_ES8_S4_+0xe9>
  e9:	48 c1 e0 02          	shl    $0x2,%rax
  ed:	48 8d 3c 03          	lea    (%rbx,%rax,1),%rdi
  f1:	48 8b 45 98          	mov    -0x68(%rbp),%rax
  f5:	48 8b 30             	mov    (%rax),%rsi
  f8:	48 8d 45 c0          	lea    -0x40(%rbp),%rax
  fc:	48 8d 55 a0          	lea    -0x60(%rbp),%rdx
 100:	48 89 d1             	mov    %rdx,%rcx
 103:	48 89 fa             	mov    %rdi,%rdx
 106:	48 89 c7             	mov    %rax,%rdi
 109:	e8 00 00 00 00       	call   10e <_ZSt24__copy_move_backward_ditILb1EiRiPiSt15_Deque_iteratorIiS0_S1_EET3_S2_IT0_T1_T2_ES8_S4_+0x10e>
 10e:	48 8b 8d 70 ff ff ff 	mov    -0x90(%rbp),%rcx
 115:	48 8b 45 c0          	mov    -0x40(%rbp),%rax
 119:	48 8b 55 c8          	mov    -0x38(%rbp),%rdx
 11d:	48 89 01             	mov    %rax,(%rcx)
 120:	48 89 51 08          	mov    %rdx,0x8(%rcx)
 124:	48 8b 45 d0          	mov    -0x30(%rbp),%rax
 128:	48 8b 55 d8          	mov    -0x28(%rbp),%rdx
 12c:	48 89 41 10          	mov    %rax,0x10(%rcx)
 130:	48 89 51 18          	mov    %rdx,0x18(%rcx)
 134:	48 83 6d 98 08       	subq   $0x8,-0x68(%rbp)
 139:	48 8b 45 80          	mov    -0x80(%rbp),%rax
 13d:	48 8b 40 18          	mov    0x18(%rax),%rax
 141:	48 39 45 98          	cmp    %rax,-0x68(%rbp)
 145:	75 80                	jne    c7 <_ZSt24__copy_move_backward_ditILb1EiRiPiSt15_Deque_iteratorIiS0_S1_EET3_S2_IT0_T1_T2_ES8_S4_+0xc7>
 147:	48 8b 95 70 ff ff ff 	mov    -0x90(%rbp),%rdx
 14e:	48 8d 45 c0          	lea    -0x40(%rbp),%rax
 152:	48 89 d6             	mov    %rdx,%rsi
 155:	48 89 c7             	mov    %rax,%rdi
 158:	e8 00 00 00 00       	call   15d <_ZSt24__copy_move_backward_ditILb1EiRiPiSt15_Deque_iteratorIiS0_S1_EET3_S2_IT0_T1_T2_ES8_S4_+0x15d>
 15d:	48 8b 45 80          	mov    -0x80(%rbp),%rax
 161:	48 8b 50 10          	mov    0x10(%rax),%rdx
 165:	48 8b 45 80          	mov    -0x80(%rbp),%rax
 169:	48 8b 30             	mov    (%rax),%rsi
 16c:	48 8b 45 88          	mov    -0x78(%rbp),%rax
 170:	48 8d 4d c0          	lea    -0x40(%rbp),%rcx
 174:	48 89 c7             	mov    %rax,%rdi
 177:	e8 00 00 00 00       	call   17c <_ZSt24__copy_move_backward_ditILb1EiRiPiSt15_Deque_iteratorIiS0_S1_EET3_S2_IT0_T1_T2_ES8_S4_+0x17c>
 17c:	eb 37                	jmp    1b5 <_ZSt24__copy_move_backward_ditILb1EiRiPiSt15_Deque_iteratorIiS0_S1_EET3_S2_IT0_T1_T2_ES8_S4_+0x1b5>
 17e:	48 8b 95 70 ff ff ff 	mov    -0x90(%rbp),%rdx
 185:	48 8d 45 c0          	lea    -0x40(%rbp),%rax
 189:	48 89 d6             	mov    %rdx,%rsi
 18c:	48 89 c7             	mov    %rax,%rdi
 18f:	e8 00 00 00 00       	call   194 <_ZSt24__copy_move_backward_ditILb1EiRiPiSt15_Deque_iteratorIiS0_S1_EET3_S2_IT0_T1_T2_ES8_S4_+0x194>
 194:	48 8b 85 78 ff ff ff 	mov    -0x88(%rbp),%rax
 19b:	48 8b 10             	mov    (%rax),%rdx
 19e:	48 8b 45 80          	mov    -0x80(%rbp),%rax
 1a2:	48 8b 30             	mov    (%rax),%rsi
 1a5:	48 8b 45 88          	mov    -0x78(%rbp),%rax
 1a9:	48 8d 4d c0          	lea    -0x40(%rbp),%rcx
 1ad:	48 89 c7             	mov    %rax,%rdi
 1b0:	e8 00 00 00 00       	call   1b5 <_ZSt24__copy_move_backward_ditILb1EiRiPiSt15_Deque_iteratorIiS0_S1_EET3_S2_IT0_T1_T2_ES8_S4_+0x1b5>
 1b5:	48 8b 45 e8          	mov    -0x18(%rbp),%rax
 1b9:	64 48 2b 04 25 28 00 	sub    %fs:0x28,%rax
 1c0:	00 00 
 1c2:	74 05                	je     1c9 <_ZSt24__copy_move_backward_ditILb1EiRiPiSt15_Deque_iteratorIiS0_S1_EET3_S2_IT0_T1_T2_ES8_S4_+0x1c9>
 1c4:	e8 00 00 00 00       	call   1c9 <_ZSt24__copy_move_backward_ditILb1EiRiPiSt15_Deque_iteratorIiS0_S1_EET3_S2_IT0_T1_T2_ES8_S4_+0x1c9>
 1c9:	48 8b 45 88          	mov    -0x78(%rbp),%rax
 1cd:	48 8b 5d f8          	mov    -0x8(%rbp),%rbx
 1d1:	c9                   	leave  
 1d2:	c3                   	ret    

Disassembly of section .text._ZNK9__gnu_cxx13new_allocatorIiE8max_sizeEv:

0000000000000000 <_ZNK9__gnu_cxx13new_allocatorIiE8max_sizeEv>:
   0:	f3 0f 1e fa          	endbr64 
   4:	55                   	push   %rbp
   5:	48 89 e5             	mov    %rsp,%rbp
   8:	48 83 ec 10          	sub    $0x10,%rsp
   c:	48 89 7d f8          	mov    %rdi,-0x8(%rbp)
  10:	48 8b 45 f8          	mov    -0x8(%rbp),%rax
  14:	48 89 c7             	mov    %rax,%rdi
  17:	e8 00 00 00 00       	call   1c <_ZNK9__gnu_cxx13new_allocatorIiE8max_sizeEv+0x1c>
  1c:	c9                   	leave  
  1d:	c3                   	ret    

Disassembly of section .text._ZSt12__miter_baseIPPiET_S2_:

0000000000000000 <_ZSt12__miter_baseIPPiET_S2_>:
   0:	f3 0f 1e fa          	endbr64 
   4:	55                   	push   %rbp
   5:	48 89 e5             	mov    %rsp,%rbp
   8:	48 89 7d f8          	mov    %rdi,-0x8(%rbp)
   c:	48 8b 45 f8          	mov    -0x8(%rbp),%rax
  10:	5d                   	pop    %rbp
  11:	c3                   	ret    

Disassembly of section .text._ZSt13__copy_move_aILb0EPPiS1_ET1_T0_S3_S2_:

0000000000000000 <_ZSt13__copy_move_aILb0EPPiS1_ET1_T0_S3_S2_>:
   0:	f3 0f 1e fa          	endbr64 
   4:	55                   	push   %rbp
   5:	48 89 e5             	mov    %rsp,%rbp
   8:	41 54                	push   %r12
   a:	53                   	push   %rbx
   b:	48 83 ec 20          	sub    $0x20,%rsp
   f:	48 89 7d e8          	mov    %rdi,-0x18(%rbp)
  13:	48 89 75 e0          	mov    %rsi,-0x20(%rbp)
  17:	48 89 55 d8          	mov    %rdx,-0x28(%rbp)
  1b:	48 8b 45 d8          	mov    -0x28(%rbp),%rax
  1f:	48 89 c7             	mov    %rax,%rdi
  22:	e8 00 00 00 00       	call   27 <_ZSt13__copy_move_aILb0EPPiS1_ET1_T0_S3_S2_+0x27>
  27:	49 89 c4             	mov    %rax,%r12
  2a:	48 8b 45 e0          	mov    -0x20(%rbp),%rax
  2e:	48 89 c7             	mov    %rax,%rdi
  31:	e8 00 00 00 00       	call   36 <_ZSt13__copy_move_aILb0EPPiS1_ET1_T0_S3_S2_+0x36>
  36:	48 89 c3             	mov    %rax,%rbx
  39:	48 8b 45 e8          	mov    -0x18(%rbp),%rax
  3d:	48 89 c7             	mov    %rax,%rdi
  40:	e8 00 00 00 00       	call   45 <_ZSt13__copy_move_aILb0EPPiS1_ET1_T0_S3_S2_+0x45>
  45:	4c 89 e2             	mov    %r12,%rdx
  48:	48 89 de             	mov    %rbx,%rsi
  4b:	48 89 c7             	mov    %rax,%rdi
  4e:	e8 00 00 00 00       	call   53 <_ZSt13__copy_move_aILb0EPPiS1_ET1_T0_S3_S2_+0x53>
  53:	48 89 c2             	mov    %rax,%rdx
  56:	48 8d 45 d8          	lea    -0x28(%rbp),%rax
  5a:	48 89 d6             	mov    %rdx,%rsi
  5d:	48 89 c7             	mov    %rax,%rdi
  60:	e8 00 00 00 00       	call   65 <_ZSt13__copy_move_aILb0EPPiS1_ET1_T0_S3_S2_+0x65>
  65:	48 83 c4 20          	add    $0x20,%rsp
  69:	5b                   	pop    %rbx
  6a:	41 5c                	pop    %r12
  6c:	5d                   	pop    %rbp
  6d:	c3                   	ret    

Disassembly of section .text._ZSt22__copy_move_backward_aILb0EPPiS1_ET1_T0_S3_S2_:

0000000000000000 <_ZSt22__copy_move_backward_aILb0EPPiS1_ET1_T0_S3_S2_>:
   0:	f3 0f 1e fa          	endbr64 
   4:	55                   	push   %rbp
   5:	48 89 e5             	mov    %rsp,%rbp
   8:	41 54                	push   %r12
   a:	53                   	push   %rbx
   b:	48 83 ec 20          	sub    $0x20,%rsp
   f:	48 89 7d e8          	mov    %rdi,-0x18(%rbp)
  13:	48 89 75 e0          	mov    %rsi,-0x20(%rbp)
  17:	48 89 55 d8          	mov    %rdx,-0x28(%rbp)
  1b:	48 8b 45 d8          	mov    -0x28(%rbp),%rax
  1f:	48 89 c7             	mov    %rax,%rdi
  22:	e8 00 00 00 00       	call   27 <_ZSt22__copy_move_backward_aILb0EPPiS1_ET1_T0_S3_S2_+0x27>
  27:	49 89 c4             	mov    %rax,%r12
  2a:	48 8b 45 e0          	mov    -0x20(%rbp),%rax
  2e:	48 89 c7             	mov    %rax,%rdi
  31:	e8 00 00 00 00       	call   36 <_ZSt22__copy_move_backward_aILb0EPPiS1_ET1_T0_S3_S2_+0x36>
  36:	48 89 c3             	mov    %rax,%rbx
  39:	48 8b 45 e8          	mov    -0x18(%rbp),%rax
  3d:	48 89 c7             	mov    %rax,%rdi
  40:	e8 00 00 00 00       	call   45 <_ZSt22__copy_move_backward_aILb0EPPiS1_ET1_T0_S3_S2_+0x45>
  45:	4c 89 e2             	mov    %r12,%rdx
  48:	48 89 de             	mov    %rbx,%rsi
  4b:	48 89 c7             	mov    %rax,%rdi
  4e:	e8 00 00 00 00       	call   53 <_ZSt22__copy_move_backward_aILb0EPPiS1_ET1_T0_S3_S2_+0x53>
  53:	48 89 c2             	mov    %rax,%rdx
  56:	48 8d 45 d8          	lea    -0x28(%rbp),%rax
  5a:	48 89 d6             	mov    %rdx,%rsi
  5d:	48 89 c7             	mov    %rax,%rdi
  60:	e8 00 00 00 00       	call   65 <_ZSt22__copy_move_backward_aILb0EPPiS1_ET1_T0_S3_S2_+0x65>
  65:	48 83 c4 20          	add    $0x20,%rsp
  69:	5b                   	pop    %rbx
  6a:	41 5c                	pop    %r12
  6c:	5d                   	pop    %rbp
  6d:	c3                   	ret    

Disassembly of section .text._ZSt14__copy_move_a2ILb0EPiS0_ET1_T0_S2_S1_:

0000000000000000 <_ZSt14__copy_move_a2ILb0EPiS0_ET1_T0_S2_S1_>:
   0:	f3 0f 1e fa          	endbr64 
   4:	55                   	push   %rbp
   5:	48 89 e5             	mov    %rsp,%rbp
   8:	48 83 ec 20          	sub    $0x20,%rsp
   c:	48 89 7d f8          	mov    %rdi,-0x8(%rbp)
  10:	48 89 75 f0          	mov    %rsi,-0x10(%rbp)
  14:	48 89 55 e8          	mov    %rdx,-0x18(%rbp)
  18:	48 8b 55 e8          	mov    -0x18(%rbp),%rdx
  1c:	48 8b 4d f0          	mov    -0x10(%rbp),%rcx
  20:	48 8b 45 f8          	mov    -0x8(%rbp),%rax
  24:	48 89 ce             	mov    %rcx,%rsi
  27:	48 89 c7             	mov    %rax,%rdi
  2a:	e8 00 00 00 00       	call   2f <_ZSt14__copy_move_a2ILb0EPiS0_ET1_T0_S2_S1_+0x2f>
  2f:	c9                   	leave  
  30:	c3                   	ret    

Disassembly of section .text._ZSt4copyISt13move_iteratorISt15_Deque_iteratorIiRiPiEES4_ET0_T_S7_S6_:

0000000000000000 <_ZSt4copyISt13move_iteratorISt15_Deque_iteratorIiRiPiEES4_ET0_T_S7_S6_>:
   0:	f3 0f 1e fa          	endbr64 
   4:	55                   	push   %rbp
   5:	48 89 e5             	mov    %rsp,%rbp
   8:	48 81 ec d0 00 00 00 	sub    $0xd0,%rsp
   f:	48 89 bd 48 ff ff ff 	mov    %rdi,-0xb8(%rbp)
  16:	48 89 b5 40 ff ff ff 	mov    %rsi,-0xc0(%rbp)
  1d:	48 89 95 38 ff ff ff 	mov    %rdx,-0xc8(%rbp)
  24:	48 89 8d 30 ff ff ff 	mov    %rcx,-0xd0(%rbp)
  2b:	64 48 8b 04 25 28 00 	mov    %fs:0x28,%rax
  32:	00 00 
  34:	48 89 45 f8          	mov    %rax,-0x8(%rbp)
  38:	31 c0                	xor    %eax,%eax
  3a:	48 8b 95 30 ff ff ff 	mov    -0xd0(%rbp),%rdx
  41:	48 8d 45 d0          	lea    -0x30(%rbp),%rax
  45:	48 89 d6             	mov    %rdx,%rsi
  48:	48 89 c7             	mov    %rax,%rdi
  4b:	e8 00 00 00 00       	call   50 <_ZSt4copyISt13move_iteratorISt15_Deque_iteratorIiRiPiEES4_ET0_T_S7_S6_+0x50>
  50:	48 8b 95 38 ff ff ff 	mov    -0xc8(%rbp),%rdx
  57:	48 8d 45 90          	lea    -0x70(%rbp),%rax
  5b:	48 89 d6             	mov    %rdx,%rsi
  5e:	48 89 c7             	mov    %rax,%rdi
  61:	e8 00 00 00 00       	call   66 <_ZSt4copyISt13move_iteratorISt15_Deque_iteratorIiRiPiEES4_ET0_T_S7_S6_+0x66>
  66:	48 8d 45 b0          	lea    -0x50(%rbp),%rax
  6a:	48 8d 55 90          	lea    -0x70(%rbp),%rdx
  6e:	48 89 d6             	mov    %rdx,%rsi
  71:	48 89 c7             	mov    %rax,%rdi
  74:	e8 00 00 00 00       	call   79 <_ZSt4copyISt13move_iteratorISt15_Deque_iteratorIiRiPiEES4_ET0_T_S7_S6_+0x79>
  79:	48 8b 95 40 ff ff ff 	mov    -0xc0(%rbp),%rdx
  80:	48 8d 85 50 ff ff ff 	lea    -0xb0(%rbp),%rax
  87:	48 89 d6             	mov    %rdx,%rsi
  8a:	48 89 c7             	mov    %rax,%rdi
  8d:	e8 00 00 00 00       	call   92 <_ZSt4copyISt13move_iteratorISt15_Deque_iteratorIiRiPiEES4_ET0_T_S7_S6_+0x92>
  92:	48 8d 85 70 ff ff ff 	lea    -0x90(%rbp),%rax
  99:	48 8d 95 50 ff ff ff 	lea    -0xb0(%rbp),%rdx
  a0:	48 89 d6             	mov    %rdx,%rsi
  a3:	48 89 c7             	mov    %rax,%rdi
  a6:	e8 00 00 00 00       	call   ab <_ZSt4copyISt13move_iteratorISt15_Deque_iteratorIiRiPiEES4_ET0_T_S7_S6_+0xab>
  ab:	48 8b 85 48 ff ff ff 	mov    -0xb8(%rbp),%rax
  b2:	48 8d 4d d0          	lea    -0x30(%rbp),%rcx
  b6:	48 8d 55 b0          	lea    -0x50(%rbp),%rdx
  ba:	48 8d b5 70 ff ff ff 	lea    -0x90(%rbp),%rsi
  c1:	48 89 c7             	mov    %rax,%rdi
  c4:	e8 00 00 00 00       	call   c9 <_ZSt4copyISt13move_iteratorISt15_Deque_iteratorIiRiPiEES4_ET0_T_S7_S6_+0xc9>
  c9:	48 8b 45 f8          	mov    -0x8(%rbp),%rax
  cd:	64 48 2b 04 25 28 00 	sub    %fs:0x28,%rax
  d4:	00 00 
  d6:	74 05                	je     dd <_ZSt4copyISt13move_iteratorISt15_Deque_iteratorIiRiPiEES4_ET0_T_S7_S6_+0xdd>
  d8:	e8 00 00 00 00       	call   dd <_ZSt4copyISt13move_iteratorISt15_Deque_iteratorIiRiPiEES4_ET0_T_S7_S6_+0xdd>
  dd:	48 8b 85 48 ff ff ff 	mov    -0xb8(%rbp),%rax
  e4:	c9                   	leave  
  e5:	c3                   	ret    

Disassembly of section .text._ZSt14__copy_move_a1ILb1EPiiEN9__gnu_cxx11__enable_ifIXsrSt23__is_random_access_iterIT0_NSt15iterator_traitsIS4_E17iterator_categoryEE7__valueESt15_Deque_iteratorIT1_RSA_PSA_EE6__typeES4_S4_SD_:

0000000000000000 <_ZSt14__copy_move_a1ILb1EPiiEN9__gnu_cxx11__enable_ifIXsrSt23__is_random_access_iterIT0_NSt15iterator_traitsIS4_E17iterator_categoryEE7__valueESt15_Deque_iteratorIT1_RSA_PSA_EE6__typeES4_S4_SD_>:
   0:	f3 0f 1e fa          	endbr64 
   4:	55                   	push   %rbp
   5:	48 89 e5             	mov    %rsp,%rbp
   8:	48 83 ec 40          	sub    $0x40,%rsp
   c:	48 89 7d d8          	mov    %rdi,-0x28(%rbp)
  10:	48 89 75 d0          	mov    %rsi,-0x30(%rbp)
  14:	48 89 55 c8          	mov    %rdx,-0x38(%rbp)
  18:	48 89 4d c0          	mov    %rcx,-0x40(%rbp)
  1c:	64 48 8b 04 25 28 00 	mov    %fs:0x28,%rax
  23:	00 00 
  25:	48 89 45 f8          	mov    %rax,-0x8(%rbp)
  29:	31 c0                	xor    %eax,%eax
  2b:	48 8b 45 c8          	mov    -0x38(%rbp),%rax
  2f:	48 2b 45 d0          	sub    -0x30(%rbp),%rax
  33:	48 c1 f8 02          	sar    $0x2,%rax
  37:	48 89 45 e0          	mov    %rax,-0x20(%rbp)
  3b:	e9 8b 00 00 00       	jmp    cb <_ZSt14__copy_move_a1ILb1EPiiEN9__gnu_cxx11__enable_ifIXsrSt23__is_random_access_iterIT0_NSt15iterator_traitsIS4_E17iterator_categoryEE7__valueESt15_Deque_iteratorIT1_RSA_PSA_EE6__typeES4_S4_SD_+0xcb>
  40:	48 8b 45 c0          	mov    -0x40(%rbp),%rax
  44:	48 8b 50 10          	mov    0x10(%rax),%rdx
  48:	48 8b 45 c0          	mov    -0x40(%rbp),%rax
  4c:	48 8b 08             	mov    (%rax),%rcx
  4f:	48 89 d0             	mov    %rdx,%rax
  52:	48 29 c8             	sub    %rcx,%rax
  55:	48 c1 f8 02          	sar    $0x2,%rax
  59:	48 89 45 e8          	mov    %rax,-0x18(%rbp)
  5d:	48 8d 55 e8          	lea    -0x18(%rbp),%rdx
  61:	48 8d 45 e0          	lea    -0x20(%rbp),%rax
  65:	48 89 d6             	mov    %rdx,%rsi
  68:	48 89 c7             	mov    %rax,%rdi
  6b:	e8 00 00 00 00       	call   70 <_ZSt14__copy_move_a1ILb1EPiiEN9__gnu_cxx11__enable_ifIXsrSt23__is_random_access_iterIT0_NSt15iterator_traitsIS4_E17iterator_categoryEE7__valueESt15_Deque_iteratorIT1_RSA_PSA_EE6__typeES4_S4_SD_+0x70>
  70:	48 8b 00             	mov    (%rax),%rax
  73:	48 89 45 f0          	mov    %rax,-0x10(%rbp)
  77:	48 8b 45 c0          	mov    -0x40(%rbp),%rax
  7b:	48 8b 10             	mov    (%rax),%rdx
  7e:	48 8b 45 f0          	mov    -0x10(%rbp),%rax
  82:	48 8d 0c 85 00 00 00 	lea    0x0(,%rax,4),%rcx
  89:	00 
  8a:	48 8b 45 d0          	mov    -0x30(%rbp),%rax
  8e:	48 01 c1             	add    %rax,%rcx
  91:	48 8b 45 d0          	mov    -0x30(%rbp),%rax
  95:	48 89 ce             	mov    %rcx,%rsi
  98:	48 89 c7             	mov    %rax,%rdi
  9b:	e8 00 00 00 00       	call   a0 <_ZSt14__copy_move_a1ILb1EPiiEN9__gnu_cxx11__enable_ifIXsrSt23__is_random_access_iterIT0_NSt15iterator_traitsIS4_E17iterator_categoryEE7__valueESt15_Deque_iteratorIT1_RSA_PSA_EE6__typeES4_S4_SD_+0xa0>
  a0:	48 8b 45 f0          	mov    -0x10(%rbp),%rax
  a4:	48 c1 e0 02          	shl    $0x2,%rax
  a8:	48 01 45 d0          	add    %rax,-0x30(%rbp)
  ac:	48 8b 55 f0          	mov    -0x10(%rbp),%rdx
  b0:	48 8b 45 c0          	mov    -0x40(%rbp),%rax
  b4:	48 89 d6             	mov    %rdx,%rsi
  b7:	48 89 c7             	mov    %rax,%rdi
  ba:	e8 00 00 00 00       	call   bf <_ZSt14__copy_move_a1ILb1EPiiEN9__gnu_cxx11__enable_ifIXsrSt23__is_random_access_iterIT0_NSt15iterator_traitsIS4_E17iterator_categoryEE7__valueESt15_Deque_iteratorIT1_RSA_PSA_EE6__typeES4_S4_SD_+0xbf>
  bf:	48 8b 45 e0          	mov    -0x20(%rbp),%rax
  c3:	48 2b 45 f0          	sub    -0x10(%rbp),%rax
  c7:	48 89 45 e0          	mov    %rax,-0x20(%rbp)
  cb:	48 8b 45 e0          	mov    -0x20(%rbp),%rax
  cf:	48 85 c0             	test   %rax,%rax
  d2:	0f 8f 68 ff ff ff    	jg     40 <_ZSt14__copy_move_a1ILb1EPiiEN9__gnu_cxx11__enable_ifIXsrSt23__is_random_access_iterIT0_NSt15iterator_traitsIS4_E17iterator_categoryEE7__valueESt15_Deque_iteratorIT1_RSA_PSA_EE6__typeES4_S4_SD_+0x40>
  d8:	48 8b 55 c0          	mov    -0x40(%rbp),%rdx
  dc:	48 8b 45 d8          	mov    -0x28(%rbp),%rax
  e0:	48 89 d6             	mov    %rdx,%rsi
  e3:	48 89 c7             	mov    %rax,%rdi
  e6:	e8 00 00 00 00       	call   eb <_ZSt14__copy_move_a1ILb1EPiiEN9__gnu_cxx11__enable_ifIXsrSt23__is_random_access_iterIT0_NSt15iterator_traitsIS4_E17iterator_categoryEE7__valueESt15_Deque_iteratorIT1_RSA_PSA_EE6__typeES4_S4_SD_+0xeb>
  eb:	48 8b 45 f8          	mov    -0x8(%rbp),%rax
  ef:	64 48 2b 04 25 28 00 	sub    %fs:0x28,%rax
  f6:	00 00 
  f8:	74 05                	je     ff <_ZSt14__copy_move_a1ILb1EPiiEN9__gnu_cxx11__enable_ifIXsrSt23__is_random_access_iterIT0_NSt15iterator_traitsIS4_E17iterator_categoryEE7__valueESt15_Deque_iteratorIT1_RSA_PSA_EE6__typeES4_S4_SD_+0xff>
  fa:	e8 00 00 00 00       	call   ff <_ZSt14__copy_move_a1ILb1EPiiEN9__gnu_cxx11__enable_ifIXsrSt23__is_random_access_iterIT0_NSt15iterator_traitsIS4_E17iterator_categoryEE7__valueESt15_Deque_iteratorIT1_RSA_PSA_EE6__typeES4_S4_SD_+0xff>
  ff:	48 8b 45 d8          	mov    -0x28(%rbp),%rax
 103:	c9                   	leave  
 104:	c3                   	ret    

Disassembly of section .text._ZSt23__copy_move_backward_a1ILb1EPiiEN9__gnu_cxx11__enable_ifIXsrSt23__is_random_access_iterIT0_NSt15iterator_traitsIS4_E17iterator_categoryEE7__valueESt15_Deque_iteratorIT1_RSA_PSA_EE6__typeES4_S4_SD_:

0000000000000000 <_ZSt23__copy_move_backward_a1ILb1EPiiEN9__gnu_cxx11__enable_ifIXsrSt23__is_random_access_iterIT0_NSt15iterator_traitsIS4_E17iterator_categoryEE7__valueESt15_Deque_iteratorIT1_RSA_PSA_EE6__typeES4_S4_SD_>:
   0:	f3 0f 1e fa          	endbr64 
   4:	55                   	push   %rbp
   5:	48 89 e5             	mov    %rsp,%rbp
   8:	48 83 ec 50          	sub    $0x50,%rsp
   c:	48 89 7d c8          	mov    %rdi,-0x38(%rbp)
  10:	48 89 75 c0          	mov    %rsi,-0x40(%rbp)
  14:	48 89 55 b8          	mov    %rdx,-0x48(%rbp)
  18:	48 89 4d b0          	mov    %rcx,-0x50(%rbp)
  1c:	64 48 8b 04 25 28 00 	mov    %fs:0x28,%rax
  23:	00 00 
  25:	48 89 45 f8          	mov    %rax,-0x8(%rbp)
  29:	31 c0                	xor    %eax,%eax
  2b:	48 8b 45 b8          	mov    -0x48(%rbp),%rax
  2f:	48 2b 45 c0          	sub    -0x40(%rbp),%rax
  33:	48 c1 f8 02          	sar    $0x2,%rax
  37:	48 89 45 d8          	mov    %rax,-0x28(%rbp)
  3b:	e9 c9 00 00 00       	jmp    109 <_ZSt23__copy_move_backward_a1ILb1EPiiEN9__gnu_cxx11__enable_ifIXsrSt23__is_random_access_iterIT0_NSt15iterator_traitsIS4_E17iterator_categoryEE7__valueESt15_Deque_iteratorIT1_RSA_PSA_EE6__typeES4_S4_SD_+0x109>
  40:	48 8b 45 b0          	mov    -0x50(%rbp),%rax
  44:	48 8b 10             	mov    (%rax),%rdx
  47:	48 8b 45 b0          	mov    -0x50(%rbp),%rax
  4b:	48 8b 48 08          	mov    0x8(%rax),%rcx
  4f:	48 89 d0             	mov    %rdx,%rax
  52:	48 29 c8             	sub    %rcx,%rax
  55:	48 c1 f8 02          	sar    $0x2,%rax
  59:	48 89 45 e0          	mov    %rax,-0x20(%rbp)
  5d:	48 8b 45 b0          	mov    -0x50(%rbp),%rax
  61:	48 8b 00             	mov    (%rax),%rax
  64:	48 89 45 e8          	mov    %rax,-0x18(%rbp)
  68:	48 8b 45 e0          	mov    -0x20(%rbp),%rax
  6c:	48 85 c0             	test   %rax,%rax
  6f:	75 27                	jne    98 <_ZSt23__copy_move_backward_a1ILb1EPiiEN9__gnu_cxx11__enable_ifIXsrSt23__is_random_access_iterIT0_NSt15iterator_traitsIS4_E17iterator_categoryEE7__valueESt15_Deque_iteratorIT1_RSA_PSA_EE6__typeES4_S4_SD_+0x98>
  71:	e8 00 00 00 00       	call   76 <_ZSt23__copy_move_backward_a1ILb1EPiiEN9__gnu_cxx11__enable_ifIXsrSt23__is_random_access_iterIT0_NSt15iterator_traitsIS4_E17iterator_categoryEE7__valueESt15_Deque_iteratorIT1_RSA_PSA_EE6__typeES4_S4_SD_+0x76>
  76:	48 89 45 e0          	mov    %rax,-0x20(%rbp)
  7a:	48 8b 45 b0          	mov    -0x50(%rbp),%rax
  7e:	48 8b 40 18          	mov    0x18(%rax),%rax
  82:	48 83 e8 08          	sub    $0x8,%rax
  86:	48 8b 10             	mov    (%rax),%rdx
  89:	48 8b 45 e0          	mov    -0x20(%rbp),%rax
  8d:	48 c1 e0 02          	shl    $0x2,%rax
  91:	48 01 d0             	add    %rdx,%rax
  94:	48 89 45 e8          	mov    %rax,-0x18(%rbp)
  98:	48 8d 55 e0          	lea    -0x20(%rbp),%rdx
  9c:	48 8d 45 d8          	lea    -0x28(%rbp),%rax
  a0:	48 89 d6             	mov    %rdx,%rsi
  a3:	48 89 c7             	mov    %rax,%rdi
  a6:	e8 00 00 00 00       	call   ab <_ZSt23__copy_move_backward_a1ILb1EPiiEN9__gnu_cxx11__enable_ifIXsrSt23__is_random_access_iterIT0_NSt15iterator_traitsIS4_E17iterator_categoryEE7__valueESt15_Deque_iteratorIT1_RSA_PSA_EE6__typeES4_S4_SD_+0xab>
  ab:	48 8b 00             	mov    (%rax),%rax
  ae:	48 89 45 f0          	mov    %rax,-0x10(%rbp)
  b2:	48 8b 45 f0          	mov    -0x10(%rbp),%rax
  b6:	48 c1 e0 02          	shl    $0x2,%rax
  ba:	48 f7 d8             	neg    %rax
  bd:	48 89 c2             	mov    %rax,%rdx
  c0:	48 8b 45 b8          	mov    -0x48(%rbp),%rax
  c4:	48 8d 0c 02          	lea    (%rdx,%rax,1),%rcx
  c8:	48 8b 55 e8          	mov    -0x18(%rbp),%rdx
  cc:	48 8b 45 b8          	mov    -0x48(%rbp),%rax
  d0:	48 89 c6             	mov    %rax,%rsi
  d3:	48 89 cf             	mov    %rcx,%rdi
  d6:	e8 00 00 00 00       	call   db <_ZSt23__copy_move_backward_a1ILb1EPiiEN9__gnu_cxx11__enable_ifIXsrSt23__is_random_access_iterIT0_NSt15iterator_traitsIS4_E17iterator_categoryEE7__valueESt15_Deque_iteratorIT1_RSA_PSA_EE6__typeES4_S4_SD_+0xdb>
  db:	48 8b 45 f0          	mov    -0x10(%rbp),%rax
  df:	48 c1 e0 02          	shl    $0x2,%rax
  e3:	48 f7 d8             	neg    %rax
  e6:	48 01 45 b8          	add    %rax,-0x48(%rbp)
  ea:	48 8b 55 f0          	mov    -0x10(%rbp),%rdx
  ee:	48 8b 45 b0          	mov    -0x50(%rbp),%rax
  f2:	48 89 d6             	mov    %rdx,%rsi
  f5:	48 89 c7             	mov    %rax,%rdi
  f8:	e8 00 00 00 00       	call   fd <_ZSt23__copy_move_backward_a1ILb1EPiiEN9__gnu_cxx11__enable_ifIXsrSt23__is_random_access_iterIT0_NSt15iterator_traitsIS4_E17iterator_categoryEE7__valueESt15_Deque_iteratorIT1_RSA_PSA_EE6__typeES4_S4_SD_+0xfd>
  fd:	48 8b 45 d8          	mov    -0x28(%rbp),%rax
 101:	48 2b 45 f0          	sub    -0x10(%rbp),%rax
 105:	48 89 45 d8          	mov    %rax,-0x28(%rbp)
 109:	48 8b 45 d8          	mov    -0x28(%rbp),%rax
 10d:	48 85 c0             	test   %rax,%rax
 110:	0f 8f 2a ff ff ff    	jg     40 <_ZSt23__copy_move_backward_a1ILb1EPiiEN9__gnu_cxx11__enable_ifIXsrSt23__is_random_access_iterIT0_NSt15iterator_traitsIS4_E17iterator_categoryEE7__valueESt15_Deque_iteratorIT1_RSA_PSA_EE6__typeES4_S4_SD_+0x40>
 116:	48 8b 55 b0          	mov    -0x50(%rbp),%rdx
 11a:	48 8b 45 c8          	mov    -0x38(%rbp),%rax
 11e:	48 89 d6             	mov    %rdx,%rsi
 121:	48 89 c7             	mov    %rax,%rdi
 124:	e8 00 00 00 00       	call   129 <_ZSt23__copy_move_backward_a1ILb1EPiiEN9__gnu_cxx11__enable_ifIXsrSt23__is_random_access_iterIT0_NSt15iterator_traitsIS4_E17iterator_categoryEE7__valueESt15_Deque_iteratorIT1_RSA_PSA_EE6__typeES4_S4_SD_+0x129>
 129:	48 8b 45 f8          	mov    -0x8(%rbp),%rax
 12d:	64 48 2b 04 25 28 00 	sub    %fs:0x28,%rax
 134:	00 00 
 136:	74 05                	je     13d <_ZSt23__copy_move_backward_a1ILb1EPiiEN9__gnu_cxx11__enable_ifIXsrSt23__is_random_access_iterIT0_NSt15iterator_traitsIS4_E17iterator_categoryEE7__valueESt15_Deque_iteratorIT1_RSA_PSA_EE6__typeES4_S4_SD_+0x13d>
 138:	e8 00 00 00 00       	call   13d <_ZSt23__copy_move_backward_a1ILb1EPiiEN9__gnu_cxx11__enable_ifIXsrSt23__is_random_access_iterIT0_NSt15iterator_traitsIS4_E17iterator_categoryEE7__valueESt15_Deque_iteratorIT1_RSA_PSA_EE6__typeES4_S4_SD_+0x13d>
 13d:	48 8b 45 c8          	mov    -0x38(%rbp),%rax
 141:	c9                   	leave  
 142:	c3                   	ret    

Disassembly of section .text._ZSt12__niter_baseIPPiET_S2_:

0000000000000000 <_ZSt12__niter_baseIPPiET_S2_>:
   0:	f3 0f 1e fa          	endbr64 
   4:	55                   	push   %rbp
   5:	48 89 e5             	mov    %rsp,%rbp
   8:	48 89 7d f8          	mov    %rdi,-0x8(%rbp)
   c:	48 8b 45 f8          	mov    -0x8(%rbp),%rax
  10:	5d                   	pop    %rbp
  11:	c3                   	ret    

Disassembly of section .text._ZSt14__copy_move_a1ILb0EPPiS1_ET1_T0_S3_S2_:

0000000000000000 <_ZSt14__copy_move_a1ILb0EPPiS1_ET1_T0_S3_S2_>:
   0:	f3 0f 1e fa          	endbr64 
   4:	55                   	push   %rbp
   5:	48 89 e5             	mov    %rsp,%rbp
   8:	48 83 ec 20          	sub    $0x20,%rsp
   c:	48 89 7d f8          	mov    %rdi,-0x8(%rbp)
  10:	48 89 75 f0          	mov    %rsi,-0x10(%rbp)
  14:	48 89 55 e8          	mov    %rdx,-0x18(%rbp)
  18:	48 8b 55 e8          	mov    -0x18(%rbp),%rdx
  1c:	48 8b 4d f0          	mov    -0x10(%rbp),%rcx
  20:	48 8b 45 f8          	mov    -0x8(%rbp),%rax
  24:	48 89 ce             	mov    %rcx,%rsi
  27:	48 89 c7             	mov    %rax,%rdi
  2a:	e8 00 00 00 00       	call   2f <_ZSt14__copy_move_a1ILb0EPPiS1_ET1_T0_S3_S2_+0x2f>
  2f:	c9                   	leave  
  30:	c3                   	ret    

Disassembly of section .text._ZSt12__niter_wrapIPPiET_RKS2_S2_:

0000000000000000 <_ZSt12__niter_wrapIPPiET_RKS2_S2_>:
   0:	f3 0f 1e fa          	endbr64 
   4:	55                   	push   %rbp
   5:	48 89 e5             	mov    %rsp,%rbp
   8:	48 89 7d f8          	mov    %rdi,-0x8(%rbp)
   c:	48 89 75 f0          	mov    %rsi,-0x10(%rbp)
  10:	48 8b 45 f0          	mov    -0x10(%rbp),%rax
  14:	5d                   	pop    %rbp
  15:	c3                   	ret    

Disassembly of section .text._ZSt23__copy_move_backward_a1ILb0EPPiS1_ET1_T0_S3_S2_:

0000000000000000 <_ZSt23__copy_move_backward_a1ILb0EPPiS1_ET1_T0_S3_S2_>:
   0:	f3 0f 1e fa          	endbr64 
   4:	55                   	push   %rbp
   5:	48 89 e5             	mov    %rsp,%rbp
   8:	48 83 ec 20          	sub    $0x20,%rsp
   c:	48 89 7d f8          	mov    %rdi,-0x8(%rbp)
  10:	48 89 75 f0          	mov    %rsi,-0x10(%rbp)
  14:	48 89 55 e8          	mov    %rdx,-0x18(%rbp)
  18:	48 8b 55 e8          	mov    -0x18(%rbp),%rdx
  1c:	48 8b 4d f0          	mov    -0x10(%rbp),%rcx
  20:	48 8b 45 f8          	mov    -0x8(%rbp),%rax
  24:	48 89 ce             	mov    %rcx,%rsi
  27:	48 89 c7             	mov    %rax,%rdi
  2a:	e8 00 00 00 00       	call   2f <_ZSt23__copy_move_backward_a1ILb0EPPiS1_ET1_T0_S3_S2_+0x2f>
  2f:	c9                   	leave  
  30:	c3                   	ret    

Disassembly of section .text._ZNSt11__copy_moveILb0ELb1ESt26random_access_iterator_tagE8__copy_mIiEEPT_PKS3_S6_S4_:

0000000000000000 <_ZNSt11__copy_moveILb0ELb1ESt26random_access_iterator_tagE8__copy_mIiEEPT_PKS3_S6_S4_>:
   0:	f3 0f 1e fa          	endbr64 
   4:	55                   	push   %rbp
   5:	48 89 e5             	mov    %rsp,%rbp
   8:	48 83 ec 30          	sub    $0x30,%rsp
   c:	48 89 7d e8          	mov    %rdi,-0x18(%rbp)
  10:	48 89 75 e0          	mov    %rsi,-0x20(%rbp)
  14:	48 89 55 d8          	mov    %rdx,-0x28(%rbp)
  18:	48 8b 45 e0          	mov    -0x20(%rbp),%rax
  1c:	48 2b 45 e8          	sub    -0x18(%rbp),%rax
  20:	48 c1 f8 02          	sar    $0x2,%rax
  24:	48 89 45 f8          	mov    %rax,-0x8(%rbp)
  28:	48 83 7d f8 00       	cmpq   $0x0,-0x8(%rbp)
  2d:	74 1f                	je     4e <_ZNSt11__copy_moveILb0ELb1ESt26random_access_iterator_tagE8__copy_mIiEEPT_PKS3_S6_S4_+0x4e>
  2f:	48 8b 45 f8          	mov    -0x8(%rbp),%rax
  33:	48 8d 14 85 00 00 00 	lea    0x0(,%rax,4),%rdx
  3a:	00 
  3b:	48 8b 4d e8          	mov    -0x18(%rbp),%rcx
  3f:	48 8b 45 d8          	mov    -0x28(%rbp),%rax
  43:	48 89 ce             	mov    %rcx,%rsi
  46:	48 89 c7             	mov    %rax,%rdi
  49:	e8 00 00 00 00       	call   4e <_ZNSt11__copy_moveILb0ELb1ESt26random_access_iterator_tagE8__copy_mIiEEPT_PKS3_S6_S4_+0x4e>
  4e:	48 8b 45 f8          	mov    -0x8(%rbp),%rax
  52:	48 8d 14 85 00 00 00 	lea    0x0(,%rax,4),%rdx
  59:	00 
  5a:	48 8b 45 d8          	mov    -0x28(%rbp),%rax
  5e:	48 01 d0             	add    %rdx,%rax
  61:	c9                   	leave  
  62:	c3                   	ret    

Disassembly of section .text._ZSt12__miter_baseISt15_Deque_iteratorIiRiPiEEDTcl12__miter_basecldtfp_4baseEEESt13move_iteratorIT_E:

0000000000000000 <_ZSt12__miter_baseISt15_Deque_iteratorIiRiPiEEDTcl12__miter_basecldtfp_4baseEEESt13move_iteratorIT_E>:
   0:	f3 0f 1e fa          	endbr64 
   4:	55                   	push   %rbp
   5:	48 89 e5             	mov    %rsp,%rbp
   8:	48 83 ec 40          	sub    $0x40,%rsp
   c:	48 89 7d c8          	mov    %rdi,-0x38(%rbp)
  10:	48 89 75 c0          	mov    %rsi,-0x40(%rbp)
  14:	64 48 8b 04 25 28 00 	mov    %fs:0x28,%rax
  1b:	00 00 
  1d:	48 89 45 f8          	mov    %rax,-0x8(%rbp)
  21:	31 c0                	xor    %eax,%eax
  23:	48 8d 45 d0          	lea    -0x30(%rbp),%rax
  27:	48 8b 55 c0          	mov    -0x40(%rbp),%rdx
  2b:	48 89 d6             	mov    %rdx,%rsi
  2e:	48 89 c7             	mov    %rax,%rdi
  31:	e8 00 00 00 00       	call   36 <_ZSt12__miter_baseISt15_Deque_iteratorIiRiPiEEDTcl12__miter_basecldtfp_4baseEEESt13move_iteratorIT_E+0x36>
  36:	48 8b 45 c8          	mov    -0x38(%rbp),%rax
  3a:	48 8d 55 d0          	lea    -0x30(%rbp),%rdx
  3e:	48 89 d6             	mov    %rdx,%rsi
  41:	48 89 c7             	mov    %rax,%rdi
  44:	e8 00 00 00 00       	call   49 <_ZSt12__miter_baseISt15_Deque_iteratorIiRiPiEEDTcl12__miter_basecldtfp_4baseEEESt13move_iteratorIT_E+0x49>
  49:	48 8b 45 f8          	mov    -0x8(%rbp),%rax
  4d:	64 48 2b 04 25 28 00 	sub    %fs:0x28,%rax
  54:	00 00 
  56:	74 05                	je     5d <_ZSt12__miter_baseISt15_Deque_iteratorIiRiPiEEDTcl12__miter_basecldtfp_4baseEEESt13move_iteratorIT_E+0x5d>
  58:	e8 00 00 00 00       	call   5d <_ZSt12__miter_baseISt15_Deque_iteratorIiRiPiEEDTcl12__miter_basecldtfp_4baseEEESt13move_iteratorIT_E+0x5d>
  5d:	48 8b 45 c8          	mov    -0x38(%rbp),%rax
  61:	c9                   	leave  
  62:	c3                   	ret    

Disassembly of section .text._ZSt14__copy_move_a1ILb1EPiS0_ET1_T0_S2_S1_:

0000000000000000 <_ZSt14__copy_move_a1ILb1EPiS0_ET1_T0_S2_S1_>:
   0:	f3 0f 1e fa          	endbr64 
   4:	55                   	push   %rbp
   5:	48 89 e5             	mov    %rsp,%rbp
   8:	48 83 ec 20          	sub    $0x20,%rsp
   c:	48 89 7d f8          	mov    %rdi,-0x8(%rbp)
  10:	48 89 75 f0          	mov    %rsi,-0x10(%rbp)
  14:	48 89 55 e8          	mov    %rdx,-0x18(%rbp)
  18:	48 8b 55 e8          	mov    -0x18(%rbp),%rdx
  1c:	48 8b 4d f0          	mov    -0x10(%rbp),%rcx
  20:	48 8b 45 f8          	mov    -0x8(%rbp),%rax
  24:	48 89 ce             	mov    %rcx,%rsi
  27:	48 89 c7             	mov    %rax,%rdi
  2a:	e8 00 00 00 00       	call   2f <_ZSt14__copy_move_a1ILb1EPiS0_ET1_T0_S2_S1_+0x2f>
  2f:	c9                   	leave  
  30:	c3                   	ret    

Disassembly of section .text._ZSt23__copy_move_backward_a1ILb1EPiS0_ET1_T0_S2_S1_:

0000000000000000 <_ZSt23__copy_move_backward_a1ILb1EPiS0_ET1_T0_S2_S1_>:
   0:	f3 0f 1e fa          	endbr64 
   4:	55                   	push   %rbp
   5:	48 89 e5             	mov    %rsp,%rbp
   8:	48 83 ec 20          	sub    $0x20,%rsp
   c:	48 89 7d f8          	mov    %rdi,-0x8(%rbp)
  10:	48 89 75 f0          	mov    %rsi,-0x10(%rbp)
  14:	48 89 55 e8          	mov    %rdx,-0x18(%rbp)
  18:	48 8b 55 e8          	mov    -0x18(%rbp),%rdx
  1c:	48 8b 4d f0          	mov    -0x10(%rbp),%rcx
  20:	48 8b 45 f8          	mov    -0x8(%rbp),%rax
  24:	48 89 ce             	mov    %rcx,%rsi
  27:	48 89 c7             	mov    %rax,%rdi
  2a:	e8 00 00 00 00       	call   2f <_ZSt23__copy_move_backward_a1ILb1EPiS0_ET1_T0_S2_S1_+0x2f>
  2f:	c9                   	leave  
  30:	c3                   	ret    

Disassembly of section .text._ZSt14__copy_move_a2ILb0EPPiS1_ET1_T0_S3_S2_:

0000000000000000 <_ZSt14__copy_move_a2ILb0EPPiS1_ET1_T0_S3_S2_>:
   0:	f3 0f 1e fa          	endbr64 
   4:	55                   	push   %rbp
   5:	48 89 e5             	mov    %rsp,%rbp
   8:	48 83 ec 20          	sub    $0x20,%rsp
   c:	48 89 7d f8          	mov    %rdi,-0x8(%rbp)
  10:	48 89 75 f0          	mov    %rsi,-0x10(%rbp)
  14:	48 89 55 e8          	mov    %rdx,-0x18(%rbp)
  18:	48 8b 55 e8          	mov    -0x18(%rbp),%rdx
  1c:	48 8b 4d f0          	mov    -0x10(%rbp),%rcx
  20:	48 8b 45 f8          	mov    -0x8(%rbp),%rax
  24:	48 89 ce             	mov    %rcx,%rsi
  27:	48 89 c7             	mov    %rax,%rdi
  2a:	e8 00 00 00 00       	call   2f <_ZSt14__copy_move_a2ILb0EPPiS1_ET1_T0_S3_S2_+0x2f>
  2f:	c9                   	leave  
  30:	c3                   	ret    

Disassembly of section .text._ZSt23__copy_move_backward_a2ILb0EPPiS1_ET1_T0_S3_S2_:

0000000000000000 <_ZSt23__copy_move_backward_a2ILb0EPPiS1_ET1_T0_S3_S2_>:
   0:	f3 0f 1e fa          	endbr64 
   4:	55                   	push   %rbp
   5:	48 89 e5             	mov    %rsp,%rbp
   8:	48 83 ec 20          	sub    $0x20,%rsp
   c:	48 89 7d f8          	mov    %rdi,-0x8(%rbp)
  10:	48 89 75 f0          	mov    %rsi,-0x10(%rbp)
  14:	48 89 55 e8          	mov    %rdx,-0x18(%rbp)
  18:	48 8b 55 e8          	mov    -0x18(%rbp),%rdx
  1c:	48 8b 4d f0          	mov    -0x10(%rbp),%rcx
  20:	48 8b 45 f8          	mov    -0x8(%rbp),%rax
  24:	48 89 ce             	mov    %rcx,%rsi
  27:	48 89 c7             	mov    %rax,%rdi
  2a:	e8 00 00 00 00       	call   2f <_ZSt23__copy_move_backward_a2ILb0EPPiS1_ET1_T0_S3_S2_+0x2f>
  2f:	c9                   	leave  
  30:	c3                   	ret    

Disassembly of section .text._ZNKSt13move_iteratorISt15_Deque_iteratorIiRiPiEE4baseEv:

0000000000000000 <_ZNKSt13move_iteratorISt15_Deque_iteratorIiRiPiEE4baseEv>:
   0:	f3 0f 1e fa          	endbr64 
   4:	55                   	push   %rbp
   5:	48 89 e5             	mov    %rsp,%rbp
   8:	48 83 ec 10          	sub    $0x10,%rsp
   c:	48 89 7d f8          	mov    %rdi,-0x8(%rbp)
  10:	48 89 75 f0          	mov    %rsi,-0x10(%rbp)
  14:	48 8b 55 f0          	mov    -0x10(%rbp),%rdx
  18:	48 8b 45 f8          	mov    -0x8(%rbp),%rax
  1c:	48 89 d6             	mov    %rdx,%rsi
  1f:	48 89 c7             	mov    %rax,%rdi
  22:	e8 00 00 00 00       	call   27 <_ZNKSt13move_iteratorISt15_Deque_iteratorIiRiPiEE4baseEv+0x27>
  27:	48 8b 45 f8          	mov    -0x8(%rbp),%rax
  2b:	c9                   	leave  
  2c:	c3                   	ret    

Disassembly of section .text._ZSt14__copy_move_a2ILb1EPiS0_ET1_T0_S2_S1_:

0000000000000000 <_ZSt14__copy_move_a2ILb1EPiS0_ET1_T0_S2_S1_>:
   0:	f3 0f 1e fa          	endbr64 
   4:	55                   	push   %rbp
   5:	48 89 e5             	mov    %rsp,%rbp
   8:	48 83 ec 20          	sub    $0x20,%rsp
   c:	48 89 7d f8          	mov    %rdi,-0x8(%rbp)
  10:	48 89 75 f0          	mov    %rsi,-0x10(%rbp)
  14:	48 89 55 e8          	mov    %rdx,-0x18(%rbp)
  18:	48 8b 55 e8          	mov    -0x18(%rbp),%rdx
  1c:	48 8b 4d f0          	mov    -0x10(%rbp),%rcx
  20:	48 8b 45 f8          	mov    -0x8(%rbp),%rax
  24:	48 89 ce             	mov    %rcx,%rsi
  27:	48 89 c7             	mov    %rax,%rdi
  2a:	e8 00 00 00 00       	call   2f <_ZSt14__copy_move_a2ILb1EPiS0_ET1_T0_S2_S1_+0x2f>
  2f:	c9                   	leave  
  30:	c3                   	ret    

Disassembly of section .text._ZSt23__copy_move_backward_a2ILb1EPiS0_ET1_T0_S2_S1_:

0000000000000000 <_ZSt23__copy_move_backward_a2ILb1EPiS0_ET1_T0_S2_S1_>:
   0:	f3 0f 1e fa          	endbr64 
   4:	55                   	push   %rbp
   5:	48 89 e5             	mov    %rsp,%rbp
   8:	48 83 ec 20          	sub    $0x20,%rsp
   c:	48 89 7d f8          	mov    %rdi,-0x8(%rbp)
  10:	48 89 75 f0          	mov    %rsi,-0x10(%rbp)
  14:	48 89 55 e8          	mov    %rdx,-0x18(%rbp)
  18:	48 8b 55 e8          	mov    -0x18(%rbp),%rdx
  1c:	48 8b 4d f0          	mov    -0x10(%rbp),%rcx
  20:	48 8b 45 f8          	mov    -0x8(%rbp),%rax
  24:	48 89 ce             	mov    %rcx,%rsi
  27:	48 89 c7             	mov    %rax,%rdi
  2a:	e8 00 00 00 00       	call   2f <_ZSt23__copy_move_backward_a2ILb1EPiS0_ET1_T0_S2_S1_+0x2f>
  2f:	c9                   	leave  
  30:	c3                   	ret    

Disassembly of section .text._ZNSt11__copy_moveILb0ELb1ESt26random_access_iterator_tagE8__copy_mIPiEEPT_PKS4_S7_S5_:

0000000000000000 <_ZNSt11__copy_moveILb0ELb1ESt26random_access_iterator_tagE8__copy_mIPiEEPT_PKS4_S7_S5_>:
   0:	f3 0f 1e fa          	endbr64 
   4:	55                   	push   %rbp
   5:	48 89 e5             	mov    %rsp,%rbp
   8:	48 83 ec 30          	sub    $0x30,%rsp
   c:	48 89 7d e8          	mov    %rdi,-0x18(%rbp)
  10:	48 89 75 e0          	mov    %rsi,-0x20(%rbp)
  14:	48 89 55 d8          	mov    %rdx,-0x28(%rbp)
  18:	48 8b 45 e0          	mov    -0x20(%rbp),%rax
  1c:	48 2b 45 e8          	sub    -0x18(%rbp),%rax
  20:	48 c1 f8 03          	sar    $0x3,%rax
  24:	48 89 45 f8          	mov    %rax,-0x8(%rbp)
  28:	48 83 7d f8 00       	cmpq   $0x0,-0x8(%rbp)
  2d:	74 1f                	je     4e <_ZNSt11__copy_moveILb0ELb1ESt26random_access_iterator_tagE8__copy_mIPiEEPT_PKS4_S7_S5_+0x4e>
  2f:	48 8b 45 f8          	mov    -0x8(%rbp),%rax
  33:	48 8d 14 c5 00 00 00 	lea    0x0(,%rax,8),%rdx
  3a:	00 
  3b:	48 8b 4d e8          	mov    -0x18(%rbp),%rcx
  3f:	48 8b 45 d8          	mov    -0x28(%rbp),%rax
  43:	48 89 ce             	mov    %rcx,%rsi
  46:	48 89 c7             	mov    %rax,%rdi
  49:	e8 00 00 00 00       	call   4e <_ZNSt11__copy_moveILb0ELb1ESt26random_access_iterator_tagE8__copy_mIPiEEPT_PKS4_S7_S5_+0x4e>
  4e:	48 8b 45 f8          	mov    -0x8(%rbp),%rax
  52:	48 8d 14 c5 00 00 00 	lea    0x0(,%rax,8),%rdx
  59:	00 
  5a:	48 8b 45 d8          	mov    -0x28(%rbp),%rax
  5e:	48 01 d0             	add    %rdx,%rax
  61:	c9                   	leave  
  62:	c3                   	ret    

Disassembly of section .text._ZNSt20__copy_move_backwardILb0ELb1ESt26random_access_iterator_tagE13__copy_move_bIPiEEPT_PKS4_S7_S5_:

0000000000000000 <_ZNSt20__copy_move_backwardILb0ELb1ESt26random_access_iterator_tagE13__copy_move_bIPiEEPT_PKS4_S7_S5_>:
   0:	f3 0f 1e fa          	endbr64 
   4:	55                   	push   %rbp
   5:	48 89 e5             	mov    %rsp,%rbp
   8:	48 83 ec 30          	sub    $0x30,%rsp
   c:	48 89 7d e8          	mov    %rdi,-0x18(%rbp)
  10:	48 89 75 e0          	mov    %rsi,-0x20(%rbp)
  14:	48 89 55 d8          	mov    %rdx,-0x28(%rbp)
  18:	48 8b 45 e0          	mov    -0x20(%rbp),%rax
  1c:	48 2b 45 e8          	sub    -0x18(%rbp),%rax
  20:	48 c1 f8 03          	sar    $0x3,%rax
  24:	48 89 45 f8          	mov    %rax,-0x8(%rbp)
  28:	48 83 7d f8 00       	cmpq   $0x0,-0x8(%rbp)
  2d:	74 30                	je     5f <_ZNSt20__copy_move_backwardILb0ELb1ESt26random_access_iterator_tagE13__copy_move_bIPiEEPT_PKS4_S7_S5_+0x5f>
  2f:	48 8b 45 f8          	mov    -0x8(%rbp),%rax
  33:	48 8d 14 c5 00 00 00 	lea    0x0(,%rax,8),%rdx
  3a:	00 
  3b:	48 8b 45 f8          	mov    -0x8(%rbp),%rax
  3f:	48 c1 e0 03          	shl    $0x3,%rax
  43:	48 f7 d8             	neg    %rax
  46:	48 89 c1             	mov    %rax,%rcx
  49:	48 8b 45 d8          	mov    -0x28(%rbp),%rax
  4d:	48 01 c1             	add    %rax,%rcx
  50:	48 8b 45 e8          	mov    -0x18(%rbp),%rax
  54:	48 89 c6             	mov    %rax,%rsi
  57:	48 89 cf             	mov    %rcx,%rdi
  5a:	e8 00 00 00 00       	call   5f <_ZNSt20__copy_move_backwardILb0ELb1ESt26random_access_iterator_tagE13__copy_move_bIPiEEPT_PKS4_S7_S5_+0x5f>
  5f:	48 8b 45 f8          	mov    -0x8(%rbp),%rax
  63:	48 c1 e0 03          	shl    $0x3,%rax
  67:	48 f7 d8             	neg    %rax
  6a:	48 89 c2             	mov    %rax,%rdx
  6d:	48 8b 45 d8          	mov    -0x28(%rbp),%rax
  71:	48 01 d0             	add    %rdx,%rax
  74:	c9                   	leave  
  75:	c3                   	ret    

Disassembly of section .text._ZNSt11__copy_moveILb1ELb1ESt26random_access_iterator_tagE8__copy_mIiEEPT_PKS3_S6_S4_:

0000000000000000 <_ZNSt11__copy_moveILb1ELb1ESt26random_access_iterator_tagE8__copy_mIiEEPT_PKS3_S6_S4_>:
   0:	f3 0f 1e fa          	endbr64 
   4:	55                   	push   %rbp
   5:	48 89 e5             	mov    %rsp,%rbp
   8:	48 83 ec 30          	sub    $0x30,%rsp
   c:	48 89 7d e8          	mov    %rdi,-0x18(%rbp)
  10:	48 89 75 e0          	mov    %rsi,-0x20(%rbp)
  14:	48 89 55 d8          	mov    %rdx,-0x28(%rbp)
  18:	48 8b 45 e0          	mov    -0x20(%rbp),%rax
  1c:	48 2b 45 e8          	sub    -0x18(%rbp),%rax
  20:	48 c1 f8 02          	sar    $0x2,%rax
  24:	48 89 45 f8          	mov    %rax,-0x8(%rbp)
  28:	48 83 7d f8 00       	cmpq   $0x0,-0x8(%rbp)
  2d:	74 1f                	je     4e <_ZNSt11__copy_moveILb1ELb1ESt26random_access_iterator_tagE8__copy_mIiEEPT_PKS3_S6_S4_+0x4e>
  2f:	48 8b 45 f8          	mov    -0x8(%rbp),%rax
  33:	48 8d 14 85 00 00 00 	lea    0x0(,%rax,4),%rdx
  3a:	00 
  3b:	48 8b 4d e8          	mov    -0x18(%rbp),%rcx
  3f:	48 8b 45 d8          	mov    -0x28(%rbp),%rax
  43:	48 89 ce             	mov    %rcx,%rsi
  46:	48 89 c7             	mov    %rax,%rdi
  49:	e8 00 00 00 00       	call   4e <_ZNSt11__copy_moveILb1ELb1ESt26random_access_iterator_tagE8__copy_mIiEEPT_PKS3_S6_S4_+0x4e>
  4e:	48 8b 45 f8          	mov    -0x8(%rbp),%rax
  52:	48 8d 14 85 00 00 00 	lea    0x0(,%rax,4),%rdx
  59:	00 
  5a:	48 8b 45 d8          	mov    -0x28(%rbp),%rax
  5e:	48 01 d0             	add    %rdx,%rax
  61:	c9                   	leave  
  62:	c3                   	ret    

Disassembly of section .text._ZNSt20__copy_move_backwardILb1ELb1ESt26random_access_iterator_tagE13__copy_move_bIiEEPT_PKS3_S6_S4_:

0000000000000000 <_ZNSt20__copy_move_backwardILb1ELb1ESt26random_access_iterator_tagE13__copy_move_bIiEEPT_PKS3_S6_S4_>:
   0:	f3 0f 1e fa          	endbr64 
   4:	55                   	push   %rbp
   5:	48 89 e5             	mov    %rsp,%rbp
   8:	48 83 ec 30          	sub    $0x30,%rsp
   c:	48 89 7d e8          	mov    %rdi,-0x18(%rbp)
  10:	48 89 75 e0          	mov    %rsi,-0x20(%rbp)
  14:	48 89 55 d8          	mov    %rdx,-0x28(%rbp)
  18:	48 8b 45 e0          	mov    -0x20(%rbp),%rax
  1c:	48 2b 45 e8          	sub    -0x18(%rbp),%rax
  20:	48 c1 f8 02          	sar    $0x2,%rax
  24:	48 89 45 f8          	mov    %rax,-0x8(%rbp)
  28:	48 83 7d f8 00       	cmpq   $0x0,-0x8(%rbp)
  2d:	74 30                	je     5f <_ZNSt20__copy_move_backwardILb1ELb1ESt26random_access_iterator_tagE13__copy_move_bIiEEPT_PKS3_S6_S4_+0x5f>
  2f:	48 8b 45 f8          	mov    -0x8(%rbp),%rax
  33:	48 8d 14 85 00 00 00 	lea    0x0(,%rax,4),%rdx
  3a:	00 
  3b:	48 8b 45 f8          	mov    -0x8(%rbp),%rax
  3f:	48 c1 e0 02          	shl    $0x2,%rax
  43:	48 f7 d8             	neg    %rax
  46:	48 89 c1             	mov    %rax,%rcx
  49:	48 8b 45 d8          	mov    -0x28(%rbp),%rax
  4d:	48 01 c1             	add    %rax,%rcx
  50:	48 8b 45 e8          	mov    -0x18(%rbp),%rax
  54:	48 89 c6             	mov    %rax,%rsi
  57:	48 89 cf             	mov    %rcx,%rdi
  5a:	e8 00 00 00 00       	call   5f <_ZNSt20__copy_move_backwardILb1ELb1ESt26random_access_iterator_tagE13__copy_move_bIiEEPT_PKS3_S6_S4_+0x5f>
  5f:	48 8b 45 f8          	mov    -0x8(%rbp),%rax
  63:	48 c1 e0 02          	shl    $0x2,%rax
  67:	48 f7 d8             	neg    %rax
  6a:	48 89 c2             	mov    %rax,%rdx
  6d:	48 8b 45 d8          	mov    -0x28(%rbp),%rax
  71:	48 01 d0             	add    %rdx,%rax
  74:	c9                   	leave  
  75:	c3                   	ret    
