
buildings.o:     file format elf64-x86-64


Disassembly of section .text:

0000000000000000 <_ZN4Heap6parentEi>:
   0:	f3 0f 1e fa          	endbr64 
   4:	55                   	push   %rbp
   5:	48 89 e5             	mov    %rsp,%rbp
   8:	48 89 7d f8          	mov    %rdi,-0x8(%rbp)
   c:	89 75 f4             	mov    %esi,-0xc(%rbp)
   f:	8b 45 f4             	mov    -0xc(%rbp),%eax
  12:	83 e8 01             	sub    $0x1,%eax
  15:	89 c2                	mov    %eax,%edx
  17:	c1 ea 1f             	shr    $0x1f,%edx
  1a:	01 d0                	add    %edx,%eax
  1c:	d1 f8                	sar    %eax
  1e:	5d                   	pop    %rbp
  1f:	c3                   	ret    

0000000000000020 <_ZN4Heap4leftEi>:
  20:	f3 0f 1e fa          	endbr64 
  24:	55                   	push   %rbp
  25:	48 89 e5             	mov    %rsp,%rbp
  28:	48 89 7d f8          	mov    %rdi,-0x8(%rbp)
  2c:	89 75 f4             	mov    %esi,-0xc(%rbp)
  2f:	8b 45 f4             	mov    -0xc(%rbp),%eax
  32:	01 c0                	add    %eax,%eax
  34:	83 c0 01             	add    $0x1,%eax
  37:	5d                   	pop    %rbp
  38:	c3                   	ret    
  39:	90                   	nop

000000000000003a <_ZN4Heap5rightEi>:
  3a:	f3 0f 1e fa          	endbr64 
  3e:	55                   	push   %rbp
  3f:	48 89 e5             	mov    %rsp,%rbp
  42:	48 89 7d f8          	mov    %rdi,-0x8(%rbp)
  46:	89 75 f4             	mov    %esi,-0xc(%rbp)
  49:	8b 45 f4             	mov    -0xc(%rbp),%eax
  4c:	83 c0 01             	add    $0x1,%eax
  4f:	01 c0                	add    %eax,%eax
  51:	5d                   	pop    %rbp
  52:	c3                   	ret    
  53:	90                   	nop

0000000000000054 <_ZN4Heap3maxEv>:
  54:	f3 0f 1e fa          	endbr64 
  58:	55                   	push   %rbp
  59:	48 89 e5             	mov    %rsp,%rbp
  5c:	48 83 ec 10          	sub    $0x10,%rsp
  60:	48 89 7d f8          	mov    %rdi,-0x8(%rbp)
  64:	48 8b 45 f8          	mov    -0x8(%rbp),%rax
  68:	be 00 00 00 00       	mov    $0x0,%esi
  6d:	48 89 c7             	mov    %rax,%rdi
  70:	e8 00 00 00 00       	call   75 <_ZN4Heap3maxEv+0x21>
  75:	8b 00                	mov    (%rax),%eax
  77:	c9                   	leave  
  78:	c3                   	ret    
  79:	90                   	nop

000000000000007a <_ZN4Heap4swapEii>:
  7a:	f3 0f 1e fa          	endbr64 
  7e:	55                   	push   %rbp
  7f:	48 89 e5             	mov    %rsp,%rbp
  82:	41 54                	push   %r12
  84:	53                   	push   %rbx
  85:	48 83 ec 30          	sub    $0x30,%rsp
  89:	48 89 7d c8          	mov    %rdi,-0x38(%rbp)
  8d:	89 75 c4             	mov    %esi,-0x3c(%rbp)
  90:	89 55 c0             	mov    %edx,-0x40(%rbp)
  93:	64 48 8b 04 25 28 00 	mov    %fs:0x28,%rax
  9a:	00 00 
  9c:	48 89 45 e8          	mov    %rax,-0x18(%rbp)
  a0:	31 c0                	xor    %eax,%eax
  a2:	8b 45 c0             	mov    -0x40(%rbp),%eax
  a5:	48 63 d8             	movslq %eax,%rbx
  a8:	48 8b 45 c8          	mov    -0x38(%rbp),%rax
  ac:	48 89 c7             	mov    %rax,%rdi
  af:	e8 00 00 00 00       	call   b4 <_ZN4Heap4swapEii+0x3a>
  b4:	48 89 45 e0          	mov    %rax,-0x20(%rbp)
  b8:	48 8d 45 e0          	lea    -0x20(%rbp),%rax
  bc:	48 89 de             	mov    %rbx,%rsi
  bf:	48 89 c7             	mov    %rax,%rdi
  c2:	e8 00 00 00 00       	call   c7 <_ZN4Heap4swapEii+0x4d>
  c7:	49 89 c4             	mov    %rax,%r12
  ca:	8b 45 c4             	mov    -0x3c(%rbp),%eax
  cd:	48 63 d8             	movslq %eax,%rbx
  d0:	48 8b 45 c8          	mov    -0x38(%rbp),%rax
  d4:	48 89 c7             	mov    %rax,%rdi
  d7:	e8 00 00 00 00       	call   dc <_ZN4Heap4swapEii+0x62>
  dc:	48 89 45 d8          	mov    %rax,-0x28(%rbp)
  e0:	48 8d 45 d8          	lea    -0x28(%rbp),%rax
  e4:	48 89 de             	mov    %rbx,%rsi
  e7:	48 89 c7             	mov    %rax,%rdi
  ea:	e8 00 00 00 00       	call   ef <_ZN4Heap4swapEii+0x75>
  ef:	4c 89 e6             	mov    %r12,%rsi
  f2:	48 89 c7             	mov    %rax,%rdi
  f5:	e8 00 00 00 00       	call   fa <_ZN4Heap4swapEii+0x80>
  fa:	48 8b 45 c8          	mov    -0x38(%rbp),%rax
  fe:	8b 40 1c             	mov    0x1c(%rax),%eax
 101:	8d 50 01             	lea    0x1(%rax),%edx
 104:	48 8b 45 c8          	mov    -0x38(%rbp),%rax
 108:	89 50 1c             	mov    %edx,0x1c(%rax)
 10b:	90                   	nop
 10c:	48 8b 45 e8          	mov    -0x18(%rbp),%rax
 110:	64 48 2b 04 25 28 00 	sub    %fs:0x28,%rax
 117:	00 00 
 119:	74 05                	je     120 <_ZN4Heap4swapEii+0xa6>
 11b:	e8 00 00 00 00       	call   120 <_ZN4Heap4swapEii+0xa6>
 120:	48 83 c4 30          	add    $0x30,%rsp
 124:	5b                   	pop    %rbx
 125:	41 5c                	pop    %r12
 127:	5d                   	pop    %rbp
 128:	c3                   	ret    
 129:	90                   	nop

000000000000012a <_ZN4Heap6insertEi>:
 12a:	f3 0f 1e fa          	endbr64 
 12e:	55                   	push   %rbp
 12f:	48 89 e5             	mov    %rsp,%rbp
 132:	53                   	push   %rbx
 133:	48 83 ec 28          	sub    $0x28,%rsp
 137:	48 89 7d d8          	mov    %rdi,-0x28(%rbp)
 13b:	89 75 d4             	mov    %esi,-0x2c(%rbp)
 13e:	48 8b 45 d8          	mov    -0x28(%rbp),%rax
 142:	48 89 c7             	mov    %rax,%rdi
 145:	e8 00 00 00 00       	call   14a <_ZN4Heap6insertEi+0x20>
 14a:	89 45 ec             	mov    %eax,-0x14(%rbp)
 14d:	48 8b 45 d8          	mov    -0x28(%rbp),%rax
 151:	48 8d 55 d4          	lea    -0x2c(%rbp),%rdx
 155:	48 89 d6             	mov    %rdx,%rsi
 158:	48 89 c7             	mov    %rax,%rdi
 15b:	e8 00 00 00 00       	call   160 <_ZN4Heap6insertEi+0x36>
 160:	48 8b 45 d8          	mov    -0x28(%rbp),%rax
 164:	8b 40 18             	mov    0x18(%rax),%eax
 167:	8d 50 01             	lea    0x1(%rax),%edx
 16a:	48 8b 45 d8          	mov    -0x28(%rbp),%rax
 16e:	89 50 18             	mov    %edx,0x18(%rax)
 171:	eb 38                	jmp    1ab <_ZN4Heap6insertEi+0x81>
 173:	8b 55 ec             	mov    -0x14(%rbp),%edx
 176:	48 8b 45 d8          	mov    -0x28(%rbp),%rax
 17a:	89 d6                	mov    %edx,%esi
 17c:	48 89 c7             	mov    %rax,%rdi
 17f:	e8 00 00 00 00       	call   184 <_ZN4Heap6insertEi+0x5a>
 184:	89 c1                	mov    %eax,%ecx
 186:	8b 55 ec             	mov    -0x14(%rbp),%edx
 189:	48 8b 45 d8          	mov    -0x28(%rbp),%rax
 18d:	89 ce                	mov    %ecx,%esi
 18f:	48 89 c7             	mov    %rax,%rdi
 192:	e8 00 00 00 00       	call   197 <_ZN4Heap6insertEi+0x6d>
 197:	8b 55 ec             	mov    -0x14(%rbp),%edx
 19a:	48 8b 45 d8          	mov    -0x28(%rbp),%rax
 19e:	89 d6                	mov    %edx,%esi
 1a0:	48 89 c7             	mov    %rax,%rdi
 1a3:	e8 00 00 00 00       	call   1a8 <_ZN4Heap6insertEi+0x7e>
 1a8:	89 45 ec             	mov    %eax,-0x14(%rbp)
 1ab:	83 7d ec 00          	cmpl   $0x0,-0x14(%rbp)
 1af:	7e 46                	jle    1f7 <_ZN4Heap6insertEi+0xcd>
 1b1:	48 8b 5d d8          	mov    -0x28(%rbp),%rbx
 1b5:	8b 55 ec             	mov    -0x14(%rbp),%edx
 1b8:	48 8b 45 d8          	mov    -0x28(%rbp),%rax
 1bc:	89 d6                	mov    %edx,%esi
 1be:	48 89 c7             	mov    %rax,%rdi
 1c1:	e8 00 00 00 00       	call   1c6 <_ZN4Heap6insertEi+0x9c>
 1c6:	48 98                	cltq   
 1c8:	48 89 c6             	mov    %rax,%rsi
 1cb:	48 89 df             	mov    %rbx,%rdi
 1ce:	e8 00 00 00 00       	call   1d3 <_ZN4Heap6insertEi+0xa9>
 1d3:	8b 18                	mov    (%rax),%ebx
 1d5:	48 8b 45 d8          	mov    -0x28(%rbp),%rax
 1d9:	8b 55 ec             	mov    -0x14(%rbp),%edx
 1dc:	48 63 d2             	movslq %edx,%rdx
 1df:	48 89 d6             	mov    %rdx,%rsi
 1e2:	48 89 c7             	mov    %rax,%rdi
 1e5:	e8 00 00 00 00       	call   1ea <_ZN4Heap6insertEi+0xc0>
 1ea:	8b 00                	mov    (%rax),%eax
 1ec:	39 c3                	cmp    %eax,%ebx
 1ee:	7d 07                	jge    1f7 <_ZN4Heap6insertEi+0xcd>
 1f0:	b8 01 00 00 00       	mov    $0x1,%eax
 1f5:	eb 05                	jmp    1fc <_ZN4Heap6insertEi+0xd2>
 1f7:	b8 00 00 00 00       	mov    $0x0,%eax
 1fc:	84 c0                	test   %al,%al
 1fe:	0f 85 6f ff ff ff    	jne    173 <_ZN4Heap6insertEi+0x49>
 204:	90                   	nop
 205:	90                   	nop
 206:	48 8b 5d f8          	mov    -0x8(%rbp),%rbx
 20a:	c9                   	leave  
 20b:	c3                   	ret    

000000000000020c <_ZN4Heap7heapifyEi>:
 20c:	f3 0f 1e fa          	endbr64 
 210:	55                   	push   %rbp
 211:	48 89 e5             	mov    %rsp,%rbp
 214:	41 54                	push   %r12
 216:	53                   	push   %rbx
 217:	48 83 ec 20          	sub    $0x20,%rsp
 21b:	48 89 7d d8          	mov    %rdi,-0x28(%rbp)
 21f:	89 75 d4             	mov    %esi,-0x2c(%rbp)
 222:	8b 45 d4             	mov    -0x2c(%rbp),%eax
 225:	89 45 ec             	mov    %eax,-0x14(%rbp)
 228:	8b 55 d4             	mov    -0x2c(%rbp),%edx
 22b:	48 8b 45 d8          	mov    -0x28(%rbp),%rax
 22f:	89 d6                	mov    %edx,%esi
 231:	48 89 c7             	mov    %rax,%rdi
 234:	e8 00 00 00 00       	call   239 <_ZN4Heap7heapifyEi+0x2d>
 239:	89 c2                	mov    %eax,%edx
 23b:	48 8b 45 d8          	mov    -0x28(%rbp),%rax
 23f:	8b 40 18             	mov    0x18(%rax),%eax
 242:	39 c2                	cmp    %eax,%edx
 244:	0f 83 96 00 00 00    	jae    2e0 <_ZN4Heap7heapifyEi+0xd4>
 24a:	48 8b 45 d8          	mov    -0x28(%rbp),%rax
 24e:	8b 55 d4             	mov    -0x2c(%rbp),%edx
 251:	48 63 d2             	movslq %edx,%rdx
 254:	48 89 d6             	mov    %rdx,%rsi
 257:	48 89 c7             	mov    %rax,%rdi
 25a:	e8 00 00 00 00       	call   25f <_ZN4Heap7heapifyEi+0x53>
 25f:	44 8b 20             	mov    (%rax),%r12d
 262:	48 8b 5d d8          	mov    -0x28(%rbp),%rbx
 266:	8b 55 d4             	mov    -0x2c(%rbp),%edx
 269:	48 8b 45 d8          	mov    -0x28(%rbp),%rax
 26d:	89 d6                	mov    %edx,%esi
 26f:	48 89 c7             	mov    %rax,%rdi
 272:	e8 00 00 00 00       	call   277 <_ZN4Heap7heapifyEi+0x6b>
 277:	48 98                	cltq   
 279:	48 89 c6             	mov    %rax,%rsi
 27c:	48 89 df             	mov    %rbx,%rdi
 27f:	e8 00 00 00 00       	call   284 <_ZN4Heap7heapifyEi+0x78>
 284:	8b 00                	mov    (%rax),%eax
 286:	41 39 c4             	cmp    %eax,%r12d
 289:	7d 55                	jge    2e0 <_ZN4Heap7heapifyEi+0xd4>
 28b:	48 8b 5d d8          	mov    -0x28(%rbp),%rbx
 28f:	8b 55 d4             	mov    -0x2c(%rbp),%edx
 292:	48 8b 45 d8          	mov    -0x28(%rbp),%rax
 296:	89 d6                	mov    %edx,%esi
 298:	48 89 c7             	mov    %rax,%rdi
 29b:	e8 00 00 00 00       	call   2a0 <_ZN4Heap7heapifyEi+0x94>
 2a0:	48 98                	cltq   
 2a2:	48 89 c6             	mov    %rax,%rsi
 2a5:	48 89 df             	mov    %rbx,%rdi
 2a8:	e8 00 00 00 00       	call   2ad <_ZN4Heap7heapifyEi+0xa1>
 2ad:	44 8b 20             	mov    (%rax),%r12d
 2b0:	48 8b 5d d8          	mov    -0x28(%rbp),%rbx
 2b4:	8b 55 d4             	mov    -0x2c(%rbp),%edx
 2b7:	48 8b 45 d8          	mov    -0x28(%rbp),%rax
 2bb:	89 d6                	mov    %edx,%esi
 2bd:	48 89 c7             	mov    %rax,%rdi
 2c0:	e8 00 00 00 00       	call   2c5 <_ZN4Heap7heapifyEi+0xb9>
 2c5:	48 98                	cltq   
 2c7:	48 89 c6             	mov    %rax,%rsi
 2ca:	48 89 df             	mov    %rbx,%rdi
 2cd:	e8 00 00 00 00       	call   2d2 <_ZN4Heap7heapifyEi+0xc6>
 2d2:	8b 00                	mov    (%rax),%eax
 2d4:	41 39 c4             	cmp    %eax,%r12d
 2d7:	7e 07                	jle    2e0 <_ZN4Heap7heapifyEi+0xd4>
 2d9:	b8 01 00 00 00       	mov    $0x1,%eax
 2de:	eb 05                	jmp    2e5 <_ZN4Heap7heapifyEi+0xd9>
 2e0:	b8 00 00 00 00       	mov    $0x0,%eax
 2e5:	84 c0                	test   %al,%al
 2e7:	74 19                	je     302 <_ZN4Heap7heapifyEi+0xf6>
 2e9:	8b 55 d4             	mov    -0x2c(%rbp),%edx
 2ec:	48 8b 45 d8          	mov    -0x28(%rbp),%rax
 2f0:	89 d6                	mov    %edx,%esi
 2f2:	48 89 c7             	mov    %rax,%rdi
 2f5:	e8 00 00 00 00       	call   2fa <_ZN4Heap7heapifyEi+0xee>
 2fa:	89 45 ec             	mov    %eax,-0x14(%rbp)
 2fd:	e9 83 00 00 00       	jmp    385 <_ZN4Heap7heapifyEi+0x179>
 302:	8b 55 d4             	mov    -0x2c(%rbp),%edx
 305:	48 8b 45 d8          	mov    -0x28(%rbp),%rax
 309:	89 d6                	mov    %edx,%esi
 30b:	48 89 c7             	mov    %rax,%rdi
 30e:	e8 00 00 00 00       	call   313 <_ZN4Heap7heapifyEi+0x107>
 313:	89 c2                	mov    %eax,%edx
 315:	48 8b 45 d8          	mov    -0x28(%rbp),%rax
 319:	8b 40 18             	mov    0x18(%rax),%eax
 31c:	39 c2                	cmp    %eax,%edx
 31e:	73 48                	jae    368 <_ZN4Heap7heapifyEi+0x15c>
 320:	48 8b 45 d8          	mov    -0x28(%rbp),%rax
 324:	8b 55 d4             	mov    -0x2c(%rbp),%edx
 327:	48 63 d2             	movslq %edx,%rdx
 32a:	48 89 d6             	mov    %rdx,%rsi
 32d:	48 89 c7             	mov    %rax,%rdi
 330:	e8 00 00 00 00       	call   335 <_ZN4Heap7heapifyEi+0x129>
 335:	44 8b 20             	mov    (%rax),%r12d
 338:	48 8b 5d d8          	mov    -0x28(%rbp),%rbx
 33c:	8b 55 d4             	mov    -0x2c(%rbp),%edx
 33f:	48 8b 45 d8          	mov    -0x28(%rbp),%rax
 343:	89 d6                	mov    %edx,%esi
 345:	48 89 c7             	mov    %rax,%rdi
 348:	e8 00 00 00 00       	call   34d <_ZN4Heap7heapifyEi+0x141>
 34d:	48 98                	cltq   
 34f:	48 89 c6             	mov    %rax,%rsi
 352:	48 89 df             	mov    %rbx,%rdi
 355:	e8 00 00 00 00       	call   35a <_ZN4Heap7heapifyEi+0x14e>
 35a:	8b 00                	mov    (%rax),%eax
 35c:	41 39 c4             	cmp    %eax,%r12d
 35f:	7d 07                	jge    368 <_ZN4Heap7heapifyEi+0x15c>
 361:	b8 01 00 00 00       	mov    $0x1,%eax
 366:	eb 05                	jmp    36d <_ZN4Heap7heapifyEi+0x161>
 368:	b8 00 00 00 00       	mov    $0x0,%eax
 36d:	84 c0                	test   %al,%al
 36f:	74 14                	je     385 <_ZN4Heap7heapifyEi+0x179>
 371:	8b 55 d4             	mov    -0x2c(%rbp),%edx
 374:	48 8b 45 d8          	mov    -0x28(%rbp),%rax
 378:	89 d6                	mov    %edx,%esi
 37a:	48 89 c7             	mov    %rax,%rdi
 37d:	e8 00 00 00 00       	call   382 <_ZN4Heap7heapifyEi+0x176>
 382:	89 45 ec             	mov    %eax,-0x14(%rbp)
 385:	8b 45 ec             	mov    -0x14(%rbp),%eax
 388:	3b 45 d4             	cmp    -0x2c(%rbp),%eax
 38b:	74 27                	je     3b4 <_ZN4Heap7heapifyEi+0x1a8>
 38d:	8b 55 d4             	mov    -0x2c(%rbp),%edx
 390:	8b 4d ec             	mov    -0x14(%rbp),%ecx
 393:	48 8b 45 d8          	mov    -0x28(%rbp),%rax
 397:	89 ce                	mov    %ecx,%esi
 399:	48 89 c7             	mov    %rax,%rdi
 39c:	e8 00 00 00 00       	call   3a1 <_ZN4Heap7heapifyEi+0x195>
 3a1:	8b 55 ec             	mov    -0x14(%rbp),%edx
 3a4:	48 8b 45 d8          	mov    -0x28(%rbp),%rax
 3a8:	89 d6                	mov    %edx,%esi
 3aa:	48 89 c7             	mov    %rax,%rdi
 3ad:	e8 00 00 00 00       	call   3b2 <_ZN4Heap7heapifyEi+0x1a6>
 3b2:	eb 01                	jmp    3b5 <_ZN4Heap7heapifyEi+0x1a9>
 3b4:	90                   	nop
 3b5:	48 83 c4 20          	add    $0x20,%rsp
 3b9:	5b                   	pop    %rbx
 3ba:	41 5c                	pop    %r12
 3bc:	5d                   	pop    %rbp
 3bd:	c3                   	ret    

00000000000003be <_ZN4Heap9deleteMaxEv>:
 3be:	f3 0f 1e fa          	endbr64 
 3c2:	55                   	push   %rbp
 3c3:	48 89 e5             	mov    %rsp,%rbp
 3c6:	48 83 ec 10          	sub    $0x10,%rsp
 3ca:	48 89 7d f8          	mov    %rdi,-0x8(%rbp)
 3ce:	48 8b 45 f8          	mov    -0x8(%rbp),%rax
 3d2:	8b 40 18             	mov    0x18(%rax),%eax
 3d5:	83 e8 01             	sub    $0x1,%eax
 3d8:	89 c2                	mov    %eax,%edx
 3da:	48 8b 45 f8          	mov    -0x8(%rbp),%rax
 3de:	be 00 00 00 00       	mov    $0x0,%esi
 3e3:	48 89 c7             	mov    %rax,%rdi
 3e6:	e8 00 00 00 00       	call   3eb <_ZN4Heap9deleteMaxEv+0x2d>
 3eb:	48 8b 45 f8          	mov    -0x8(%rbp),%rax
 3ef:	8b 40 18             	mov    0x18(%rax),%eax
 3f2:	8d 50 ff             	lea    -0x1(%rax),%edx
 3f5:	48 8b 45 f8          	mov    -0x8(%rbp),%rax
 3f9:	89 50 18             	mov    %edx,0x18(%rax)
 3fc:	48 8b 45 f8          	mov    -0x8(%rbp),%rax
 400:	be 00 00 00 00       	mov    $0x0,%esi
 405:	48 89 c7             	mov    %rax,%rdi
 408:	e8 00 00 00 00       	call   40d <_ZN4Heap9deleteMaxEv+0x4f>
 40d:	90                   	nop
 40e:	c9                   	leave  
 40f:	c3                   	ret    

0000000000000410 <_ZN4Heap9buildHeapEv>:
 410:	f3 0f 1e fa          	endbr64 
 414:	55                   	push   %rbp
 415:	48 89 e5             	mov    %rsp,%rbp
 418:	48 83 ec 20          	sub    $0x20,%rsp
 41c:	48 89 7d e8          	mov    %rdi,-0x18(%rbp)
 420:	48 8b 45 e8          	mov    -0x18(%rbp),%rax
 424:	48 89 c7             	mov    %rax,%rdi
 427:	e8 00 00 00 00       	call   42c <_ZN4Heap9buildHeapEv+0x1c>
 42c:	89 c2                	mov    %eax,%edx
 42e:	48 8b 45 e8          	mov    -0x18(%rbp),%rax
 432:	89 50 18             	mov    %edx,0x18(%rax)
 435:	48 8b 45 e8          	mov    -0x18(%rbp),%rax
 439:	8b 40 18             	mov    0x18(%rax),%eax
 43c:	83 e8 01             	sub    $0x1,%eax
 43f:	89 45 fc             	mov    %eax,-0x4(%rbp)
 442:	eb 15                	jmp    459 <_ZN4Heap9buildHeapEv+0x49>
 444:	8b 55 fc             	mov    -0x4(%rbp),%edx
 447:	48 8b 45 e8          	mov    -0x18(%rbp),%rax
 44b:	89 d6                	mov    %edx,%esi
 44d:	48 89 c7             	mov    %rax,%rdi
 450:	e8 00 00 00 00       	call   455 <_ZN4Heap9buildHeapEv+0x45>
 455:	83 6d fc 01          	subl   $0x1,-0x4(%rbp)
 459:	83 7d fc 00          	cmpl   $0x0,-0x4(%rbp)
 45d:	79 e5                	jns    444 <_ZN4Heap9buildHeapEv+0x34>
 45f:	90                   	nop
 460:	90                   	nop
 461:	c9                   	leave  
 462:	c3                   	ret    
 463:	90                   	nop

0000000000000464 <_ZN4Heap8heapSortEv>:
 464:	f3 0f 1e fa          	endbr64 
 468:	55                   	push   %rbp
 469:	48 89 e5             	mov    %rsp,%rbp
 46c:	48 83 ec 20          	sub    $0x20,%rsp
 470:	48 89 7d e8          	mov    %rdi,-0x18(%rbp)
 474:	48 8b 45 e8          	mov    -0x18(%rbp),%rax
 478:	48 89 c7             	mov    %rax,%rdi
 47b:	e8 00 00 00 00       	call   480 <_ZN4Heap8heapSortEv+0x1c>
 480:	89 c2                	mov    %eax,%edx
 482:	48 8b 45 e8          	mov    -0x18(%rbp),%rax
 486:	89 50 18             	mov    %edx,0x18(%rax)
 489:	48 8b 45 e8          	mov    -0x18(%rbp),%rax
 48d:	48 89 c7             	mov    %rax,%rdi
 490:	e8 00 00 00 00       	call   495 <_ZN4Heap8heapSortEv+0x31>
 495:	eb 1f                	jmp    4b6 <_ZN4Heap8heapSortEv+0x52>
 497:	48 8b 45 e8          	mov    -0x18(%rbp),%rax
 49b:	8b 40 18             	mov    0x18(%rax),%eax
 49e:	83 f8 03             	cmp    $0x3,%eax
 4a1:	75 07                	jne    4aa <_ZN4Heap8heapSortEv+0x46>
 4a3:	c7 45 fc 01 00 00 00 	movl   $0x1,-0x4(%rbp)
 4aa:	48 8b 45 e8          	mov    -0x18(%rbp),%rax
 4ae:	48 89 c7             	mov    %rax,%rdi
 4b1:	e8 00 00 00 00       	call   4b6 <_ZN4Heap8heapSortEv+0x52>
 4b6:	48 8b 45 e8          	mov    -0x18(%rbp),%rax
 4ba:	8b 40 18             	mov    0x18(%rax),%eax
 4bd:	85 c0                	test   %eax,%eax
 4bf:	75 d6                	jne    497 <_ZN4Heap8heapSortEv+0x33>
 4c1:	90                   	nop
 4c2:	90                   	nop
 4c3:	c9                   	leave  
 4c4:	c3                   	ret    

00000000000004c5 <main>:
 4c5:	f3 0f 1e fa          	endbr64 
 4c9:	55                   	push   %rbp
 4ca:	48 89 e5             	mov    %rsp,%rbp
 4cd:	41 57                	push   %r15
 4cf:	41 56                	push   %r14
 4d1:	41 55                	push   %r13
 4d3:	41 54                	push   %r12
 4d5:	53                   	push   %rbx
 4d6:	48 81 ec 58 01 00 00 	sub    $0x158,%rsp
 4dd:	64 48 8b 04 25 28 00 	mov    %fs:0x28,%rax
 4e4:	00 00 
 4e6:	48 89 45 c8          	mov    %rax,-0x38(%rbp)
 4ea:	31 c0                	xor    %eax,%eax
 4ec:	c7 85 14 ff ff ff 02 	movl   $0x2,-0xec(%rbp)
 4f3:	00 00 00 
 4f6:	c7 85 18 ff ff ff 09 	movl   $0x9,-0xe8(%rbp)
 4fd:	00 00 00 
 500:	c7 85 1c ff ff ff 0a 	movl   $0xa,-0xe4(%rbp)
 507:	00 00 00 
 50a:	48 8d 85 14 ff ff ff 	lea    -0xec(%rbp),%rax
 511:	48 89 85 80 fe ff ff 	mov    %rax,-0x180(%rbp)
 518:	48 c7 85 88 fe ff ff 	movq   $0x3,-0x178(%rbp)
 51f:	03 00 00 00 
 523:	48 8d 85 cb fe ff ff 	lea    -0x135(%rbp),%rax
 52a:	48 89 c7             	mov    %rax,%rdi
 52d:	e8 00 00 00 00       	call   532 <main+0x6d>
 532:	48 8d 95 cb fe ff ff 	lea    -0x135(%rbp),%rdx
 539:	48 8b 8d 80 fe ff ff 	mov    -0x180(%rbp),%rcx
 540:	48 8b 9d 88 fe ff ff 	mov    -0x178(%rbp),%rbx
 547:	48 89 ce             	mov    %rcx,%rsi
 54a:	48 89 df             	mov    %rbx,%rdi
 54d:	48 89 df             	mov    %rbx,%rdi
 550:	48 8d 85 50 ff ff ff 	lea    -0xb0(%rbp),%rax
 557:	48 89 d1             	mov    %rdx,%rcx
 55a:	48 89 fa             	mov    %rdi,%rdx
 55d:	48 89 c7             	mov    %rax,%rdi
 560:	e8 00 00 00 00       	call   565 <main+0xa0>
 565:	c7 85 20 ff ff ff 03 	movl   $0x3,-0xe0(%rbp)
 56c:	00 00 00 
 56f:	c7 85 24 ff ff ff 07 	movl   $0x7,-0xdc(%rbp)
 576:	00 00 00 
 579:	c7 85 28 ff ff ff 0f 	movl   $0xf,-0xd8(%rbp)
 580:	00 00 00 
 583:	48 8d 85 20 ff ff ff 	lea    -0xe0(%rbp),%rax
 58a:	48 89 85 90 fe ff ff 	mov    %rax,-0x170(%rbp)
 591:	48 c7 85 98 fe ff ff 	movq   $0x3,-0x168(%rbp)
 598:	03 00 00 00 
 59c:	48 8d 85 cc fe ff ff 	lea    -0x134(%rbp),%rax
 5a3:	48 89 c7             	mov    %rax,%rdi
 5a6:	e8 00 00 00 00       	call   5ab <main+0xe6>
 5ab:	48 8d 85 cc fe ff ff 	lea    -0x134(%rbp),%rax
 5b2:	48 8b 8d 90 fe ff ff 	mov    -0x170(%rbp),%rcx
 5b9:	48 8b 9d 98 fe ff ff 	mov    -0x168(%rbp),%rbx
 5c0:	48 89 ce             	mov    %rcx,%rsi
 5c3:	48 89 df             	mov    %rbx,%rdi
 5c6:	49 89 d8             	mov    %rbx,%r8
 5c9:	48 8d 95 50 ff ff ff 	lea    -0xb0(%rbp),%rdx
 5d0:	48 8d 7a 18          	lea    0x18(%rdx),%rdi
 5d4:	48 89 c1             	mov    %rax,%rcx
 5d7:	4c 89 c2             	mov    %r8,%rdx
 5da:	e8 00 00 00 00       	call   5df <main+0x11a>
 5df:	c7 85 2c ff ff ff 05 	movl   $0x5,-0xd4(%rbp)
 5e6:	00 00 00 
 5e9:	c7 85 30 ff ff ff 0c 	movl   $0xc,-0xd0(%rbp)
 5f0:	00 00 00 
 5f3:	c7 85 34 ff ff ff 0c 	movl   $0xc,-0xcc(%rbp)
 5fa:	00 00 00 
 5fd:	48 8d 85 2c ff ff ff 	lea    -0xd4(%rbp),%rax
 604:	48 89 85 a0 fe ff ff 	mov    %rax,-0x160(%rbp)
 60b:	48 c7 85 a8 fe ff ff 	movq   $0x3,-0x158(%rbp)
 612:	03 00 00 00 
 616:	48 8d 85 cd fe ff ff 	lea    -0x133(%rbp),%rax
 61d:	48 89 c7             	mov    %rax,%rdi
 620:	e8 00 00 00 00       	call   625 <main+0x160>
 625:	48 8d 85 cd fe ff ff 	lea    -0x133(%rbp),%rax
 62c:	48 8b 8d a0 fe ff ff 	mov    -0x160(%rbp),%rcx
 633:	48 8b 9d a8 fe ff ff 	mov    -0x158(%rbp),%rbx
 63a:	48 89 ce             	mov    %rcx,%rsi
 63d:	48 89 df             	mov    %rbx,%rdi
 640:	49 89 d8             	mov    %rbx,%r8
 643:	48 8d 95 50 ff ff ff 	lea    -0xb0(%rbp),%rdx
 64a:	48 8d 7a 30          	lea    0x30(%rdx),%rdi
 64e:	48 89 c1             	mov    %rax,%rcx
 651:	4c 89 c2             	mov    %r8,%rdx
 654:	e8 00 00 00 00       	call   659 <main+0x194>
 659:	c7 85 38 ff ff ff 0f 	movl   $0xf,-0xc8(%rbp)
 660:	00 00 00 
 663:	c7 85 3c ff ff ff 14 	movl   $0x14,-0xc4(%rbp)
 66a:	00 00 00 
 66d:	c7 85 40 ff ff ff 0a 	movl   $0xa,-0xc0(%rbp)
 674:	00 00 00 
 677:	48 8d 85 38 ff ff ff 	lea    -0xc8(%rbp),%rax
 67e:	48 89 85 b0 fe ff ff 	mov    %rax,-0x150(%rbp)
 685:	48 c7 85 b8 fe ff ff 	movq   $0x3,-0x148(%rbp)
 68c:	03 00 00 00 
 690:	48 8d 85 ce fe ff ff 	lea    -0x132(%rbp),%rax
 697:	48 89 c7             	mov    %rax,%rdi
 69a:	e8 00 00 00 00       	call   69f <main+0x1da>
 69f:	48 8d 85 ce fe ff ff 	lea    -0x132(%rbp),%rax
 6a6:	48 8b 8d b0 fe ff ff 	mov    -0x150(%rbp),%rcx
 6ad:	48 8b 9d b8 fe ff ff 	mov    -0x148(%rbp),%rbx
 6b4:	48 89 ce             	mov    %rcx,%rsi
 6b7:	48 89 df             	mov    %rbx,%rdi
 6ba:	49 89 d8             	mov    %rbx,%r8
 6bd:	48 8d 95 50 ff ff ff 	lea    -0xb0(%rbp),%rdx
 6c4:	48 8d 7a 48          	lea    0x48(%rdx),%rdi
 6c8:	48 89 c1             	mov    %rax,%rcx
 6cb:	4c 89 c2             	mov    %r8,%rdx
 6ce:	e8 00 00 00 00       	call   6d3 <main+0x20e>
 6d3:	c7 85 44 ff ff ff 13 	movl   $0x13,-0xbc(%rbp)
 6da:	00 00 00 
 6dd:	c7 85 48 ff ff ff 18 	movl   $0x18,-0xb8(%rbp)
 6e4:	00 00 00 
 6e7:	c7 85 4c ff ff ff 08 	movl   $0x8,-0xb4(%rbp)
 6ee:	00 00 00 
 6f1:	48 8d 85 44 ff ff ff 	lea    -0xbc(%rbp),%rax
 6f8:	49 89 c6             	mov    %rax,%r14
 6fb:	41 bf 03 00 00 00    	mov    $0x3,%r15d
 701:	48 8d 85 cf fe ff ff 	lea    -0x131(%rbp),%rax
 708:	48 89 c7             	mov    %rax,%rdi
 70b:	e8 00 00 00 00       	call   710 <main+0x24b>
 710:	48 8d 85 cf fe ff ff 	lea    -0x131(%rbp),%rax
 717:	4c 89 f6             	mov    %r14,%rsi
 71a:	4c 89 ff             	mov    %r15,%rdi
 71d:	4c 89 f1             	mov    %r14,%rcx
 720:	4c 89 fb             	mov    %r15,%rbx
 723:	49 89 d8             	mov    %rbx,%r8
 726:	48 8d 95 50 ff ff ff 	lea    -0xb0(%rbp),%rdx
 72d:	48 8d 7a 60          	lea    0x60(%rdx),%rdi
 731:	48 89 c1             	mov    %rax,%rcx
 734:	4c 89 c2             	mov    %r8,%rdx
 737:	e8 00 00 00 00       	call   73c <main+0x277>
 73c:	48 8d 85 50 ff ff ff 	lea    -0xb0(%rbp),%rax
 743:	49 89 c4             	mov    %rax,%r12
 746:	41 bd 05 00 00 00    	mov    $0x5,%r13d
 74c:	48 8d 85 f0 fe ff ff 	lea    -0x110(%rbp),%rax
 753:	48 89 c7             	mov    %rax,%rdi
 756:	e8 00 00 00 00       	call   75b <main+0x296>
 75b:	48 8d 95 f0 fe ff ff 	lea    -0x110(%rbp),%rdx
 762:	4c 89 e6             	mov    %r12,%rsi
 765:	4c 89 ef             	mov    %r13,%rdi
 768:	4c 89 e1             	mov    %r12,%rcx
 76b:	4c 89 eb             	mov    %r13,%rbx
 76e:	48 89 df             	mov    %rbx,%rdi
 771:	48 8d 85 d0 fe ff ff 	lea    -0x130(%rbp),%rax
 778:	48 89 d1             	mov    %rdx,%rcx
 77b:	48 89 fa             	mov    %rdi,%rdx
 77e:	48 89 c7             	mov    %rax,%rdi
 781:	e8 00 00 00 00       	call   786 <main+0x2c1>
 786:	48 8d 85 f0 fe ff ff 	lea    -0x110(%rbp),%rax
 78d:	48 89 c7             	mov    %rax,%rdi
 790:	e8 00 00 00 00       	call   795 <main+0x2d0>
 795:	48 8d 9d 50 ff ff ff 	lea    -0xb0(%rbp),%rbx
 79c:	48 83 c3 78          	add    $0x78,%rbx
 7a0:	48 8d 85 50 ff ff ff 	lea    -0xb0(%rbp),%rax
 7a7:	48 39 c3             	cmp    %rax,%rbx
 7aa:	74 0e                	je     7ba <main+0x2f5>
 7ac:	48 83 eb 18          	sub    $0x18,%rbx
 7b0:	48 89 df             	mov    %rbx,%rdi
 7b3:	e8 00 00 00 00       	call   7b8 <main+0x2f3>
 7b8:	eb e6                	jmp    7a0 <main+0x2db>
 7ba:	48 8d 85 cf fe ff ff 	lea    -0x131(%rbp),%rax
 7c1:	48 89 c7             	mov    %rax,%rdi
 7c4:	e8 00 00 00 00       	call   7c9 <main+0x304>
 7c9:	48 8d 85 ce fe ff ff 	lea    -0x132(%rbp),%rax
 7d0:	48 89 c7             	mov    %rax,%rdi
 7d3:	e8 00 00 00 00       	call   7d8 <main+0x313>
 7d8:	48 8d 85 cd fe ff ff 	lea    -0x133(%rbp),%rax
 7df:	48 89 c7             	mov    %rax,%rdi
 7e2:	e8 00 00 00 00       	call   7e7 <main+0x322>
 7e7:	48 8d 85 cc fe ff ff 	lea    -0x134(%rbp),%rax
 7ee:	48 89 c7             	mov    %rax,%rdi
 7f1:	e8 00 00 00 00       	call   7f6 <main+0x331>
 7f6:	48 8d 85 cb fe ff ff 	lea    -0x135(%rbp),%rax
 7fd:	48 89 c7             	mov    %rax,%rdi
 800:	e8 00 00 00 00       	call   805 <main+0x340>
 805:	48 8d 85 f0 fe ff ff 	lea    -0x110(%rbp),%rax
 80c:	48 8d 95 d0 fe ff ff 	lea    -0x130(%rbp),%rdx
 813:	48 8d 8d cf fe ff ff 	lea    -0x131(%rbp),%rcx
 81a:	48 89 ce             	mov    %rcx,%rsi
 81d:	48 89 c7             	mov    %rax,%rdi
 820:	e8 00 00 00 00       	call   825 <main+0x360>
 825:	48 8d 85 f0 fe ff ff 	lea    -0x110(%rbp),%rax
 82c:	48 89 c7             	mov    %rax,%rdi
 82f:	e8 00 00 00 00       	call   834 <main+0x36f>
 834:	bb 00 00 00 00       	mov    $0x0,%ebx
 839:	48 8d 85 d0 fe ff ff 	lea    -0x130(%rbp),%rax
 840:	48 89 c7             	mov    %rax,%rdi
 843:	e8 00 00 00 00       	call   848 <main+0x383>
 848:	89 d8                	mov    %ebx,%eax
 84a:	48 8b 55 c8          	mov    -0x38(%rbp),%rdx
 84e:	64 48 2b 14 25 28 00 	sub    %fs:0x28,%rdx
 855:	00 00 
 857:	0f 84 ef 00 00 00    	je     94c <main+0x487>
 85d:	e9 e5 00 00 00       	jmp    947 <main+0x482>
 862:	f3 0f 1e fa          	endbr64 
 866:	48 89 c3             	mov    %rax,%rbx
 869:	48 8d 85 f0 fe ff ff 	lea    -0x110(%rbp),%rax
 870:	48 89 c7             	mov    %rax,%rdi
 873:	e8 00 00 00 00       	call   878 <main+0x3b3>
 878:	49 89 dc             	mov    %rbx,%r12
 87b:	48 8d 9d 50 ff ff ff 	lea    -0xb0(%rbp),%rbx
 882:	48 83 c3 78          	add    $0x78,%rbx
 886:	48 8d 85 50 ff ff ff 	lea    -0xb0(%rbp),%rax
 88d:	48 39 c3             	cmp    %rax,%rbx
 890:	74 0e                	je     8a0 <main+0x3db>
 892:	48 83 eb 18          	sub    $0x18,%rbx
 896:	48 89 df             	mov    %rbx,%rdi
 899:	e8 00 00 00 00       	call   89e <main+0x3d9>
 89e:	eb e6                	jmp    886 <main+0x3c1>
 8a0:	4c 89 e3             	mov    %r12,%rbx
 8a3:	eb 07                	jmp    8ac <main+0x3e7>
 8a5:	f3 0f 1e fa          	endbr64 
 8a9:	48 89 c3             	mov    %rax,%rbx
 8ac:	48 8d 85 cf fe ff ff 	lea    -0x131(%rbp),%rax
 8b3:	48 89 c7             	mov    %rax,%rdi
 8b6:	e8 00 00 00 00       	call   8bb <main+0x3f6>
 8bb:	eb 07                	jmp    8c4 <main+0x3ff>
 8bd:	f3 0f 1e fa          	endbr64 
 8c1:	48 89 c3             	mov    %rax,%rbx
 8c4:	48 8d 85 ce fe ff ff 	lea    -0x132(%rbp),%rax
 8cb:	48 89 c7             	mov    %rax,%rdi
 8ce:	e8 00 00 00 00       	call   8d3 <main+0x40e>
 8d3:	eb 07                	jmp    8dc <main+0x417>
 8d5:	f3 0f 1e fa          	endbr64 
 8d9:	48 89 c3             	mov    %rax,%rbx
 8dc:	48 8d 85 cd fe ff ff 	lea    -0x133(%rbp),%rax
 8e3:	48 89 c7             	mov    %rax,%rdi
 8e6:	e8 00 00 00 00       	call   8eb <main+0x426>
 8eb:	eb 07                	jmp    8f4 <main+0x42f>
 8ed:	f3 0f 1e fa          	endbr64 
 8f1:	48 89 c3             	mov    %rax,%rbx
 8f4:	48 8d 85 cc fe ff ff 	lea    -0x134(%rbp),%rax
 8fb:	48 89 c7             	mov    %rax,%rdi
 8fe:	e8 00 00 00 00       	call   903 <main+0x43e>
 903:	eb 07                	jmp    90c <main+0x447>
 905:	f3 0f 1e fa          	endbr64 
 909:	48 89 c3             	mov    %rax,%rbx
 90c:	48 8d 85 cb fe ff ff 	lea    -0x135(%rbp),%rax
 913:	48 89 c7             	mov    %rax,%rdi
 916:	e8 00 00 00 00       	call   91b <main+0x456>
 91b:	48 89 d8             	mov    %rbx,%rax
 91e:	48 89 c7             	mov    %rax,%rdi
 921:	e8 00 00 00 00       	call   926 <main+0x461>
 926:	f3 0f 1e fa          	endbr64 
 92a:	48 89 c3             	mov    %rax,%rbx
 92d:	48 8d 85 d0 fe ff ff 	lea    -0x130(%rbp),%rax
 934:	48 89 c7             	mov    %rax,%rdi
 937:	e8 00 00 00 00       	call   93c <main+0x477>
 93c:	48 89 d8             	mov    %rbx,%rax
 93f:	48 89 c7             	mov    %rax,%rdi
 942:	e8 00 00 00 00       	call   947 <main+0x482>
 947:	e8 00 00 00 00       	call   94c <main+0x487>
 94c:	48 81 c4 58 01 00 00 	add    $0x158,%rsp
 953:	5b                   	pop    %rbx
 954:	41 5c                	pop    %r12
 956:	41 5d                	pop    %r13
 958:	41 5e                	pop    %r14
 95a:	41 5f                	pop    %r15
 95c:	5d                   	pop    %rbp
 95d:	c3                   	ret    

000000000000095e <_Z41__static_initialization_and_destruction_0ii>:
 95e:	f3 0f 1e fa          	endbr64 
 962:	55                   	push   %rbp
 963:	48 89 e5             	mov    %rsp,%rbp
 966:	48 83 ec 10          	sub    $0x10,%rsp
 96a:	89 7d fc             	mov    %edi,-0x4(%rbp)
 96d:	89 75 f8             	mov    %esi,-0x8(%rbp)
 970:	83 7d fc 01          	cmpl   $0x1,-0x4(%rbp)
 974:	75 3b                	jne    9b1 <_Z41__static_initialization_and_destruction_0ii+0x53>
 976:	81 7d f8 ff ff 00 00 	cmpl   $0xffff,-0x8(%rbp)
 97d:	75 32                	jne    9b1 <_Z41__static_initialization_and_destruction_0ii+0x53>
 97f:	48 8d 05 00 00 00 00 	lea    0x0(%rip),%rax        # 986 <_Z41__static_initialization_and_destruction_0ii+0x28>
 986:	48 89 c7             	mov    %rax,%rdi
 989:	e8 00 00 00 00       	call   98e <_Z41__static_initialization_and_destruction_0ii+0x30>
 98e:	48 8d 05 00 00 00 00 	lea    0x0(%rip),%rax        # 995 <_Z41__static_initialization_and_destruction_0ii+0x37>
 995:	48 89 c2             	mov    %rax,%rdx
 998:	48 8d 05 00 00 00 00 	lea    0x0(%rip),%rax        # 99f <_Z41__static_initialization_and_destruction_0ii+0x41>
 99f:	48 89 c6             	mov    %rax,%rsi
 9a2:	48 8b 05 00 00 00 00 	mov    0x0(%rip),%rax        # 9a9 <_Z41__static_initialization_and_destruction_0ii+0x4b>
 9a9:	48 89 c7             	mov    %rax,%rdi
 9ac:	e8 00 00 00 00       	call   9b1 <_Z41__static_initialization_and_destruction_0ii+0x53>
 9b1:	90                   	nop
 9b2:	c9                   	leave  
 9b3:	c3                   	ret    

00000000000009b4 <_GLOBAL__sub_I__ZN4Heap6parentEi>:
 9b4:	f3 0f 1e fa          	endbr64 
 9b8:	55                   	push   %rbp
 9b9:	48 89 e5             	mov    %rsp,%rbp
 9bc:	be ff ff 00 00       	mov    $0xffff,%esi
 9c1:	bf 01 00 00 00       	mov    $0x1,%edi
 9c6:	e8 93 ff ff ff       	call   95e <_Z41__static_initialization_and_destruction_0ii>
 9cb:	5d                   	pop    %rbp
 9cc:	c3                   	ret    

Disassembly of section .text._ZnwmPv:

0000000000000000 <_ZnwmPv>:
   0:	f3 0f 1e fa          	endbr64 
   4:	55                   	push   %rbp
   5:	48 89 e5             	mov    %rsp,%rbp
   8:	48 89 7d f8          	mov    %rdi,-0x8(%rbp)
   c:	48 89 75 f0          	mov    %rsi,-0x10(%rbp)
  10:	48 8b 45 f0          	mov    -0x10(%rbp),%rax
  14:	5d                   	pop    %rbp
  15:	c3                   	ret    

Disassembly of section .text._ZdlPvS_:

0000000000000000 <_ZdlPvS_>:
   0:	f3 0f 1e fa          	endbr64 
   4:	55                   	push   %rbp
   5:	48 89 e5             	mov    %rsp,%rbp
   8:	48 89 7d f8          	mov    %rdi,-0x8(%rbp)
   c:	48 89 75 f0          	mov    %rsi,-0x10(%rbp)
  10:	90                   	nop
  11:	5d                   	pop    %rbp
  12:	c3                   	ret    

Disassembly of section .text._ZSt3minImERKT_S2_S2_:

0000000000000000 <_ZSt3minImERKT_S2_S2_>:
   0:	f3 0f 1e fa          	endbr64 
   4:	55                   	push   %rbp
   5:	48 89 e5             	mov    %rsp,%rbp
   8:	48 89 7d f8          	mov    %rdi,-0x8(%rbp)
   c:	48 89 75 f0          	mov    %rsi,-0x10(%rbp)
  10:	48 8b 45 f0          	mov    -0x10(%rbp),%rax
  14:	48 8b 10             	mov    (%rax),%rdx
  17:	48 8b 45 f8          	mov    -0x8(%rbp),%rax
  1b:	48 8b 00             	mov    (%rax),%rax
  1e:	48 39 c2             	cmp    %rax,%rdx
  21:	73 06                	jae    29 <_ZSt3minImERKT_S2_S2_+0x29>
  23:	48 8b 45 f0          	mov    -0x10(%rbp),%rax
  27:	eb 04                	jmp    2d <_ZSt3minImERKT_S2_S2_+0x2d>
  29:	48 8b 45 f8          	mov    -0x8(%rbp),%rax
  2d:	5d                   	pop    %rbp
  2e:	c3                   	ret    

Disassembly of section .text._ZNSt12_Vector_baseIiSaIiEE12_Vector_implD2Ev:

0000000000000000 <_ZNSt12_Vector_baseIiSaIiEE12_Vector_implD1Ev>:
   0:	f3 0f 1e fa          	endbr64 
   4:	55                   	push   %rbp
   5:	48 89 e5             	mov    %rsp,%rbp
   8:	48 83 ec 10          	sub    $0x10,%rsp
   c:	48 89 7d f8          	mov    %rdi,-0x8(%rbp)
  10:	48 8b 45 f8          	mov    -0x8(%rbp),%rax
  14:	48 89 c7             	mov    %rax,%rdi
  17:	e8 00 00 00 00       	call   1c <_ZNSt12_Vector_baseIiSaIiEE12_Vector_implD1Ev+0x1c>
  1c:	90                   	nop
  1d:	c9                   	leave  
  1e:	c3                   	ret    

Disassembly of section .text._ZNSt12_Vector_baseIiSaIiEEC2Ev:

0000000000000000 <_ZNSt12_Vector_baseIiSaIiEEC1Ev>:
   0:	f3 0f 1e fa          	endbr64 
   4:	55                   	push   %rbp
   5:	48 89 e5             	mov    %rsp,%rbp
   8:	48 83 ec 10          	sub    $0x10,%rsp
   c:	48 89 7d f8          	mov    %rdi,-0x8(%rbp)
  10:	48 8b 45 f8          	mov    -0x8(%rbp),%rax
  14:	48 89 c7             	mov    %rax,%rdi
  17:	e8 00 00 00 00       	call   1c <_ZNSt12_Vector_baseIiSaIiEEC1Ev+0x1c>
  1c:	90                   	nop
  1d:	c9                   	leave  
  1e:	c3                   	ret    

Disassembly of section .text._ZNSt6vectorIiSaIiEEC2Ev:

0000000000000000 <_ZNSt6vectorIiSaIiEEC1Ev>:
   0:	f3 0f 1e fa          	endbr64 
   4:	55                   	push   %rbp
   5:	48 89 e5             	mov    %rsp,%rbp
   8:	48 83 ec 10          	sub    $0x10,%rsp
   c:	48 89 7d f8          	mov    %rdi,-0x8(%rbp)
  10:	48 8b 45 f8          	mov    -0x8(%rbp),%rax
  14:	48 89 c7             	mov    %rax,%rdi
  17:	e8 00 00 00 00       	call   1c <_ZNSt6vectorIiSaIiEEC1Ev+0x1c>
  1c:	90                   	nop
  1d:	c9                   	leave  
  1e:	c3                   	ret    

Disassembly of section .text._ZN4HeapC2Ev:

0000000000000000 <_ZN4HeapC1Ev>:
   0:	f3 0f 1e fa          	endbr64 
   4:	55                   	push   %rbp
   5:	48 89 e5             	mov    %rsp,%rbp
   8:	48 83 ec 10          	sub    $0x10,%rsp
   c:	48 89 7d f8          	mov    %rdi,-0x8(%rbp)
  10:	48 8b 45 f8          	mov    -0x8(%rbp),%rax
  14:	48 89 c7             	mov    %rax,%rdi
  17:	e8 00 00 00 00       	call   1c <_ZN4HeapC1Ev+0x1c>
  1c:	48 8b 45 f8          	mov    -0x8(%rbp),%rax
  20:	c7 40 18 00 00 00 00 	movl   $0x0,0x18(%rax)
  27:	48 8b 45 f8          	mov    -0x8(%rbp),%rax
  2b:	c7 40 1c 00 00 00 00 	movl   $0x0,0x1c(%rax)
  32:	90                   	nop
  33:	c9                   	leave  
  34:	c3                   	ret    

Disassembly of section .text._ZN4Heap4sizeEv:

0000000000000000 <_ZN4Heap4sizeEv>:
   0:	f3 0f 1e fa          	endbr64 
   4:	55                   	push   %rbp
   5:	48 89 e5             	mov    %rsp,%rbp
   8:	48 89 7d f8          	mov    %rdi,-0x8(%rbp)
   c:	48 8b 45 f8          	mov    -0x8(%rbp),%rax
  10:	8b 40 18             	mov    0x18(%rax),%eax
  13:	5d                   	pop    %rbp
  14:	c3                   	ret    

Disassembly of section .text._ZNSt12_Vector_baseI4HeapSaIS0_EE12_Vector_implD2Ev:

0000000000000000 <_ZNSt12_Vector_baseI4HeapSaIS0_EE12_Vector_implD1Ev>:
   0:	f3 0f 1e fa          	endbr64 
   4:	55                   	push   %rbp
   5:	48 89 e5             	mov    %rsp,%rbp
   8:	48 83 ec 10          	sub    $0x10,%rsp
   c:	48 89 7d f8          	mov    %rdi,-0x8(%rbp)
  10:	48 8b 45 f8          	mov    -0x8(%rbp),%rax
  14:	48 89 c7             	mov    %rax,%rdi
  17:	e8 00 00 00 00       	call   1c <_ZNSt12_Vector_baseI4HeapSaIS0_EE12_Vector_implD1Ev+0x1c>
  1c:	90                   	nop
  1d:	c9                   	leave  
  1e:	c3                   	ret    

Disassembly of section .text._ZNSt12_Vector_baseI4HeapSaIS0_EEC2Ev:

0000000000000000 <_ZNSt12_Vector_baseI4HeapSaIS0_EEC1Ev>:
   0:	f3 0f 1e fa          	endbr64 
   4:	55                   	push   %rbp
   5:	48 89 e5             	mov    %rsp,%rbp
   8:	48 83 ec 10          	sub    $0x10,%rsp
   c:	48 89 7d f8          	mov    %rdi,-0x8(%rbp)
  10:	48 8b 45 f8          	mov    -0x8(%rbp),%rax
  14:	48 89 c7             	mov    %rax,%rdi
  17:	e8 00 00 00 00       	call   1c <_ZNSt12_Vector_baseI4HeapSaIS0_EEC1Ev+0x1c>
  1c:	90                   	nop
  1d:	c9                   	leave  
  1e:	c3                   	ret    

Disassembly of section .text._ZNSt6vectorI4HeapSaIS0_EEC2Ev:

0000000000000000 <_ZNSt6vectorI4HeapSaIS0_EEC1Ev>:
   0:	f3 0f 1e fa          	endbr64 
   4:	55                   	push   %rbp
   5:	48 89 e5             	mov    %rsp,%rbp
   8:	48 83 ec 10          	sub    $0x10,%rsp
   c:	48 89 7d f8          	mov    %rdi,-0x8(%rbp)
  10:	48 8b 45 f8          	mov    -0x8(%rbp),%rax
  14:	48 89 c7             	mov    %rax,%rdi
  17:	e8 00 00 00 00       	call   1c <_ZNSt6vectorI4HeapSaIS0_EEC1Ev+0x1c>
  1c:	90                   	nop
  1d:	c9                   	leave  
  1e:	c3                   	ret    

Disassembly of section .text._ZN4HeapD2Ev:

0000000000000000 <_ZN4HeapD1Ev>:
   0:	f3 0f 1e fa          	endbr64 
   4:	55                   	push   %rbp
   5:	48 89 e5             	mov    %rsp,%rbp
   8:	48 83 ec 10          	sub    $0x10,%rsp
   c:	48 89 7d f8          	mov    %rdi,-0x8(%rbp)
  10:	48 8b 45 f8          	mov    -0x8(%rbp),%rax
  14:	48 89 c7             	mov    %rax,%rdi
  17:	e8 00 00 00 00       	call   1c <_ZN4HeapD1Ev+0x1c>
  1c:	90                   	nop
  1d:	c9                   	leave  
  1e:	c3                   	ret    

Disassembly of section .text._ZNSt12_Vector_baseISt6vectorIiSaIiEESaIS2_EE12_Vector_implD2Ev:

0000000000000000 <_ZNSt12_Vector_baseISt6vectorIiSaIiEESaIS2_EE12_Vector_implD1Ev>:
   0:	f3 0f 1e fa          	endbr64 
   4:	55                   	push   %rbp
   5:	48 89 e5             	mov    %rsp,%rbp
   8:	48 83 ec 10          	sub    $0x10,%rsp
   c:	48 89 7d f8          	mov    %rdi,-0x8(%rbp)
  10:	48 8b 45 f8          	mov    -0x8(%rbp),%rax
  14:	48 89 c7             	mov    %rax,%rdi
  17:	e8 00 00 00 00       	call   1c <_ZNSt12_Vector_baseISt6vectorIiSaIiEESaIS2_EE12_Vector_implD1Ev+0x1c>
  1c:	90                   	nop
  1d:	c9                   	leave  
  1e:	c3                   	ret    

Disassembly of section .text._ZNSt12_Vector_baseISt6vectorIiSaIiEESaIS2_EEC2Ev:

0000000000000000 <_ZNSt12_Vector_baseISt6vectorIiSaIiEESaIS2_EEC1Ev>:
   0:	f3 0f 1e fa          	endbr64 
   4:	55                   	push   %rbp
   5:	48 89 e5             	mov    %rsp,%rbp
   8:	48 83 ec 10          	sub    $0x10,%rsp
   c:	48 89 7d f8          	mov    %rdi,-0x8(%rbp)
  10:	48 8b 45 f8          	mov    -0x8(%rbp),%rax
  14:	48 89 c7             	mov    %rax,%rdi
  17:	e8 00 00 00 00       	call   1c <_ZNSt12_Vector_baseISt6vectorIiSaIiEESaIS2_EEC1Ev+0x1c>
  1c:	90                   	nop
  1d:	c9                   	leave  
  1e:	c3                   	ret    

Disassembly of section .text._ZNSt6vectorIS_IiSaIiEESaIS1_EEC2Ev:

0000000000000000 <_ZNSt6vectorIS_IiSaIiEESaIS1_EEC1Ev>:
   0:	f3 0f 1e fa          	endbr64 
   4:	55                   	push   %rbp
   5:	48 89 e5             	mov    %rsp,%rbp
   8:	48 83 ec 10          	sub    $0x10,%rsp
   c:	48 89 7d f8          	mov    %rdi,-0x8(%rbp)
  10:	48 8b 45 f8          	mov    -0x8(%rbp),%rax
  14:	48 89 c7             	mov    %rax,%rdi
  17:	e8 00 00 00 00       	call   1c <_ZNSt6vectorIS_IiSaIiEESaIS1_EEC1Ev+0x1c>
  1c:	90                   	nop
  1d:	c9                   	leave  
  1e:	c3                   	ret    

Disassembly of section .text._ZN8Solution10getSkylineERSt6vectorIS0_IiSaIiEESaIS2_EE:

0000000000000000 <_ZN8Solution10getSkylineERSt6vectorIS0_IiSaIiEESaIS2_EE>:
   0:	f3 0f 1e fa          	endbr64 
   4:	55                   	push   %rbp
   5:	48 89 e5             	mov    %rsp,%rbp
   8:	41 57                	push   %r15
   a:	41 56                	push   %r14
   c:	41 55                	push   %r13
   e:	41 54                	push   %r12
  10:	53                   	push   %rbx
  11:	48 81 ec b8 00 00 00 	sub    $0xb8,%rsp
  18:	48 89 bd 38 ff ff ff 	mov    %rdi,-0xc8(%rbp)
  1f:	48 89 b5 30 ff ff ff 	mov    %rsi,-0xd0(%rbp)
  26:	48 89 95 28 ff ff ff 	mov    %rdx,-0xd8(%rbp)
  2d:	64 48 8b 04 25 28 00 	mov    %fs:0x28,%rax
  34:	00 00 
  36:	48 89 45 c8          	mov    %rax,-0x38(%rbp)
  3a:	31 c0                	xor    %eax,%eax
  3c:	48 8d 85 60 ff ff ff 	lea    -0xa0(%rbp),%rax
  43:	48 89 c7             	mov    %rax,%rdi
  46:	e8 00 00 00 00       	call   4b <_ZN8Solution10getSkylineERSt6vectorIS0_IiSaIiEESaIS2_EE+0x4b>
  4b:	48 8b 85 28 ff ff ff 	mov    -0xd8(%rbp),%rax
  52:	48 89 c7             	mov    %rax,%rdi
  55:	e8 00 00 00 00       	call   5a <_ZN8Solution10getSkylineERSt6vectorIS0_IiSaIiEESaIS2_EE+0x5a>
  5a:	48 89 45 80          	mov    %rax,-0x80(%rbp)
  5e:	e9 00 01 00 00       	jmp    163 <_ZN8Solution10getSkylineERSt6vectorIS0_IiSaIiEESaIS2_EE+0x163>
  63:	48 8d 45 80          	lea    -0x80(%rbp),%rax
  67:	48 89 c7             	mov    %rax,%rdi
  6a:	e8 00 00 00 00       	call   6f <_ZN8Solution10getSkylineERSt6vectorIS0_IiSaIiEESaIS2_EE+0x6f>
  6f:	be 00 00 00 00       	mov    $0x0,%esi
  74:	48 89 c7             	mov    %rax,%rdi
  77:	e8 00 00 00 00       	call   7c <_ZN8Solution10getSkylineERSt6vectorIS0_IiSaIiEESaIS2_EE+0x7c>
  7c:	8b 00                	mov    (%rax),%eax
  7e:	89 85 4c ff ff ff    	mov    %eax,-0xb4(%rbp)
  84:	e9 9d 00 00 00       	jmp    126 <_ZN8Solution10getSkylineERSt6vectorIS0_IiSaIiEESaIS2_EE+0x126>
  89:	48 8d 45 a0          	lea    -0x60(%rbp),%rax
  8d:	48 89 c7             	mov    %rax,%rdi
  90:	e8 00 00 00 00       	call   95 <_ZN8Solution10getSkylineERSt6vectorIS0_IiSaIiEESaIS2_EE+0x95>
  95:	48 8d 55 a0          	lea    -0x60(%rbp),%rdx
  99:	48 8d 85 60 ff ff ff 	lea    -0xa0(%rbp),%rax
  a0:	48 89 d6             	mov    %rdx,%rsi
  a3:	48 89 c7             	mov    %rax,%rdi
  a6:	e8 00 00 00 00       	call   ab <_ZN8Solution10getSkylineERSt6vectorIS0_IiSaIiEESaIS2_EE+0xab>
  ab:	48 8d 45 a0          	lea    -0x60(%rbp),%rax
  af:	48 89 c7             	mov    %rax,%rdi
  b2:	e8 00 00 00 00       	call   b7 <_ZN8Solution10getSkylineERSt6vectorIS0_IiSaIiEESaIS2_EE+0xb7>
  b7:	48 8d 85 60 ff ff ff 	lea    -0xa0(%rbp),%rax
  be:	48 89 c7             	mov    %rax,%rdi
  c1:	e8 00 00 00 00       	call   c6 <_ZN8Solution10getSkylineERSt6vectorIS0_IiSaIiEESaIS2_EE+0xc6>
  c6:	8b 95 4c ff ff ff    	mov    -0xb4(%rbp),%edx
  cc:	83 c2 03             	add    $0x3,%edx
  cf:	48 63 d2             	movslq %edx,%rdx
  d2:	48 39 d0             	cmp    %rdx,%rax
  d5:	0f 92 c0             	setb   %al
  d8:	84 c0                	test   %al,%al
  da:	75 ad                	jne    89 <_ZN8Solution10getSkylineERSt6vectorIS0_IiSaIiEESaIS2_EE+0x89>
  dc:	8b 85 4c ff ff ff    	mov    -0xb4(%rbp),%eax
  e2:	48 63 d0             	movslq %eax,%rdx
  e5:	48 8d 85 60 ff ff ff 	lea    -0xa0(%rbp),%rax
  ec:	48 89 d6             	mov    %rdx,%rsi
  ef:	48 89 c7             	mov    %rax,%rdi
  f2:	e8 00 00 00 00       	call   f7 <_ZN8Solution10getSkylineERSt6vectorIS0_IiSaIiEESaIS2_EE+0xf7>
  f7:	48 89 c3             	mov    %rax,%rbx
  fa:	48 8d 45 80          	lea    -0x80(%rbp),%rax
  fe:	48 89 c7             	mov    %rax,%rdi
 101:	e8 00 00 00 00       	call   106 <_ZN8Solution10getSkylineERSt6vectorIS0_IiSaIiEESaIS2_EE+0x106>
 106:	be 02 00 00 00       	mov    $0x2,%esi
 10b:	48 89 c7             	mov    %rax,%rdi
 10e:	e8 00 00 00 00       	call   113 <_ZN8Solution10getSkylineERSt6vectorIS0_IiSaIiEESaIS2_EE+0x113>
 113:	8b 00                	mov    (%rax),%eax
 115:	89 c6                	mov    %eax,%esi
 117:	48 89 df             	mov    %rbx,%rdi
 11a:	e8 00 00 00 00       	call   11f <_ZN8Solution10getSkylineERSt6vectorIS0_IiSaIiEESaIS2_EE+0x11f>
 11f:	83 85 4c ff ff ff 01 	addl   $0x1,-0xb4(%rbp)
 126:	48 8d 45 80          	lea    -0x80(%rbp),%rax
 12a:	48 89 c7             	mov    %rax,%rdi
 12d:	e8 00 00 00 00       	call   132 <_ZN8Solution10getSkylineERSt6vectorIS0_IiSaIiEESaIS2_EE+0x132>
 132:	be 01 00 00 00       	mov    $0x1,%esi
 137:	48 89 c7             	mov    %rax,%rdi
 13a:	e8 00 00 00 00       	call   13f <_ZN8Solution10getSkylineERSt6vectorIS0_IiSaIiEESaIS2_EE+0x13f>
 13f:	8b 00                	mov    (%rax),%eax
 141:	39 85 4c ff ff ff    	cmp    %eax,-0xb4(%rbp)
 147:	0f 9e c0             	setle  %al
 14a:	84 c0                	test   %al,%al
 14c:	0f 85 65 ff ff ff    	jne    b7 <_ZN8Solution10getSkylineERSt6vectorIS0_IiSaIiEESaIS2_EE+0xb7>
 152:	48 8d 45 80          	lea    -0x80(%rbp),%rax
 156:	be 00 00 00 00       	mov    $0x0,%esi
 15b:	48 89 c7             	mov    %rax,%rdi
 15e:	e8 00 00 00 00       	call   163 <_ZN8Solution10getSkylineERSt6vectorIS0_IiSaIiEESaIS2_EE+0x163>
 163:	48 8b 85 28 ff ff ff 	mov    -0xd8(%rbp),%rax
 16a:	48 89 c7             	mov    %rax,%rdi
 16d:	e8 00 00 00 00       	call   172 <_ZN8Solution10getSkylineERSt6vectorIS0_IiSaIiEESaIS2_EE+0x172>
 172:	48 89 45 a0          	mov    %rax,-0x60(%rbp)
 176:	48 8d 55 a0          	lea    -0x60(%rbp),%rdx
 17a:	48 8d 45 80          	lea    -0x80(%rbp),%rax
 17e:	48 89 d6             	mov    %rdx,%rsi
 181:	48 89 c7             	mov    %rax,%rdi
 184:	e8 00 00 00 00       	call   189 <_ZN8Solution10getSkylineERSt6vectorIS0_IiSaIiEESaIS2_EE+0x189>
 189:	84 c0                	test   %al,%al
 18b:	0f 85 d2 fe ff ff    	jne    63 <_ZN8Solution10getSkylineERSt6vectorIS0_IiSaIiEESaIS2_EE+0x63>
 191:	48 8d 45 80          	lea    -0x80(%rbp),%rax
 195:	48 89 c7             	mov    %rax,%rdi
 198:	e8 00 00 00 00       	call   19d <_ZN8Solution10getSkylineERSt6vectorIS0_IiSaIiEESaIS2_EE+0x19d>
 19d:	48 8d 85 60 ff ff ff 	lea    -0xa0(%rbp),%rax
 1a4:	48 89 c7             	mov    %rax,%rdi
 1a7:	e8 00 00 00 00       	call   1ac <_ZN8Solution10getSkylineERSt6vectorIS0_IiSaIiEESaIS2_EE+0x1ac>
 1ac:	48 89 85 58 ff ff ff 	mov    %rax,-0xa8(%rbp)
 1b3:	eb 7d                	jmp    232 <_ZN8Solution10getSkylineERSt6vectorIS0_IiSaIiEESaIS2_EE+0x232>
 1b5:	48 8d 85 58 ff ff ff 	lea    -0xa8(%rbp),%rax
 1bc:	48 89 c7             	mov    %rax,%rdi
 1bf:	e8 00 00 00 00       	call   1c4 <_ZN8Solution10getSkylineERSt6vectorIS0_IiSaIiEESaIS2_EE+0x1c4>
 1c4:	48 89 c7             	mov    %rax,%rdi
 1c7:	e8 00 00 00 00       	call   1cc <_ZN8Solution10getSkylineERSt6vectorIS0_IiSaIiEESaIS2_EE+0x1cc>
 1cc:	85 c0                	test   %eax,%eax
 1ce:	0f 94 c0             	sete   %al
 1d1:	84 c0                	test   %al,%al
 1d3:	74 1c                	je     1f1 <_ZN8Solution10getSkylineERSt6vectorIS0_IiSaIiEESaIS2_EE+0x1f1>
 1d5:	c7 45 a0 00 00 00 00 	movl   $0x0,-0x60(%rbp)
 1dc:	48 8d 55 a0          	lea    -0x60(%rbp),%rdx
 1e0:	48 8d 45 80          	lea    -0x80(%rbp),%rax
 1e4:	48 89 d6             	mov    %rdx,%rsi
 1e7:	48 89 c7             	mov    %rax,%rdi
 1ea:	e8 00 00 00 00       	call   1ef <_ZN8Solution10getSkylineERSt6vectorIS0_IiSaIiEESaIS2_EE+0x1ef>
 1ef:	eb 2d                	jmp    21e <_ZN8Solution10getSkylineERSt6vectorIS0_IiSaIiEESaIS2_EE+0x21e>
 1f1:	48 8d 85 58 ff ff ff 	lea    -0xa8(%rbp),%rax
 1f8:	48 89 c7             	mov    %rax,%rdi
 1fb:	e8 00 00 00 00       	call   200 <_ZN8Solution10getSkylineERSt6vectorIS0_IiSaIiEESaIS2_EE+0x200>
 200:	48 89 c7             	mov    %rax,%rdi
 203:	e8 00 00 00 00       	call   208 <_ZN8Solution10getSkylineERSt6vectorIS0_IiSaIiEESaIS2_EE+0x208>
 208:	89 45 a0             	mov    %eax,-0x60(%rbp)
 20b:	48 8d 55 a0          	lea    -0x60(%rbp),%rdx
 20f:	48 8d 45 80          	lea    -0x80(%rbp),%rax
 213:	48 89 d6             	mov    %rdx,%rsi
 216:	48 89 c7             	mov    %rax,%rdi
 219:	e8 00 00 00 00       	call   21e <_ZN8Solution10getSkylineERSt6vectorIS0_IiSaIiEESaIS2_EE+0x21e>
 21e:	48 8d 85 58 ff ff ff 	lea    -0xa8(%rbp),%rax
 225:	be 00 00 00 00       	mov    $0x0,%esi
 22a:	48 89 c7             	mov    %rax,%rdi
 22d:	e8 00 00 00 00       	call   232 <_ZN8Solution10getSkylineERSt6vectorIS0_IiSaIiEESaIS2_EE+0x232>
 232:	48 8d 85 60 ff ff ff 	lea    -0xa0(%rbp),%rax
 239:	48 89 c7             	mov    %rax,%rdi
 23c:	e8 00 00 00 00       	call   241 <_ZN8Solution10getSkylineERSt6vectorIS0_IiSaIiEESaIS2_EE+0x241>
 241:	48 89 45 a0          	mov    %rax,-0x60(%rbp)
 245:	48 8d 55 a0          	lea    -0x60(%rbp),%rdx
 249:	48 8d 85 58 ff ff ff 	lea    -0xa8(%rbp),%rax
 250:	48 89 d6             	mov    %rdx,%rsi
 253:	48 89 c7             	mov    %rax,%rdi
 256:	e8 00 00 00 00       	call   25b <_ZN8Solution10getSkylineERSt6vectorIS0_IiSaIiEESaIS2_EE+0x25b>
 25b:	84 c0                	test   %al,%al
 25d:	0f 85 52 ff ff ff    	jne    1b5 <_ZN8Solution10getSkylineERSt6vectorIS0_IiSaIiEESaIS2_EE+0x1b5>
 263:	48 8d 45 80          	lea    -0x80(%rbp),%rax
 267:	48 89 c7             	mov    %rax,%rdi
 26a:	e8 00 00 00 00       	call   26f <_ZN8Solution10getSkylineERSt6vectorIS0_IiSaIiEESaIS2_EE+0x26f>
 26f:	48 89 85 50 ff ff ff 	mov    %rax,-0xb0(%rbp)
 276:	48 8b 85 38 ff ff ff 	mov    -0xc8(%rbp),%rax
 27d:	48 89 c7             	mov    %rax,%rdi
 280:	e8 00 00 00 00       	call   285 <_ZN8Solution10getSkylineERSt6vectorIS0_IiSaIiEESaIS2_EE+0x285>
 285:	c6 85 4b ff ff ff 00 	movb   $0x0,-0xb5(%rbp)
 28c:	e9 90 02 00 00       	jmp    521 <_ZN8Solution10getSkylineERSt6vectorIS0_IiSaIiEESaIS2_EE+0x521>
 291:	48 8d 85 50 ff ff ff 	lea    -0xb0(%rbp),%rax
 298:	48 89 c7             	mov    %rax,%rdi
 29b:	e8 00 00 00 00       	call   2a0 <_ZN8Solution10getSkylineERSt6vectorIS0_IiSaIiEESaIS2_EE+0x2a0>
 2a0:	8b 00                	mov    (%rax),%eax
 2a2:	85 c0                	test   %eax,%eax
 2a4:	75 12                	jne    2b8 <_ZN8Solution10getSkylineERSt6vectorIS0_IiSaIiEESaIS2_EE+0x2b8>
 2a6:	0f b6 85 4b ff ff ff 	movzbl -0xb5(%rbp),%eax
 2ad:	85 c0                	test   %eax,%eax
 2af:	75 07                	jne    2b8 <_ZN8Solution10getSkylineERSt6vectorIS0_IiSaIiEESaIS2_EE+0x2b8>
 2b1:	b8 01 00 00 00       	mov    $0x1,%eax
 2b6:	eb 05                	jmp    2bd <_ZN8Solution10getSkylineERSt6vectorIS0_IiSaIiEESaIS2_EE+0x2bd>
 2b8:	b8 00 00 00 00       	mov    $0x0,%eax
 2bd:	84 c0                	test   %al,%al
 2bf:	74 19                	je     2da <_ZN8Solution10getSkylineERSt6vectorIS0_IiSaIiEESaIS2_EE+0x2da>
 2c1:	48 8d 85 50 ff ff ff 	lea    -0xb0(%rbp),%rax
 2c8:	be 01 00 00 00       	mov    $0x1,%esi
 2cd:	48 89 c7             	mov    %rax,%rdi
 2d0:	e8 00 00 00 00       	call   2d5 <_ZN8Solution10getSkylineERSt6vectorIS0_IiSaIiEESaIS2_EE+0x2d5>
 2d5:	e9 47 02 00 00       	jmp    521 <_ZN8Solution10getSkylineERSt6vectorIS0_IiSaIiEESaIS2_EE+0x521>
 2da:	48 8b 85 38 ff ff ff 	mov    -0xc8(%rbp),%rax
 2e1:	48 89 c7             	mov    %rax,%rdi
 2e4:	e8 00 00 00 00       	call   2e9 <_ZN8Solution10getSkylineERSt6vectorIS0_IiSaIiEESaIS2_EE+0x2e9>
 2e9:	48 85 c0             	test   %rax,%rax
 2ec:	74 3a                	je     328 <_ZN8Solution10getSkylineERSt6vectorIS0_IiSaIiEESaIS2_EE+0x328>
 2ee:	48 8d 85 50 ff ff ff 	lea    -0xb0(%rbp),%rax
 2f5:	48 89 c7             	mov    %rax,%rdi
 2f8:	e8 00 00 00 00       	call   2fd <_ZN8Solution10getSkylineERSt6vectorIS0_IiSaIiEESaIS2_EE+0x2fd>
 2fd:	8b 18                	mov    (%rax),%ebx
 2ff:	48 8b 85 38 ff ff ff 	mov    -0xc8(%rbp),%rax
 306:	48 89 c7             	mov    %rax,%rdi
 309:	e8 00 00 00 00       	call   30e <_ZN8Solution10getSkylineERSt6vectorIS0_IiSaIiEESaIS2_EE+0x30e>
 30e:	be 01 00 00 00       	mov    $0x1,%esi
 313:	48 89 c7             	mov    %rax,%rdi
 316:	e8 00 00 00 00       	call   31b <_ZN8Solution10getSkylineERSt6vectorIS0_IiSaIiEESaIS2_EE+0x31b>
 31b:	8b 00                	mov    (%rax),%eax
 31d:	39 c3                	cmp    %eax,%ebx
 31f:	75 07                	jne    328 <_ZN8Solution10getSkylineERSt6vectorIS0_IiSaIiEESaIS2_EE+0x328>
 321:	b8 01 00 00 00       	mov    $0x1,%eax
 326:	eb 05                	jmp    32d <_ZN8Solution10getSkylineERSt6vectorIS0_IiSaIiEESaIS2_EE+0x32d>
 328:	b8 00 00 00 00       	mov    $0x0,%eax
 32d:	84 c0                	test   %al,%al
 32f:	74 19                	je     34a <_ZN8Solution10getSkylineERSt6vectorIS0_IiSaIiEESaIS2_EE+0x34a>
 331:	48 8d 85 50 ff ff ff 	lea    -0xb0(%rbp),%rax
 338:	be 01 00 00 00       	mov    $0x1,%esi
 33d:	48 89 c7             	mov    %rax,%rdi
 340:	e8 00 00 00 00       	call   345 <_ZN8Solution10getSkylineERSt6vectorIS0_IiSaIiEESaIS2_EE+0x345>
 345:	e9 d7 01 00 00       	jmp    521 <_ZN8Solution10getSkylineERSt6vectorIS0_IiSaIiEESaIS2_EE+0x521>
 34a:	c6 85 4b ff ff ff 01 	movb   $0x1,-0xb5(%rbp)
 351:	48 8d 85 50 ff ff ff 	lea    -0xb0(%rbp),%rax
 358:	48 89 c7             	mov    %rax,%rdi
 35b:	e8 00 00 00 00       	call   360 <_ZN8Solution10getSkylineERSt6vectorIS0_IiSaIiEESaIS2_EE+0x360>
 360:	8b 18                	mov    (%rax),%ebx
 362:	48 8d 85 50 ff ff ff 	lea    -0xb0(%rbp),%rax
 369:	be 01 00 00 00       	mov    $0x1,%esi
 36e:	48 89 c7             	mov    %rax,%rdi
 371:	e8 00 00 00 00       	call   376 <_ZN8Solution10getSkylineERSt6vectorIS0_IiSaIiEESaIS2_EE+0x376>
 376:	48 89 45 a0          	mov    %rax,-0x60(%rbp)
 37a:	48 8d 45 a0          	lea    -0x60(%rbp),%rax
 37e:	48 89 c7             	mov    %rax,%rdi
 381:	e8 00 00 00 00       	call   386 <_ZN8Solution10getSkylineERSt6vectorIS0_IiSaIiEESaIS2_EE+0x386>
 386:	8b 00                	mov    (%rax),%eax
 388:	39 c3                	cmp    %eax,%ebx
 38a:	0f 9c c0             	setl   %al
 38d:	84 c0                	test   %al,%al
 38f:	0f 84 c0 00 00 00    	je     455 <_ZN8Solution10getSkylineERSt6vectorIS0_IiSaIiEESaIS2_EE+0x455>
 395:	48 8d 45 80          	lea    -0x80(%rbp),%rax
 399:	48 89 c7             	mov    %rax,%rdi
 39c:	e8 00 00 00 00       	call   3a1 <_ZN8Solution10getSkylineERSt6vectorIS0_IiSaIiEESaIS2_EE+0x3a1>
 3a1:	48 89 85 58 ff ff ff 	mov    %rax,-0xa8(%rbp)
 3a8:	48 8d 95 58 ff ff ff 	lea    -0xa8(%rbp),%rdx
 3af:	48 8d 85 50 ff ff ff 	lea    -0xb0(%rbp),%rax
 3b6:	48 89 d6             	mov    %rdx,%rsi
 3b9:	48 89 c7             	mov    %rax,%rdi
 3bc:	e8 00 00 00 00       	call   3c1 <_ZN8Solution10getSkylineERSt6vectorIS0_IiSaIiEESaIS2_EE+0x3c1>
 3c1:	83 e8 01             	sub    $0x1,%eax
 3c4:	89 45 c0             	mov    %eax,-0x40(%rbp)
 3c7:	48 8d 85 50 ff ff ff 	lea    -0xb0(%rbp),%rax
 3ce:	48 89 c7             	mov    %rax,%rdi
 3d1:	e8 00 00 00 00       	call   3d6 <_ZN8Solution10getSkylineERSt6vectorIS0_IiSaIiEESaIS2_EE+0x3d6>
 3d6:	8b 00                	mov    (%rax),%eax
 3d8:	89 45 c4             	mov    %eax,-0x3c(%rbp)
 3db:	48 8d 45 c0          	lea    -0x40(%rbp),%rax
 3df:	49 89 c6             	mov    %rax,%r14
 3e2:	41 bf 02 00 00 00    	mov    $0x2,%r15d
 3e8:	48 8d 85 4a ff ff ff 	lea    -0xb6(%rbp),%rax
 3ef:	48 89 c7             	mov    %rax,%rdi
 3f2:	e8 00 00 00 00       	call   3f7 <_ZN8Solution10getSkylineERSt6vectorIS0_IiSaIiEESaIS2_EE+0x3f7>
 3f7:	48 8d 95 4a ff ff ff 	lea    -0xb6(%rbp),%rdx
 3fe:	4c 89 f6             	mov    %r14,%rsi
 401:	4c 89 ff             	mov    %r15,%rdi
 404:	4c 89 f1             	mov    %r14,%rcx
 407:	4c 89 fb             	mov    %r15,%rbx
 40a:	48 89 df             	mov    %rbx,%rdi
 40d:	48 8d 45 a0          	lea    -0x60(%rbp),%rax
 411:	48 89 d1             	mov    %rdx,%rcx
 414:	48 89 fa             	mov    %rdi,%rdx
 417:	48 89 c7             	mov    %rax,%rdi
 41a:	e8 00 00 00 00       	call   41f <_ZN8Solution10getSkylineERSt6vectorIS0_IiSaIiEESaIS2_EE+0x41f>
 41f:	48 8d 55 a0          	lea    -0x60(%rbp),%rdx
 423:	48 8b 85 38 ff ff ff 	mov    -0xc8(%rbp),%rax
 42a:	48 89 d6             	mov    %rdx,%rsi
 42d:	48 89 c7             	mov    %rax,%rdi
 430:	e8 00 00 00 00       	call   435 <_ZN8Solution10getSkylineERSt6vectorIS0_IiSaIiEESaIS2_EE+0x435>
 435:	48 8d 45 a0          	lea    -0x60(%rbp),%rax
 439:	48 89 c7             	mov    %rax,%rdi
 43c:	e8 00 00 00 00       	call   441 <_ZN8Solution10getSkylineERSt6vectorIS0_IiSaIiEESaIS2_EE+0x441>
 441:	48 8d 85 4a ff ff ff 	lea    -0xb6(%rbp),%rax
 448:	48 89 c7             	mov    %rax,%rdi
 44b:	e8 00 00 00 00       	call   450 <_ZN8Solution10getSkylineERSt6vectorIS0_IiSaIiEESaIS2_EE+0x450>
 450:	e9 b8 00 00 00       	jmp    50d <_ZN8Solution10getSkylineERSt6vectorIS0_IiSaIiEESaIS2_EE+0x50d>
 455:	48 8d 45 80          	lea    -0x80(%rbp),%rax
 459:	48 89 c7             	mov    %rax,%rdi
 45c:	e8 00 00 00 00       	call   461 <_ZN8Solution10getSkylineERSt6vectorIS0_IiSaIiEESaIS2_EE+0x461>
 461:	48 89 85 58 ff ff ff 	mov    %rax,-0xa8(%rbp)
 468:	48 8d 95 58 ff ff ff 	lea    -0xa8(%rbp),%rdx
 46f:	48 8d 85 50 ff ff ff 	lea    -0xb0(%rbp),%rax
 476:	48 89 d6             	mov    %rdx,%rsi
 479:	48 89 c7             	mov    %rax,%rdi
 47c:	e8 00 00 00 00       	call   481 <_ZN8Solution10getSkylineERSt6vectorIS0_IiSaIiEESaIS2_EE+0x481>
 481:	89 45 c0             	mov    %eax,-0x40(%rbp)
 484:	48 8d 85 50 ff ff ff 	lea    -0xb0(%rbp),%rax
 48b:	48 89 c7             	mov    %rax,%rdi
 48e:	e8 00 00 00 00       	call   493 <_ZN8Solution10getSkylineERSt6vectorIS0_IiSaIiEESaIS2_EE+0x493>
 493:	8b 00                	mov    (%rax),%eax
 495:	89 45 c4             	mov    %eax,-0x3c(%rbp)
 498:	48 8d 45 c0          	lea    -0x40(%rbp),%rax
 49c:	49 89 c4             	mov    %rax,%r12
 49f:	41 bd 02 00 00 00    	mov    $0x2,%r13d
 4a5:	48 8d 85 4a ff ff ff 	lea    -0xb6(%rbp),%rax
 4ac:	48 89 c7             	mov    %rax,%rdi
 4af:	e8 00 00 00 00       	call   4b4 <_ZN8Solution10getSkylineERSt6vectorIS0_IiSaIiEESaIS2_EE+0x4b4>
 4b4:	48 8d 95 4a ff ff ff 	lea    -0xb6(%rbp),%rdx
 4bb:	4c 89 e6             	mov    %r12,%rsi
 4be:	4c 89 ef             	mov    %r13,%rdi
 4c1:	4c 89 e1             	mov    %r12,%rcx
 4c4:	4c 89 eb             	mov    %r13,%rbx
 4c7:	48 89 df             	mov    %rbx,%rdi
 4ca:	48 8d 45 a0          	lea    -0x60(%rbp),%rax
 4ce:	48 89 d1             	mov    %rdx,%rcx
 4d1:	48 89 fa             	mov    %rdi,%rdx
 4d4:	48 89 c7             	mov    %rax,%rdi
 4d7:	e8 00 00 00 00       	call   4dc <_ZN8Solution10getSkylineERSt6vectorIS0_IiSaIiEESaIS2_EE+0x4dc>
 4dc:	48 8d 55 a0          	lea    -0x60(%rbp),%rdx
 4e0:	48 8b 85 38 ff ff ff 	mov    -0xc8(%rbp),%rax
 4e7:	48 89 d6             	mov    %rdx,%rsi
 4ea:	48 89 c7             	mov    %rax,%rdi
 4ed:	e8 00 00 00 00       	call   4f2 <_ZN8Solution10getSkylineERSt6vectorIS0_IiSaIiEESaIS2_EE+0x4f2>
 4f2:	48 8d 45 a0          	lea    -0x60(%rbp),%rax
 4f6:	48 89 c7             	mov    %rax,%rdi
 4f9:	e8 00 00 00 00       	call   4fe <_ZN8Solution10getSkylineERSt6vectorIS0_IiSaIiEESaIS2_EE+0x4fe>
 4fe:	48 8d 85 4a ff ff ff 	lea    -0xb6(%rbp),%rax
 505:	48 89 c7             	mov    %rax,%rdi
 508:	e8 00 00 00 00       	call   50d <_ZN8Solution10getSkylineERSt6vectorIS0_IiSaIiEESaIS2_EE+0x50d>
 50d:	48 8d 85 50 ff ff ff 	lea    -0xb0(%rbp),%rax
 514:	be 01 00 00 00       	mov    $0x1,%esi
 519:	48 89 c7             	mov    %rax,%rdi
 51c:	e8 00 00 00 00       	call   521 <_ZN8Solution10getSkylineERSt6vectorIS0_IiSaIiEESaIS2_EE+0x521>
 521:	48 8d 45 80          	lea    -0x80(%rbp),%rax
 525:	48 89 c7             	mov    %rax,%rdi
 528:	e8 00 00 00 00       	call   52d <_ZN8Solution10getSkylineERSt6vectorIS0_IiSaIiEESaIS2_EE+0x52d>
 52d:	48 89 45 a0          	mov    %rax,-0x60(%rbp)
 531:	48 8d 55 a0          	lea    -0x60(%rbp),%rdx
 535:	48 8d 85 50 ff ff ff 	lea    -0xb0(%rbp),%rax
 53c:	48 89 d6             	mov    %rdx,%rsi
 53f:	48 89 c7             	mov    %rax,%rdi
 542:	e8 00 00 00 00       	call   547 <_ZN8Solution10getSkylineERSt6vectorIS0_IiSaIiEESaIS2_EE+0x547>
 547:	84 c0                	test   %al,%al
 549:	0f 85 42 fd ff ff    	jne    291 <_ZN8Solution10getSkylineERSt6vectorIS0_IiSaIiEESaIS2_EE+0x291>
 54f:	90                   	nop
 550:	48 8d 45 80          	lea    -0x80(%rbp),%rax
 554:	48 89 c7             	mov    %rax,%rdi
 557:	e8 00 00 00 00       	call   55c <_ZN8Solution10getSkylineERSt6vectorIS0_IiSaIiEESaIS2_EE+0x55c>
 55c:	48 8d 85 60 ff ff ff 	lea    -0xa0(%rbp),%rax
 563:	48 89 c7             	mov    %rax,%rdi
 566:	e8 00 00 00 00       	call   56b <_ZN8Solution10getSkylineERSt6vectorIS0_IiSaIiEESaIS2_EE+0x56b>
 56b:	90                   	nop
 56c:	48 8b 45 c8          	mov    -0x38(%rbp),%rax
 570:	64 48 2b 04 25 28 00 	sub    %fs:0x28,%rax
 577:	00 00 
 579:	0f 84 ca 00 00 00    	je     649 <_ZN8Solution10getSkylineERSt6vectorIS0_IiSaIiEESaIS2_EE+0x649>
 57f:	e9 c0 00 00 00       	jmp    644 <_ZN8Solution10getSkylineERSt6vectorIS0_IiSaIiEESaIS2_EE+0x644>
 584:	f3 0f 1e fa          	endbr64 
 588:	48 89 c3             	mov    %rax,%rbx
 58b:	48 8d 45 a0          	lea    -0x60(%rbp),%rax
 58f:	48 89 c7             	mov    %rax,%rdi
 592:	e8 00 00 00 00       	call   597 <_ZN8Solution10getSkylineERSt6vectorIS0_IiSaIiEESaIS2_EE+0x597>
 597:	e9 8e 00 00 00       	jmp    62a <_ZN8Solution10getSkylineERSt6vectorIS0_IiSaIiEESaIS2_EE+0x62a>
 59c:	f3 0f 1e fa          	endbr64 
 5a0:	48 89 c3             	mov    %rax,%rbx
 5a3:	48 8d 45 a0          	lea    -0x60(%rbp),%rax
 5a7:	48 89 c7             	mov    %rax,%rdi
 5aa:	e8 00 00 00 00       	call   5af <_ZN8Solution10getSkylineERSt6vectorIS0_IiSaIiEESaIS2_EE+0x5af>
 5af:	eb 07                	jmp    5b8 <_ZN8Solution10getSkylineERSt6vectorIS0_IiSaIiEESaIS2_EE+0x5b8>
 5b1:	f3 0f 1e fa          	endbr64 
 5b5:	48 89 c3             	mov    %rax,%rbx
 5b8:	48 8d 85 4a ff ff ff 	lea    -0xb6(%rbp),%rax
 5bf:	48 89 c7             	mov    %rax,%rdi
 5c2:	e8 00 00 00 00       	call   5c7 <_ZN8Solution10getSkylineERSt6vectorIS0_IiSaIiEESaIS2_EE+0x5c7>
 5c7:	eb 34                	jmp    5fd <_ZN8Solution10getSkylineERSt6vectorIS0_IiSaIiEESaIS2_EE+0x5fd>
 5c9:	f3 0f 1e fa          	endbr64 
 5cd:	48 89 c3             	mov    %rax,%rbx
 5d0:	48 8d 45 a0          	lea    -0x60(%rbp),%rax
 5d4:	48 89 c7             	mov    %rax,%rdi
 5d7:	e8 00 00 00 00       	call   5dc <_ZN8Solution10getSkylineERSt6vectorIS0_IiSaIiEESaIS2_EE+0x5dc>
 5dc:	eb 07                	jmp    5e5 <_ZN8Solution10getSkylineERSt6vectorIS0_IiSaIiEESaIS2_EE+0x5e5>
 5de:	f3 0f 1e fa          	endbr64 
 5e2:	48 89 c3             	mov    %rax,%rbx
 5e5:	48 8d 85 4a ff ff ff 	lea    -0xb6(%rbp),%rax
 5ec:	48 89 c7             	mov    %rax,%rdi
 5ef:	e8 00 00 00 00       	call   5f4 <_ZN8Solution10getSkylineERSt6vectorIS0_IiSaIiEESaIS2_EE+0x5f4>
 5f4:	eb 07                	jmp    5fd <_ZN8Solution10getSkylineERSt6vectorIS0_IiSaIiEESaIS2_EE+0x5fd>
 5f6:	f3 0f 1e fa          	endbr64 
 5fa:	48 89 c3             	mov    %rax,%rbx
 5fd:	48 8b 85 38 ff ff ff 	mov    -0xc8(%rbp),%rax
 604:	48 89 c7             	mov    %rax,%rdi
 607:	e8 00 00 00 00       	call   60c <_ZN8Solution10getSkylineERSt6vectorIS0_IiSaIiEESaIS2_EE+0x60c>
 60c:	eb 07                	jmp    615 <_ZN8Solution10getSkylineERSt6vectorIS0_IiSaIiEESaIS2_EE+0x615>
 60e:	f3 0f 1e fa          	endbr64 
 612:	48 89 c3             	mov    %rax,%rbx
 615:	48 8d 45 80          	lea    -0x80(%rbp),%rax
 619:	48 89 c7             	mov    %rax,%rdi
 61c:	e8 00 00 00 00       	call   621 <_ZN8Solution10getSkylineERSt6vectorIS0_IiSaIiEESaIS2_EE+0x621>
 621:	eb 07                	jmp    62a <_ZN8Solution10getSkylineERSt6vectorIS0_IiSaIiEESaIS2_EE+0x62a>
 623:	f3 0f 1e fa          	endbr64 
 627:	48 89 c3             	mov    %rax,%rbx
 62a:	48 8d 85 60 ff ff ff 	lea    -0xa0(%rbp),%rax
 631:	48 89 c7             	mov    %rax,%rdi
 634:	e8 00 00 00 00       	call   639 <_ZN8Solution10getSkylineERSt6vectorIS0_IiSaIiEESaIS2_EE+0x639>
 639:	48 89 d8             	mov    %rbx,%rax
 63c:	48 89 c7             	mov    %rax,%rdi
 63f:	e8 00 00 00 00       	call   644 <_ZN8Solution10getSkylineERSt6vectorIS0_IiSaIiEESaIS2_EE+0x644>
 644:	e8 00 00 00 00       	call   649 <_ZN8Solution10getSkylineERSt6vectorIS0_IiSaIiEESaIS2_EE+0x649>
 649:	48 8b 85 38 ff ff ff 	mov    -0xc8(%rbp),%rax
 650:	48 81 c4 b8 00 00 00 	add    $0xb8,%rsp
 657:	5b                   	pop    %rbx
 658:	41 5c                	pop    %r12
 65a:	41 5d                	pop    %r13
 65c:	41 5e                	pop    %r14
 65e:	41 5f                	pop    %r15
 660:	5d                   	pop    %rbp
 661:	c3                   	ret    

Disassembly of section .text._ZSt3maxImERKT_S2_S2_:

0000000000000000 <_ZSt3maxImERKT_S2_S2_>:
   0:	f3 0f 1e fa          	endbr64 
   4:	55                   	push   %rbp
   5:	48 89 e5             	mov    %rsp,%rbp
   8:	48 89 7d f8          	mov    %rdi,-0x8(%rbp)
   c:	48 89 75 f0          	mov    %rsi,-0x10(%rbp)
  10:	48 8b 45 f8          	mov    -0x8(%rbp),%rax
  14:	48 8b 10             	mov    (%rax),%rdx
  17:	48 8b 45 f0          	mov    -0x10(%rbp),%rax
  1b:	48 8b 00             	mov    (%rax),%rax
  1e:	48 39 c2             	cmp    %rax,%rdx
  21:	73 06                	jae    29 <_ZSt3maxImERKT_S2_S2_+0x29>
  23:	48 8b 45 f0          	mov    -0x10(%rbp),%rax
  27:	eb 04                	jmp    2d <_ZSt3maxImERKT_S2_S2_+0x2d>
  29:	48 8b 45 f8          	mov    -0x8(%rbp),%rax
  2d:	5d                   	pop    %rbp
  2e:	c3                   	ret    

Disassembly of section .text._ZSt7forwardIiEOT_RNSt16remove_referenceIS0_E4typeE:

0000000000000000 <_ZSt7forwardIiEOT_RNSt16remove_referenceIS0_E4typeE>:
   0:	f3 0f 1e fa          	endbr64 
   4:	55                   	push   %rbp
   5:	48 89 e5             	mov    %rsp,%rbp
   8:	48 89 7d f8          	mov    %rdi,-0x8(%rbp)
   c:	48 8b 45 f8          	mov    -0x8(%rbp),%rax
  10:	5d                   	pop    %rbp
  11:	c3                   	ret    

Disassembly of section .text._ZNSt12_Vector_baseIiSaIiEE12_Vector_implC2Ev:

0000000000000000 <_ZNSt12_Vector_baseIiSaIiEE12_Vector_implC1Ev>:
   0:	f3 0f 1e fa          	endbr64 
   4:	55                   	push   %rbp
   5:	48 89 e5             	mov    %rsp,%rbp
   8:	48 83 ec 10          	sub    $0x10,%rsp
   c:	48 89 7d f8          	mov    %rdi,-0x8(%rbp)
  10:	48 8b 45 f8          	mov    -0x8(%rbp),%rax
  14:	48 89 c7             	mov    %rax,%rdi
  17:	e8 00 00 00 00       	call   1c <_ZNSt12_Vector_baseIiSaIiEE12_Vector_implC1Ev+0x1c>
  1c:	48 8b 45 f8          	mov    -0x8(%rbp),%rax
  20:	48 89 c7             	mov    %rax,%rdi
  23:	e8 00 00 00 00       	call   28 <_ZNSt12_Vector_baseIiSaIiEE12_Vector_implC1Ev+0x28>
  28:	90                   	nop
  29:	c9                   	leave  
  2a:	c3                   	ret    

Disassembly of section .text._ZNSaIiED2Ev:

0000000000000000 <_ZNSaIiED1Ev>:
   0:	f3 0f 1e fa          	endbr64 
   4:	55                   	push   %rbp
   5:	48 89 e5             	mov    %rsp,%rbp
   8:	48 83 ec 10          	sub    $0x10,%rsp
   c:	48 89 7d f8          	mov    %rdi,-0x8(%rbp)
  10:	48 8b 45 f8          	mov    -0x8(%rbp),%rax
  14:	48 89 c7             	mov    %rax,%rdi
  17:	e8 00 00 00 00       	call   1c <_ZNSaIiED1Ev+0x1c>
  1c:	90                   	nop
  1d:	c9                   	leave  
  1e:	c3                   	ret    

Disassembly of section .text._ZNSt12_Vector_baseIiSaIiEED2Ev:

0000000000000000 <_ZNSt12_Vector_baseIiSaIiEED1Ev>:
   0:	f3 0f 1e fa          	endbr64 
   4:	55                   	push   %rbp
   5:	48 89 e5             	mov    %rsp,%rbp
   8:	48 83 ec 10          	sub    $0x10,%rsp
   c:	48 89 7d f8          	mov    %rdi,-0x8(%rbp)
  10:	48 8b 45 f8          	mov    -0x8(%rbp),%rax
  14:	48 8b 50 10          	mov    0x10(%rax),%rdx
  18:	48 8b 45 f8          	mov    -0x8(%rbp),%rax
  1c:	48 8b 08             	mov    (%rax),%rcx
  1f:	48 89 d0             	mov    %rdx,%rax
  22:	48 29 c8             	sub    %rcx,%rax
  25:	48 c1 f8 02          	sar    $0x2,%rax
  29:	48 89 c2             	mov    %rax,%rdx
  2c:	48 8b 45 f8          	mov    -0x8(%rbp),%rax
  30:	48 8b 08             	mov    (%rax),%rcx
  33:	48 8b 45 f8          	mov    -0x8(%rbp),%rax
  37:	48 89 ce             	mov    %rcx,%rsi
  3a:	48 89 c7             	mov    %rax,%rdi
  3d:	e8 00 00 00 00       	call   42 <_ZNSt12_Vector_baseIiSaIiEED1Ev+0x42>
  42:	48 8b 45 f8          	mov    -0x8(%rbp),%rax
  46:	48 89 c7             	mov    %rax,%rdi
  49:	e8 00 00 00 00       	call   4e <_ZNSt12_Vector_baseIiSaIiEED1Ev+0x4e>
  4e:	90                   	nop
  4f:	c9                   	leave  
  50:	c3                   	ret    

Disassembly of section .text._ZNSt6vectorIiSaIiEED2Ev:

0000000000000000 <_ZNSt6vectorIiSaIiEED1Ev>:
   0:	f3 0f 1e fa          	endbr64 
   4:	55                   	push   %rbp
   5:	48 89 e5             	mov    %rsp,%rbp
   8:	48 83 ec 10          	sub    $0x10,%rsp
   c:	48 89 7d f8          	mov    %rdi,-0x8(%rbp)
  10:	48 8b 45 f8          	mov    -0x8(%rbp),%rax
  14:	48 89 c7             	mov    %rax,%rdi
  17:	e8 00 00 00 00       	call   1c <_ZNSt6vectorIiSaIiEED1Ev+0x1c>
  1c:	48 89 c2             	mov    %rax,%rdx
  1f:	48 8b 45 f8          	mov    -0x8(%rbp),%rax
  23:	48 8b 48 08          	mov    0x8(%rax),%rcx
  27:	48 8b 45 f8          	mov    -0x8(%rbp),%rax
  2b:	48 8b 00             	mov    (%rax),%rax
  2e:	48 89 ce             	mov    %rcx,%rsi
  31:	48 89 c7             	mov    %rax,%rdi
  34:	e8 00 00 00 00       	call   39 <_ZNSt6vectorIiSaIiEED1Ev+0x39>
  39:	48 8b 45 f8          	mov    -0x8(%rbp),%rax
  3d:	48 89 c7             	mov    %rax,%rdi
  40:	e8 00 00 00 00       	call   45 <_ZNSt6vectorIiSaIiEED1Ev+0x45>
  45:	90                   	nop
  46:	c9                   	leave  
  47:	c3                   	ret    

Disassembly of section .text._ZNKSt6vectorIiSaIiEE4sizeEv:

0000000000000000 <_ZNKSt6vectorIiSaIiEE4sizeEv>:
   0:	f3 0f 1e fa          	endbr64 
   4:	55                   	push   %rbp
   5:	48 89 e5             	mov    %rsp,%rbp
   8:	48 89 7d f8          	mov    %rdi,-0x8(%rbp)
   c:	48 8b 45 f8          	mov    -0x8(%rbp),%rax
  10:	48 8b 50 08          	mov    0x8(%rax),%rdx
  14:	48 8b 45 f8          	mov    -0x8(%rbp),%rax
  18:	48 8b 08             	mov    (%rax),%rcx
  1b:	48 89 d0             	mov    %rdx,%rax
  1e:	48 29 c8             	sub    %rcx,%rax
  21:	48 c1 f8 02          	sar    $0x2,%rax
  25:	5d                   	pop    %rbp
  26:	c3                   	ret    

Disassembly of section .text._ZNSt6vectorIiSaIiEE9push_backERKi:

0000000000000000 <_ZNSt6vectorIiSaIiEE9push_backERKi>:
   0:	f3 0f 1e fa          	endbr64 
   4:	55                   	push   %rbp
   5:	48 89 e5             	mov    %rsp,%rbp
   8:	48 83 ec 10          	sub    $0x10,%rsp
   c:	48 89 7d f8          	mov    %rdi,-0x8(%rbp)
  10:	48 89 75 f0          	mov    %rsi,-0x10(%rbp)
  14:	48 8b 45 f8          	mov    -0x8(%rbp),%rax
  18:	48 8b 50 08          	mov    0x8(%rax),%rdx
  1c:	48 8b 45 f8          	mov    -0x8(%rbp),%rax
  20:	48 8b 40 10          	mov    0x10(%rax),%rax
  24:	48 39 c2             	cmp    %rax,%rdx
  27:	74 31                	je     5a <_ZNSt6vectorIiSaIiEE9push_backERKi+0x5a>
  29:	48 8b 45 f8          	mov    -0x8(%rbp),%rax
  2d:	48 8b 48 08          	mov    0x8(%rax),%rcx
  31:	48 8b 45 f8          	mov    -0x8(%rbp),%rax
  35:	48 8b 55 f0          	mov    -0x10(%rbp),%rdx
  39:	48 89 ce             	mov    %rcx,%rsi
  3c:	48 89 c7             	mov    %rax,%rdi
  3f:	e8 00 00 00 00       	call   44 <_ZNSt6vectorIiSaIiEE9push_backERKi+0x44>
  44:	48 8b 45 f8          	mov    -0x8(%rbp),%rax
  48:	48 8b 40 08          	mov    0x8(%rax),%rax
  4c:	48 8d 50 04          	lea    0x4(%rax),%rdx
  50:	48 8b 45 f8          	mov    -0x8(%rbp),%rax
  54:	48 89 50 08          	mov    %rdx,0x8(%rax)
  58:	eb 22                	jmp    7c <_ZNSt6vectorIiSaIiEE9push_backERKi+0x7c>
  5a:	48 8b 45 f8          	mov    -0x8(%rbp),%rax
  5e:	48 89 c7             	mov    %rax,%rdi
  61:	e8 00 00 00 00       	call   66 <_ZNSt6vectorIiSaIiEE9push_backERKi+0x66>
  66:	48 89 c1             	mov    %rax,%rcx
  69:	48 8b 55 f0          	mov    -0x10(%rbp),%rdx
  6d:	48 8b 45 f8          	mov    -0x8(%rbp),%rax
  71:	48 89 ce             	mov    %rcx,%rsi
  74:	48 89 c7             	mov    %rax,%rdi
  77:	e8 00 00 00 00       	call   7c <_ZNSt6vectorIiSaIiEE9push_backERKi+0x7c>
  7c:	90                   	nop
  7d:	c9                   	leave  
  7e:	c3                   	ret    

Disassembly of section .text._ZNSt6vectorIiSaIiEEixEm:

0000000000000000 <_ZNSt6vectorIiSaIiEEixEm>:
   0:	f3 0f 1e fa          	endbr64 
   4:	55                   	push   %rbp
   5:	48 89 e5             	mov    %rsp,%rbp
   8:	48 89 7d f8          	mov    %rdi,-0x8(%rbp)
   c:	48 89 75 f0          	mov    %rsi,-0x10(%rbp)
  10:	48 8b 45 f8          	mov    -0x8(%rbp),%rax
  14:	48 8b 10             	mov    (%rax),%rdx
  17:	48 8b 45 f0          	mov    -0x10(%rbp),%rax
  1b:	48 c1 e0 02          	shl    $0x2,%rax
  1f:	48 01 d0             	add    %rdx,%rax
  22:	5d                   	pop    %rbp
  23:	c3                   	ret    

Disassembly of section .text._ZNSt6vectorIiSaIiEE5beginEv:

0000000000000000 <_ZNSt6vectorIiSaIiEE5beginEv>:
   0:	f3 0f 1e fa          	endbr64 
   4:	55                   	push   %rbp
   5:	48 89 e5             	mov    %rsp,%rbp
   8:	48 83 ec 20          	sub    $0x20,%rsp
   c:	48 89 7d e8          	mov    %rdi,-0x18(%rbp)
  10:	64 48 8b 04 25 28 00 	mov    %fs:0x28,%rax
  17:	00 00 
  19:	48 89 45 f8          	mov    %rax,-0x8(%rbp)
  1d:	31 c0                	xor    %eax,%eax
  1f:	48 8b 55 e8          	mov    -0x18(%rbp),%rdx
  23:	48 8d 45 f0          	lea    -0x10(%rbp),%rax
  27:	48 89 d6             	mov    %rdx,%rsi
  2a:	48 89 c7             	mov    %rax,%rdi
  2d:	e8 00 00 00 00       	call   32 <_ZNSt6vectorIiSaIiEE5beginEv+0x32>
  32:	48 8b 45 f0          	mov    -0x10(%rbp),%rax
  36:	48 8b 55 f8          	mov    -0x8(%rbp),%rdx
  3a:	64 48 2b 14 25 28 00 	sub    %fs:0x28,%rdx
  41:	00 00 
  43:	74 05                	je     4a <_ZNSt6vectorIiSaIiEE5beginEv+0x4a>
  45:	e8 00 00 00 00       	call   4a <_ZNSt6vectorIiSaIiEE5beginEv+0x4a>
  4a:	c9                   	leave  
  4b:	c3                   	ret    

Disassembly of section .text._ZNK9__gnu_cxx17__normal_iteratorIPiSt6vectorIiSaIiEEEplEl:

0000000000000000 <_ZNK9__gnu_cxx17__normal_iteratorIPiSt6vectorIiSaIiEEEplEl>:
   0:	f3 0f 1e fa          	endbr64 
   4:	55                   	push   %rbp
   5:	48 89 e5             	mov    %rsp,%rbp
   8:	48 83 ec 30          	sub    $0x30,%rsp
   c:	48 89 7d d8          	mov    %rdi,-0x28(%rbp)
  10:	48 89 75 d0          	mov    %rsi,-0x30(%rbp)
  14:	64 48 8b 04 25 28 00 	mov    %fs:0x28,%rax
  1b:	00 00 
  1d:	48 89 45 f8          	mov    %rax,-0x8(%rbp)
  21:	31 c0                	xor    %eax,%eax
  23:	48 8b 45 d8          	mov    -0x28(%rbp),%rax
  27:	48 8b 10             	mov    (%rax),%rdx
  2a:	48 8b 45 d0          	mov    -0x30(%rbp),%rax
  2e:	48 c1 e0 02          	shl    $0x2,%rax
  32:	48 01 d0             	add    %rdx,%rax
  35:	48 89 45 e8          	mov    %rax,-0x18(%rbp)
  39:	48 8d 55 e8          	lea    -0x18(%rbp),%rdx
  3d:	48 8d 45 f0          	lea    -0x10(%rbp),%rax
  41:	48 89 d6             	mov    %rdx,%rsi
  44:	48 89 c7             	mov    %rax,%rdi
  47:	e8 00 00 00 00       	call   4c <_ZNK9__gnu_cxx17__normal_iteratorIPiSt6vectorIiSaIiEEEplEl+0x4c>
  4c:	48 8b 45 f0          	mov    -0x10(%rbp),%rax
  50:	48 8b 55 f8          	mov    -0x8(%rbp),%rdx
  54:	64 48 2b 14 25 28 00 	sub    %fs:0x28,%rdx
  5b:	00 00 
  5d:	74 05                	je     64 <_ZNK9__gnu_cxx17__normal_iteratorIPiSt6vectorIiSaIiEEEplEl+0x64>
  5f:	e8 00 00 00 00       	call   64 <_ZNK9__gnu_cxx17__normal_iteratorIPiSt6vectorIiSaIiEEEplEl+0x64>
  64:	c9                   	leave  
  65:	c3                   	ret    

Disassembly of section .text._ZSt9iter_swapIN9__gnu_cxx17__normal_iteratorIPiSt6vectorIiSaIiEEEES6_EvT_T0_:

0000000000000000 <_ZSt9iter_swapIN9__gnu_cxx17__normal_iteratorIPiSt6vectorIiSaIiEEEES6_EvT_T0_>:
   0:	f3 0f 1e fa          	endbr64 
   4:	55                   	push   %rbp
   5:	48 89 e5             	mov    %rsp,%rbp
   8:	53                   	push   %rbx
   9:	48 83 ec 18          	sub    $0x18,%rsp
   d:	48 89 7d e8          	mov    %rdi,-0x18(%rbp)
  11:	48 89 75 e0          	mov    %rsi,-0x20(%rbp)
  15:	48 8d 45 e0          	lea    -0x20(%rbp),%rax
  19:	48 89 c7             	mov    %rax,%rdi
  1c:	e8 00 00 00 00       	call   21 <_ZSt9iter_swapIN9__gnu_cxx17__normal_iteratorIPiSt6vectorIiSaIiEEEES6_EvT_T0_+0x21>
  21:	48 89 c3             	mov    %rax,%rbx
  24:	48 8d 45 e8          	lea    -0x18(%rbp),%rax
  28:	48 89 c7             	mov    %rax,%rdi
  2b:	e8 00 00 00 00       	call   30 <_ZSt9iter_swapIN9__gnu_cxx17__normal_iteratorIPiSt6vectorIiSaIiEEEES6_EvT_T0_+0x30>
  30:	48 89 de             	mov    %rbx,%rsi
  33:	48 89 c7             	mov    %rax,%rdi
  36:	e8 00 00 00 00       	call   3b <_ZSt9iter_swapIN9__gnu_cxx17__normal_iteratorIPiSt6vectorIiSaIiEEEES6_EvT_T0_+0x3b>
  3b:	90                   	nop
  3c:	48 8b 5d f8          	mov    -0x8(%rbp),%rbx
  40:	c9                   	leave  
  41:	c3                   	ret    

Disassembly of section .text._ZNSt12_Vector_baseI4HeapSaIS0_EE12_Vector_implC2Ev:

0000000000000000 <_ZNSt12_Vector_baseI4HeapSaIS0_EE12_Vector_implC1Ev>:
   0:	f3 0f 1e fa          	endbr64 
   4:	55                   	push   %rbp
   5:	48 89 e5             	mov    %rsp,%rbp
   8:	48 83 ec 10          	sub    $0x10,%rsp
   c:	48 89 7d f8          	mov    %rdi,-0x8(%rbp)
  10:	48 8b 45 f8          	mov    -0x8(%rbp),%rax
  14:	48 89 c7             	mov    %rax,%rdi
  17:	e8 00 00 00 00       	call   1c <_ZNSt12_Vector_baseI4HeapSaIS0_EE12_Vector_implC1Ev+0x1c>
  1c:	48 8b 45 f8          	mov    -0x8(%rbp),%rax
  20:	48 89 c7             	mov    %rax,%rdi
  23:	e8 00 00 00 00       	call   28 <_ZNSt12_Vector_baseI4HeapSaIS0_EE12_Vector_implC1Ev+0x28>
  28:	90                   	nop
  29:	c9                   	leave  
  2a:	c3                   	ret    

Disassembly of section .text._ZNSaI4HeapED2Ev:

0000000000000000 <_ZNSaI4HeapED1Ev>:
   0:	f3 0f 1e fa          	endbr64 
   4:	55                   	push   %rbp
   5:	48 89 e5             	mov    %rsp,%rbp
   8:	48 83 ec 10          	sub    $0x10,%rsp
   c:	48 89 7d f8          	mov    %rdi,-0x8(%rbp)
  10:	48 8b 45 f8          	mov    -0x8(%rbp),%rax
  14:	48 89 c7             	mov    %rax,%rdi
  17:	e8 00 00 00 00       	call   1c <_ZNSaI4HeapED1Ev+0x1c>
  1c:	90                   	nop
  1d:	c9                   	leave  
  1e:	c3                   	ret    

Disassembly of section .text._ZNSt12_Vector_baseI4HeapSaIS0_EED2Ev:

0000000000000000 <_ZNSt12_Vector_baseI4HeapSaIS0_EED1Ev>:
   0:	f3 0f 1e fa          	endbr64 
   4:	55                   	push   %rbp
   5:	48 89 e5             	mov    %rsp,%rbp
   8:	48 83 ec 10          	sub    $0x10,%rsp
   c:	48 89 7d f8          	mov    %rdi,-0x8(%rbp)
  10:	48 8b 45 f8          	mov    -0x8(%rbp),%rax
  14:	48 8b 50 10          	mov    0x10(%rax),%rdx
  18:	48 8b 45 f8          	mov    -0x8(%rbp),%rax
  1c:	48 8b 08             	mov    (%rax),%rcx
  1f:	48 89 d0             	mov    %rdx,%rax
  22:	48 29 c8             	sub    %rcx,%rax
  25:	48 c1 f8 05          	sar    $0x5,%rax
  29:	48 89 c2             	mov    %rax,%rdx
  2c:	48 8b 45 f8          	mov    -0x8(%rbp),%rax
  30:	48 8b 08             	mov    (%rax),%rcx
  33:	48 8b 45 f8          	mov    -0x8(%rbp),%rax
  37:	48 89 ce             	mov    %rcx,%rsi
  3a:	48 89 c7             	mov    %rax,%rdi
  3d:	e8 00 00 00 00       	call   42 <_ZNSt12_Vector_baseI4HeapSaIS0_EED1Ev+0x42>
  42:	48 8b 45 f8          	mov    -0x8(%rbp),%rax
  46:	48 89 c7             	mov    %rax,%rdi
  49:	e8 00 00 00 00       	call   4e <_ZNSt12_Vector_baseI4HeapSaIS0_EED1Ev+0x4e>
  4e:	90                   	nop
  4f:	c9                   	leave  
  50:	c3                   	ret    

Disassembly of section .text._ZNSt6vectorI4HeapSaIS0_EED2Ev:

0000000000000000 <_ZNSt6vectorI4HeapSaIS0_EED1Ev>:
   0:	f3 0f 1e fa          	endbr64 
   4:	55                   	push   %rbp
   5:	48 89 e5             	mov    %rsp,%rbp
   8:	48 83 ec 10          	sub    $0x10,%rsp
   c:	48 89 7d f8          	mov    %rdi,-0x8(%rbp)
  10:	48 8b 45 f8          	mov    -0x8(%rbp),%rax
  14:	48 89 c7             	mov    %rax,%rdi
  17:	e8 00 00 00 00       	call   1c <_ZNSt6vectorI4HeapSaIS0_EED1Ev+0x1c>
  1c:	48 89 c2             	mov    %rax,%rdx
  1f:	48 8b 45 f8          	mov    -0x8(%rbp),%rax
  23:	48 8b 48 08          	mov    0x8(%rax),%rcx
  27:	48 8b 45 f8          	mov    -0x8(%rbp),%rax
  2b:	48 8b 00             	mov    (%rax),%rax
  2e:	48 89 ce             	mov    %rcx,%rsi
  31:	48 89 c7             	mov    %rax,%rdi
  34:	e8 00 00 00 00       	call   39 <_ZNSt6vectorI4HeapSaIS0_EED1Ev+0x39>
  39:	48 8b 45 f8          	mov    -0x8(%rbp),%rax
  3d:	48 89 c7             	mov    %rax,%rdi
  40:	e8 00 00 00 00       	call   45 <_ZNSt6vectorI4HeapSaIS0_EED1Ev+0x45>
  45:	90                   	nop
  46:	c9                   	leave  
  47:	c3                   	ret    

Disassembly of section .text._ZNSt6vectorIS_IiSaIiEESaIS1_EE5beginEv:

0000000000000000 <_ZNSt6vectorIS_IiSaIiEESaIS1_EE5beginEv>:
   0:	f3 0f 1e fa          	endbr64 
   4:	55                   	push   %rbp
   5:	48 89 e5             	mov    %rsp,%rbp
   8:	48 83 ec 20          	sub    $0x20,%rsp
   c:	48 89 7d e8          	mov    %rdi,-0x18(%rbp)
  10:	64 48 8b 04 25 28 00 	mov    %fs:0x28,%rax
  17:	00 00 
  19:	48 89 45 f8          	mov    %rax,-0x8(%rbp)
  1d:	31 c0                	xor    %eax,%eax
  1f:	48 8b 55 e8          	mov    -0x18(%rbp),%rdx
  23:	48 8d 45 f0          	lea    -0x10(%rbp),%rax
  27:	48 89 d6             	mov    %rdx,%rsi
  2a:	48 89 c7             	mov    %rax,%rdi
  2d:	e8 00 00 00 00       	call   32 <_ZNSt6vectorIS_IiSaIiEESaIS1_EE5beginEv+0x32>
  32:	48 8b 45 f0          	mov    -0x10(%rbp),%rax
  36:	48 8b 55 f8          	mov    -0x8(%rbp),%rdx
  3a:	64 48 2b 14 25 28 00 	sub    %fs:0x28,%rdx
  41:	00 00 
  43:	74 05                	je     4a <_ZNSt6vectorIS_IiSaIiEESaIS1_EE5beginEv+0x4a>
  45:	e8 00 00 00 00       	call   4a <_ZNSt6vectorIS_IiSaIiEESaIS1_EE5beginEv+0x4a>
  4a:	c9                   	leave  
  4b:	c3                   	ret    

Disassembly of section .text._ZNSt6vectorIS_IiSaIiEESaIS1_EE3endEv:

0000000000000000 <_ZNSt6vectorIS_IiSaIiEESaIS1_EE3endEv>:
   0:	f3 0f 1e fa          	endbr64 
   4:	55                   	push   %rbp
   5:	48 89 e5             	mov    %rsp,%rbp
   8:	48 83 ec 20          	sub    $0x20,%rsp
   c:	48 89 7d e8          	mov    %rdi,-0x18(%rbp)
  10:	64 48 8b 04 25 28 00 	mov    %fs:0x28,%rax
  17:	00 00 
  19:	48 89 45 f8          	mov    %rax,-0x8(%rbp)
  1d:	31 c0                	xor    %eax,%eax
  1f:	48 8b 45 e8          	mov    -0x18(%rbp),%rax
  23:	48 8d 50 08          	lea    0x8(%rax),%rdx
  27:	48 8d 45 f0          	lea    -0x10(%rbp),%rax
  2b:	48 89 d6             	mov    %rdx,%rsi
  2e:	48 89 c7             	mov    %rax,%rdi
  31:	e8 00 00 00 00       	call   36 <_ZNSt6vectorIS_IiSaIiEESaIS1_EE3endEv+0x36>
  36:	48 8b 45 f0          	mov    -0x10(%rbp),%rax
  3a:	48 8b 55 f8          	mov    -0x8(%rbp),%rdx
  3e:	64 48 2b 14 25 28 00 	sub    %fs:0x28,%rdx
  45:	00 00 
  47:	74 05                	je     4e <_ZNSt6vectorIS_IiSaIiEESaIS1_EE3endEv+0x4e>
  49:	e8 00 00 00 00       	call   4e <_ZNSt6vectorIS_IiSaIiEESaIS1_EE3endEv+0x4e>
  4e:	c9                   	leave  
  4f:	c3                   	ret    

Disassembly of section .text._ZN9__gnu_cxxneIPSt6vectorIiSaIiEES1_IS3_SaIS3_EEEEbRKNS_17__normal_iteratorIT_T0_EESC_:

0000000000000000 <_ZN9__gnu_cxxneIPSt6vectorIiSaIiEES1_IS3_SaIS3_EEEEbRKNS_17__normal_iteratorIT_T0_EESC_>:
   0:	f3 0f 1e fa          	endbr64 
   4:	55                   	push   %rbp
   5:	48 89 e5             	mov    %rsp,%rbp
   8:	53                   	push   %rbx
   9:	48 83 ec 18          	sub    $0x18,%rsp
   d:	48 89 7d e8          	mov    %rdi,-0x18(%rbp)
  11:	48 89 75 e0          	mov    %rsi,-0x20(%rbp)
  15:	48 8b 45 e8          	mov    -0x18(%rbp),%rax
  19:	48 89 c7             	mov    %rax,%rdi
  1c:	e8 00 00 00 00       	call   21 <_ZN9__gnu_cxxneIPSt6vectorIiSaIiEES1_IS3_SaIS3_EEEEbRKNS_17__normal_iteratorIT_T0_EESC_+0x21>
  21:	48 8b 18             	mov    (%rax),%rbx
  24:	48 8b 45 e0          	mov    -0x20(%rbp),%rax
  28:	48 89 c7             	mov    %rax,%rdi
  2b:	e8 00 00 00 00       	call   30 <_ZN9__gnu_cxxneIPSt6vectorIiSaIiEES1_IS3_SaIS3_EEEEbRKNS_17__normal_iteratorIT_T0_EESC_+0x30>
  30:	48 8b 00             	mov    (%rax),%rax
  33:	48 39 c3             	cmp    %rax,%rbx
  36:	0f 95 c0             	setne  %al
  39:	48 8b 5d f8          	mov    -0x8(%rbp),%rbx
  3d:	c9                   	leave  
  3e:	c3                   	ret    

Disassembly of section .text._ZN9__gnu_cxx17__normal_iteratorIPSt6vectorIiSaIiEES1_IS3_SaIS3_EEEppEi:

0000000000000000 <_ZN9__gnu_cxx17__normal_iteratorIPSt6vectorIiSaIiEES1_IS3_SaIS3_EEEppEi>:
   0:	f3 0f 1e fa          	endbr64 
   4:	55                   	push   %rbp
   5:	48 89 e5             	mov    %rsp,%rbp
   8:	48 83 ec 30          	sub    $0x30,%rsp
   c:	48 89 7d d8          	mov    %rdi,-0x28(%rbp)
  10:	89 75 d4             	mov    %esi,-0x2c(%rbp)
  13:	64 48 8b 04 25 28 00 	mov    %fs:0x28,%rax
  1a:	00 00 
  1c:	48 89 45 f8          	mov    %rax,-0x8(%rbp)
  20:	31 c0                	xor    %eax,%eax
  22:	48 8b 45 d8          	mov    -0x28(%rbp),%rax
  26:	48 8b 00             	mov    (%rax),%rax
  29:	48 8d 48 18          	lea    0x18(%rax),%rcx
  2d:	48 8b 55 d8          	mov    -0x28(%rbp),%rdx
  31:	48 89 0a             	mov    %rcx,(%rdx)
  34:	48 89 45 e8          	mov    %rax,-0x18(%rbp)
  38:	48 8d 55 e8          	lea    -0x18(%rbp),%rdx
  3c:	48 8d 45 f0          	lea    -0x10(%rbp),%rax
  40:	48 89 d6             	mov    %rdx,%rsi
  43:	48 89 c7             	mov    %rax,%rdi
  46:	e8 00 00 00 00       	call   4b <_ZN9__gnu_cxx17__normal_iteratorIPSt6vectorIiSaIiEES1_IS3_SaIS3_EEEppEi+0x4b>
  4b:	48 8b 45 f0          	mov    -0x10(%rbp),%rax
  4f:	48 8b 55 f8          	mov    -0x8(%rbp),%rdx
  53:	64 48 2b 14 25 28 00 	sub    %fs:0x28,%rdx
  5a:	00 00 
  5c:	74 05                	je     63 <_ZN9__gnu_cxx17__normal_iteratorIPSt6vectorIiSaIiEES1_IS3_SaIS3_EEEppEi+0x63>
  5e:	e8 00 00 00 00       	call   63 <_ZN9__gnu_cxx17__normal_iteratorIPSt6vectorIiSaIiEES1_IS3_SaIS3_EEEppEi+0x63>
  63:	c9                   	leave  
  64:	c3                   	ret    

Disassembly of section .text._ZNK9__gnu_cxx17__normal_iteratorIPSt6vectorIiSaIiEES1_IS3_SaIS3_EEEdeEv:

0000000000000000 <_ZNK9__gnu_cxx17__normal_iteratorIPSt6vectorIiSaIiEES1_IS3_SaIS3_EEEdeEv>:
   0:	f3 0f 1e fa          	endbr64 
   4:	55                   	push   %rbp
   5:	48 89 e5             	mov    %rsp,%rbp
   8:	48 89 7d f8          	mov    %rdi,-0x8(%rbp)
   c:	48 8b 45 f8          	mov    -0x8(%rbp),%rax
  10:	48 8b 00             	mov    (%rax),%rax
  13:	5d                   	pop    %rbp
  14:	c3                   	ret    

Disassembly of section .text._ZNKSt6vectorI4HeapSaIS0_EE4sizeEv:

0000000000000000 <_ZNKSt6vectorI4HeapSaIS0_EE4sizeEv>:
   0:	f3 0f 1e fa          	endbr64 
   4:	55                   	push   %rbp
   5:	48 89 e5             	mov    %rsp,%rbp
   8:	48 89 7d f8          	mov    %rdi,-0x8(%rbp)
   c:	48 8b 45 f8          	mov    -0x8(%rbp),%rax
  10:	48 8b 50 08          	mov    0x8(%rax),%rdx
  14:	48 8b 45 f8          	mov    -0x8(%rbp),%rax
  18:	48 8b 08             	mov    (%rax),%rcx
  1b:	48 89 d0             	mov    %rdx,%rax
  1e:	48 29 c8             	sub    %rcx,%rax
  21:	48 c1 f8 05          	sar    $0x5,%rax
  25:	5d                   	pop    %rbp
  26:	c3                   	ret    

Disassembly of section .text._ZNSt6vectorI4HeapSaIS0_EE9push_backERKS0_:

0000000000000000 <_ZNSt6vectorI4HeapSaIS0_EE9push_backERKS0_>:
   0:	f3 0f 1e fa          	endbr64 
   4:	55                   	push   %rbp
   5:	48 89 e5             	mov    %rsp,%rbp
   8:	48 83 ec 10          	sub    $0x10,%rsp
   c:	48 89 7d f8          	mov    %rdi,-0x8(%rbp)
  10:	48 89 75 f0          	mov    %rsi,-0x10(%rbp)
  14:	48 8b 45 f8          	mov    -0x8(%rbp),%rax
  18:	48 8b 50 08          	mov    0x8(%rax),%rdx
  1c:	48 8b 45 f8          	mov    -0x8(%rbp),%rax
  20:	48 8b 40 10          	mov    0x10(%rax),%rax
  24:	48 39 c2             	cmp    %rax,%rdx
  27:	74 31                	je     5a <_ZNSt6vectorI4HeapSaIS0_EE9push_backERKS0_+0x5a>
  29:	48 8b 45 f8          	mov    -0x8(%rbp),%rax
  2d:	48 8b 48 08          	mov    0x8(%rax),%rcx
  31:	48 8b 45 f8          	mov    -0x8(%rbp),%rax
  35:	48 8b 55 f0          	mov    -0x10(%rbp),%rdx
  39:	48 89 ce             	mov    %rcx,%rsi
  3c:	48 89 c7             	mov    %rax,%rdi
  3f:	e8 00 00 00 00       	call   44 <_ZNSt6vectorI4HeapSaIS0_EE9push_backERKS0_+0x44>
  44:	48 8b 45 f8          	mov    -0x8(%rbp),%rax
  48:	48 8b 40 08          	mov    0x8(%rax),%rax
  4c:	48 8d 50 20          	lea    0x20(%rax),%rdx
  50:	48 8b 45 f8          	mov    -0x8(%rbp),%rax
  54:	48 89 50 08          	mov    %rdx,0x8(%rax)
  58:	eb 22                	jmp    7c <_ZNSt6vectorI4HeapSaIS0_EE9push_backERKS0_+0x7c>
  5a:	48 8b 45 f8          	mov    -0x8(%rbp),%rax
  5e:	48 89 c7             	mov    %rax,%rdi
  61:	e8 00 00 00 00       	call   66 <_ZNSt6vectorI4HeapSaIS0_EE9push_backERKS0_+0x66>
  66:	48 89 c1             	mov    %rax,%rcx
  69:	48 8b 55 f0          	mov    -0x10(%rbp),%rdx
  6d:	48 8b 45 f8          	mov    -0x8(%rbp),%rax
  71:	48 89 ce             	mov    %rcx,%rsi
  74:	48 89 c7             	mov    %rax,%rdi
  77:	e8 00 00 00 00       	call   7c <_ZNSt6vectorI4HeapSaIS0_EE9push_backERKS0_+0x7c>
  7c:	90                   	nop
  7d:	c9                   	leave  
  7e:	c3                   	ret    

Disassembly of section .text._ZNSt6vectorI4HeapSaIS0_EEixEm:

0000000000000000 <_ZNSt6vectorI4HeapSaIS0_EEixEm>:
   0:	f3 0f 1e fa          	endbr64 
   4:	55                   	push   %rbp
   5:	48 89 e5             	mov    %rsp,%rbp
   8:	48 89 7d f8          	mov    %rdi,-0x8(%rbp)
   c:	48 89 75 f0          	mov    %rsi,-0x10(%rbp)
  10:	48 8b 45 f8          	mov    -0x8(%rbp),%rax
  14:	48 8b 10             	mov    (%rax),%rdx
  17:	48 8b 45 f0          	mov    -0x10(%rbp),%rax
  1b:	48 c1 e0 05          	shl    $0x5,%rax
  1f:	48 01 d0             	add    %rdx,%rax
  22:	5d                   	pop    %rbp
  23:	c3                   	ret    

Disassembly of section .text._ZNSt6vectorI4HeapSaIS0_EE5beginEv:

0000000000000000 <_ZNSt6vectorI4HeapSaIS0_EE5beginEv>:
   0:	f3 0f 1e fa          	endbr64 
   4:	55                   	push   %rbp
   5:	48 89 e5             	mov    %rsp,%rbp
   8:	48 83 ec 20          	sub    $0x20,%rsp
   c:	48 89 7d e8          	mov    %rdi,-0x18(%rbp)
  10:	64 48 8b 04 25 28 00 	mov    %fs:0x28,%rax
  17:	00 00 
  19:	48 89 45 f8          	mov    %rax,-0x8(%rbp)
  1d:	31 c0                	xor    %eax,%eax
  1f:	48 8b 55 e8          	mov    -0x18(%rbp),%rdx
  23:	48 8d 45 f0          	lea    -0x10(%rbp),%rax
  27:	48 89 d6             	mov    %rdx,%rsi
  2a:	48 89 c7             	mov    %rax,%rdi
  2d:	e8 00 00 00 00       	call   32 <_ZNSt6vectorI4HeapSaIS0_EE5beginEv+0x32>
  32:	48 8b 45 f0          	mov    -0x10(%rbp),%rax
  36:	48 8b 55 f8          	mov    -0x8(%rbp),%rdx
  3a:	64 48 2b 14 25 28 00 	sub    %fs:0x28,%rdx
  41:	00 00 
  43:	74 05                	je     4a <_ZNSt6vectorI4HeapSaIS0_EE5beginEv+0x4a>
  45:	e8 00 00 00 00       	call   4a <_ZNSt6vectorI4HeapSaIS0_EE5beginEv+0x4a>
  4a:	c9                   	leave  
  4b:	c3                   	ret    

Disassembly of section .text._ZNSt6vectorI4HeapSaIS0_EE3endEv:

0000000000000000 <_ZNSt6vectorI4HeapSaIS0_EE3endEv>:
   0:	f3 0f 1e fa          	endbr64 
   4:	55                   	push   %rbp
   5:	48 89 e5             	mov    %rsp,%rbp
   8:	48 83 ec 20          	sub    $0x20,%rsp
   c:	48 89 7d e8          	mov    %rdi,-0x18(%rbp)
  10:	64 48 8b 04 25 28 00 	mov    %fs:0x28,%rax
  17:	00 00 
  19:	48 89 45 f8          	mov    %rax,-0x8(%rbp)
  1d:	31 c0                	xor    %eax,%eax
  1f:	48 8b 45 e8          	mov    -0x18(%rbp),%rax
  23:	48 8d 50 08          	lea    0x8(%rax),%rdx
  27:	48 8d 45 f0          	lea    -0x10(%rbp),%rax
  2b:	48 89 d6             	mov    %rdx,%rsi
  2e:	48 89 c7             	mov    %rax,%rdi
  31:	e8 00 00 00 00       	call   36 <_ZNSt6vectorI4HeapSaIS0_EE3endEv+0x36>
  36:	48 8b 45 f0          	mov    -0x10(%rbp),%rax
  3a:	48 8b 55 f8          	mov    -0x8(%rbp),%rdx
  3e:	64 48 2b 14 25 28 00 	sub    %fs:0x28,%rdx
  45:	00 00 
  47:	74 05                	je     4e <_ZNSt6vectorI4HeapSaIS0_EE3endEv+0x4e>
  49:	e8 00 00 00 00       	call   4e <_ZNSt6vectorI4HeapSaIS0_EE3endEv+0x4e>
  4e:	c9                   	leave  
  4f:	c3                   	ret    

Disassembly of section .text._ZN9__gnu_cxxneIP4HeapSt6vectorIS1_SaIS1_EEEEbRKNS_17__normal_iteratorIT_T0_EESB_:

0000000000000000 <_ZN9__gnu_cxxneIP4HeapSt6vectorIS1_SaIS1_EEEEbRKNS_17__normal_iteratorIT_T0_EESB_>:
   0:	f3 0f 1e fa          	endbr64 
   4:	55                   	push   %rbp
   5:	48 89 e5             	mov    %rsp,%rbp
   8:	53                   	push   %rbx
   9:	48 83 ec 18          	sub    $0x18,%rsp
   d:	48 89 7d e8          	mov    %rdi,-0x18(%rbp)
  11:	48 89 75 e0          	mov    %rsi,-0x20(%rbp)
  15:	48 8b 45 e8          	mov    -0x18(%rbp),%rax
  19:	48 89 c7             	mov    %rax,%rdi
  1c:	e8 00 00 00 00       	call   21 <_ZN9__gnu_cxxneIP4HeapSt6vectorIS1_SaIS1_EEEEbRKNS_17__normal_iteratorIT_T0_EESB_+0x21>
  21:	48 8b 18             	mov    (%rax),%rbx
  24:	48 8b 45 e0          	mov    -0x20(%rbp),%rax
  28:	48 89 c7             	mov    %rax,%rdi
  2b:	e8 00 00 00 00       	call   30 <_ZN9__gnu_cxxneIP4HeapSt6vectorIS1_SaIS1_EEEEbRKNS_17__normal_iteratorIT_T0_EESB_+0x30>
  30:	48 8b 00             	mov    (%rax),%rax
  33:	48 39 c3             	cmp    %rax,%rbx
  36:	0f 95 c0             	setne  %al
  39:	48 8b 5d f8          	mov    -0x8(%rbp),%rbx
  3d:	c9                   	leave  
  3e:	c3                   	ret    

Disassembly of section .text._ZN9__gnu_cxx17__normal_iteratorIP4HeapSt6vectorIS1_SaIS1_EEEppEi:

0000000000000000 <_ZN9__gnu_cxx17__normal_iteratorIP4HeapSt6vectorIS1_SaIS1_EEEppEi>:
   0:	f3 0f 1e fa          	endbr64 
   4:	55                   	push   %rbp
   5:	48 89 e5             	mov    %rsp,%rbp
   8:	48 83 ec 30          	sub    $0x30,%rsp
   c:	48 89 7d d8          	mov    %rdi,-0x28(%rbp)
  10:	89 75 d4             	mov    %esi,-0x2c(%rbp)
  13:	64 48 8b 04 25 28 00 	mov    %fs:0x28,%rax
  1a:	00 00 
  1c:	48 89 45 f8          	mov    %rax,-0x8(%rbp)
  20:	31 c0                	xor    %eax,%eax
  22:	48 8b 45 d8          	mov    -0x28(%rbp),%rax
  26:	48 8b 00             	mov    (%rax),%rax
  29:	48 8d 48 20          	lea    0x20(%rax),%rcx
  2d:	48 8b 55 d8          	mov    -0x28(%rbp),%rdx
  31:	48 89 0a             	mov    %rcx,(%rdx)
  34:	48 89 45 e8          	mov    %rax,-0x18(%rbp)
  38:	48 8d 55 e8          	lea    -0x18(%rbp),%rdx
  3c:	48 8d 45 f0          	lea    -0x10(%rbp),%rax
  40:	48 89 d6             	mov    %rdx,%rsi
  43:	48 89 c7             	mov    %rax,%rdi
  46:	e8 00 00 00 00       	call   4b <_ZN9__gnu_cxx17__normal_iteratorIP4HeapSt6vectorIS1_SaIS1_EEEppEi+0x4b>
  4b:	48 8b 45 f0          	mov    -0x10(%rbp),%rax
  4f:	48 8b 55 f8          	mov    -0x8(%rbp),%rdx
  53:	64 48 2b 14 25 28 00 	sub    %fs:0x28,%rdx
  5a:	00 00 
  5c:	74 05                	je     63 <_ZN9__gnu_cxx17__normal_iteratorIP4HeapSt6vectorIS1_SaIS1_EEEppEi+0x63>
  5e:	e8 00 00 00 00       	call   63 <_ZN9__gnu_cxx17__normal_iteratorIP4HeapSt6vectorIS1_SaIS1_EEEppEi+0x63>
  63:	c9                   	leave  
  64:	c3                   	ret    

Disassembly of section .text._ZNK9__gnu_cxx17__normal_iteratorIP4HeapSt6vectorIS1_SaIS1_EEEdeEv:

0000000000000000 <_ZNK9__gnu_cxx17__normal_iteratorIP4HeapSt6vectorIS1_SaIS1_EEEdeEv>:
   0:	f3 0f 1e fa          	endbr64 
   4:	55                   	push   %rbp
   5:	48 89 e5             	mov    %rsp,%rbp
   8:	48 89 7d f8          	mov    %rdi,-0x8(%rbp)
   c:	48 8b 45 f8          	mov    -0x8(%rbp),%rax
  10:	48 8b 00             	mov    (%rax),%rax
  13:	5d                   	pop    %rbp
  14:	c3                   	ret    

Disassembly of section .text._ZNSt6vectorIiSaIiEE9push_backEOi:

0000000000000000 <_ZNSt6vectorIiSaIiEE9push_backEOi>:
   0:	f3 0f 1e fa          	endbr64 
   4:	55                   	push   %rbp
   5:	48 89 e5             	mov    %rsp,%rbp
   8:	48 83 ec 10          	sub    $0x10,%rsp
   c:	48 89 7d f8          	mov    %rdi,-0x8(%rbp)
  10:	48 89 75 f0          	mov    %rsi,-0x10(%rbp)
  14:	48 8b 45 f0          	mov    -0x10(%rbp),%rax
  18:	48 89 c7             	mov    %rax,%rdi
  1b:	e8 00 00 00 00       	call   20 <_ZNSt6vectorIiSaIiEE9push_backEOi+0x20>
  20:	48 89 c2             	mov    %rax,%rdx
  23:	48 8b 45 f8          	mov    -0x8(%rbp),%rax
  27:	48 89 d6             	mov    %rdx,%rsi
  2a:	48 89 c7             	mov    %rax,%rdi
  2d:	e8 00 00 00 00       	call   32 <_ZNSt6vectorIiSaIiEE9push_backEOi+0x32>
  32:	90                   	nop
  33:	c9                   	leave  
  34:	c3                   	ret    

Disassembly of section .text._ZNSt12_Vector_baseISt6vectorIiSaIiEESaIS2_EE12_Vector_implC2Ev:

0000000000000000 <_ZNSt12_Vector_baseISt6vectorIiSaIiEESaIS2_EE12_Vector_implC1Ev>:
   0:	f3 0f 1e fa          	endbr64 
   4:	55                   	push   %rbp
   5:	48 89 e5             	mov    %rsp,%rbp
   8:	48 83 ec 10          	sub    $0x10,%rsp
   c:	48 89 7d f8          	mov    %rdi,-0x8(%rbp)
  10:	48 8b 45 f8          	mov    -0x8(%rbp),%rax
  14:	48 89 c7             	mov    %rax,%rdi
  17:	e8 00 00 00 00       	call   1c <_ZNSt12_Vector_baseISt6vectorIiSaIiEESaIS2_EE12_Vector_implC1Ev+0x1c>
  1c:	48 8b 45 f8          	mov    -0x8(%rbp),%rax
  20:	48 89 c7             	mov    %rax,%rdi
  23:	e8 00 00 00 00       	call   28 <_ZNSt12_Vector_baseISt6vectorIiSaIiEESaIS2_EE12_Vector_implC1Ev+0x28>
  28:	90                   	nop
  29:	c9                   	leave  
  2a:	c3                   	ret    

Disassembly of section .text._ZNSaISt6vectorIiSaIiEEED2Ev:

0000000000000000 <_ZNSaISt6vectorIiSaIiEEED1Ev>:
   0:	f3 0f 1e fa          	endbr64 
   4:	55                   	push   %rbp
   5:	48 89 e5             	mov    %rsp,%rbp
   8:	48 83 ec 10          	sub    $0x10,%rsp
   c:	48 89 7d f8          	mov    %rdi,-0x8(%rbp)
  10:	48 8b 45 f8          	mov    -0x8(%rbp),%rax
  14:	48 89 c7             	mov    %rax,%rdi
  17:	e8 00 00 00 00       	call   1c <_ZNSaISt6vectorIiSaIiEEED1Ev+0x1c>
  1c:	90                   	nop
  1d:	c9                   	leave  
  1e:	c3                   	ret    

Disassembly of section .text._ZNSt12_Vector_baseISt6vectorIiSaIiEESaIS2_EED2Ev:

0000000000000000 <_ZNSt12_Vector_baseISt6vectorIiSaIiEESaIS2_EED1Ev>:
   0:	f3 0f 1e fa          	endbr64 
   4:	55                   	push   %rbp
   5:	48 89 e5             	mov    %rsp,%rbp
   8:	48 83 ec 10          	sub    $0x10,%rsp
   c:	48 89 7d f8          	mov    %rdi,-0x8(%rbp)
  10:	48 8b 45 f8          	mov    -0x8(%rbp),%rax
  14:	48 8b 50 10          	mov    0x10(%rax),%rdx
  18:	48 8b 45 f8          	mov    -0x8(%rbp),%rax
  1c:	48 8b 08             	mov    (%rax),%rcx
  1f:	48 89 d0             	mov    %rdx,%rax
  22:	48 29 c8             	sub    %rcx,%rax
  25:	48 c1 f8 03          	sar    $0x3,%rax
  29:	48 89 c2             	mov    %rax,%rdx
  2c:	48 b8 ab aa aa aa aa 	movabs $0xaaaaaaaaaaaaaaab,%rax
  33:	aa aa aa 
  36:	48 0f af c2          	imul   %rdx,%rax
  3a:	48 89 c2             	mov    %rax,%rdx
  3d:	48 8b 45 f8          	mov    -0x8(%rbp),%rax
  41:	48 8b 08             	mov    (%rax),%rcx
  44:	48 8b 45 f8          	mov    -0x8(%rbp),%rax
  48:	48 89 ce             	mov    %rcx,%rsi
  4b:	48 89 c7             	mov    %rax,%rdi
  4e:	e8 00 00 00 00       	call   53 <_ZNSt12_Vector_baseISt6vectorIiSaIiEESaIS2_EED1Ev+0x53>
  53:	48 8b 45 f8          	mov    -0x8(%rbp),%rax
  57:	48 89 c7             	mov    %rax,%rdi
  5a:	e8 00 00 00 00       	call   5f <_ZNSt12_Vector_baseISt6vectorIiSaIiEESaIS2_EED1Ev+0x5f>
  5f:	90                   	nop
  60:	c9                   	leave  
  61:	c3                   	ret    

Disassembly of section .text._ZNSt6vectorIS_IiSaIiEESaIS1_EED2Ev:

0000000000000000 <_ZNSt6vectorIS_IiSaIiEESaIS1_EED1Ev>:
   0:	f3 0f 1e fa          	endbr64 
   4:	55                   	push   %rbp
   5:	48 89 e5             	mov    %rsp,%rbp
   8:	48 83 ec 10          	sub    $0x10,%rsp
   c:	48 89 7d f8          	mov    %rdi,-0x8(%rbp)
  10:	48 8b 45 f8          	mov    -0x8(%rbp),%rax
  14:	48 89 c7             	mov    %rax,%rdi
  17:	e8 00 00 00 00       	call   1c <_ZNSt6vectorIS_IiSaIiEESaIS1_EED1Ev+0x1c>
  1c:	48 89 c2             	mov    %rax,%rdx
  1f:	48 8b 45 f8          	mov    -0x8(%rbp),%rax
  23:	48 8b 48 08          	mov    0x8(%rax),%rcx
  27:	48 8b 45 f8          	mov    -0x8(%rbp),%rax
  2b:	48 8b 00             	mov    (%rax),%rax
  2e:	48 89 ce             	mov    %rcx,%rsi
  31:	48 89 c7             	mov    %rax,%rdi
  34:	e8 00 00 00 00       	call   39 <_ZNSt6vectorIS_IiSaIiEESaIS1_EED1Ev+0x39>
  39:	48 8b 45 f8          	mov    -0x8(%rbp),%rax
  3d:	48 89 c7             	mov    %rax,%rdi
  40:	e8 00 00 00 00       	call   45 <_ZNSt6vectorIS_IiSaIiEESaIS1_EED1Ev+0x45>
  45:	90                   	nop
  46:	c9                   	leave  
  47:	c3                   	ret    

Disassembly of section .text._ZNSt6vectorIiSaIiEE3endEv:

0000000000000000 <_ZNSt6vectorIiSaIiEE3endEv>:
   0:	f3 0f 1e fa          	endbr64 
   4:	55                   	push   %rbp
   5:	48 89 e5             	mov    %rsp,%rbp
   8:	48 83 ec 20          	sub    $0x20,%rsp
   c:	48 89 7d e8          	mov    %rdi,-0x18(%rbp)
  10:	64 48 8b 04 25 28 00 	mov    %fs:0x28,%rax
  17:	00 00 
  19:	48 89 45 f8          	mov    %rax,-0x8(%rbp)
  1d:	31 c0                	xor    %eax,%eax
  1f:	48 8b 45 e8          	mov    -0x18(%rbp),%rax
  23:	48 8d 50 08          	lea    0x8(%rax),%rdx
  27:	48 8d 45 f0          	lea    -0x10(%rbp),%rax
  2b:	48 89 d6             	mov    %rdx,%rsi
  2e:	48 89 c7             	mov    %rax,%rdi
  31:	e8 00 00 00 00       	call   36 <_ZNSt6vectorIiSaIiEE3endEv+0x36>
  36:	48 8b 45 f0          	mov    -0x10(%rbp),%rax
  3a:	48 8b 55 f8          	mov    -0x8(%rbp),%rdx
  3e:	64 48 2b 14 25 28 00 	sub    %fs:0x28,%rdx
  45:	00 00 
  47:	74 05                	je     4e <_ZNSt6vectorIiSaIiEE3endEv+0x4e>
  49:	e8 00 00 00 00       	call   4e <_ZNSt6vectorIiSaIiEE3endEv+0x4e>
  4e:	c9                   	leave  
  4f:	c3                   	ret    

Disassembly of section .text._ZN9__gnu_cxxneIPiSt6vectorIiSaIiEEEEbRKNS_17__normal_iteratorIT_T0_EESA_:

0000000000000000 <_ZN9__gnu_cxxneIPiSt6vectorIiSaIiEEEEbRKNS_17__normal_iteratorIT_T0_EESA_>:
   0:	f3 0f 1e fa          	endbr64 
   4:	55                   	push   %rbp
   5:	48 89 e5             	mov    %rsp,%rbp
   8:	53                   	push   %rbx
   9:	48 83 ec 18          	sub    $0x18,%rsp
   d:	48 89 7d e8          	mov    %rdi,-0x18(%rbp)
  11:	48 89 75 e0          	mov    %rsi,-0x20(%rbp)
  15:	48 8b 45 e8          	mov    -0x18(%rbp),%rax
  19:	48 89 c7             	mov    %rax,%rdi
  1c:	e8 00 00 00 00       	call   21 <_ZN9__gnu_cxxneIPiSt6vectorIiSaIiEEEEbRKNS_17__normal_iteratorIT_T0_EESA_+0x21>
  21:	48 8b 18             	mov    (%rax),%rbx
  24:	48 8b 45 e0          	mov    -0x20(%rbp),%rax
  28:	48 89 c7             	mov    %rax,%rdi
  2b:	e8 00 00 00 00       	call   30 <_ZN9__gnu_cxxneIPiSt6vectorIiSaIiEEEEbRKNS_17__normal_iteratorIT_T0_EESA_+0x30>
  30:	48 8b 00             	mov    (%rax),%rax
  33:	48 39 c3             	cmp    %rax,%rbx
  36:	0f 95 c0             	setne  %al
  39:	48 8b 5d f8          	mov    -0x8(%rbp),%rbx
  3d:	c9                   	leave  
  3e:	c3                   	ret    

Disassembly of section .text._ZNK9__gnu_cxx17__normal_iteratorIPiSt6vectorIiSaIiEEEdeEv:

0000000000000000 <_ZNK9__gnu_cxx17__normal_iteratorIPiSt6vectorIiSaIiEEEdeEv>:
   0:	f3 0f 1e fa          	endbr64 
   4:	55                   	push   %rbp
   5:	48 89 e5             	mov    %rsp,%rbp
   8:	48 89 7d f8          	mov    %rdi,-0x8(%rbp)
   c:	48 8b 45 f8          	mov    -0x8(%rbp),%rax
  10:	48 8b 00             	mov    (%rax),%rax
  13:	5d                   	pop    %rbp
  14:	c3                   	ret    

Disassembly of section .text._ZSt7advanceIN9__gnu_cxx17__normal_iteratorIPiSt6vectorIiSaIiEEEEiEvRT_T0_:

0000000000000000 <_ZSt7advanceIN9__gnu_cxx17__normal_iteratorIPiSt6vectorIiSaIiEEEEiEvRT_T0_>:
   0:	f3 0f 1e fa          	endbr64 
   4:	55                   	push   %rbp
   5:	48 89 e5             	mov    %rsp,%rbp
   8:	48 83 ec 20          	sub    $0x20,%rsp
   c:	48 89 7d e8          	mov    %rdi,-0x18(%rbp)
  10:	89 75 e4             	mov    %esi,-0x1c(%rbp)
  13:	8b 45 e4             	mov    -0x1c(%rbp),%eax
  16:	48 98                	cltq   
  18:	48 89 45 f8          	mov    %rax,-0x8(%rbp)
  1c:	48 8b 45 e8          	mov    -0x18(%rbp),%rax
  20:	48 89 c7             	mov    %rax,%rdi
  23:	e8 00 00 00 00       	call   28 <_ZSt7advanceIN9__gnu_cxx17__normal_iteratorIPiSt6vectorIiSaIiEEEEiEvRT_T0_+0x28>
  28:	48 8b 55 f8          	mov    -0x8(%rbp),%rdx
  2c:	48 8b 45 e8          	mov    -0x18(%rbp),%rax
  30:	48 89 d6             	mov    %rdx,%rsi
  33:	48 89 c7             	mov    %rax,%rdi
  36:	e8 00 00 00 00       	call   3b <_ZSt7advanceIN9__gnu_cxx17__normal_iteratorIPiSt6vectorIiSaIiEEEEiEvRT_T0_+0x3b>
  3b:	90                   	nop
  3c:	c9                   	leave  
  3d:	c3                   	ret    

Disassembly of section .text._ZNKSt6vectorIS_IiSaIiEESaIS1_EE4sizeEv:

0000000000000000 <_ZNKSt6vectorIS_IiSaIiEESaIS1_EE4sizeEv>:
   0:	f3 0f 1e fa          	endbr64 
   4:	55                   	push   %rbp
   5:	48 89 e5             	mov    %rsp,%rbp
   8:	48 89 7d f8          	mov    %rdi,-0x8(%rbp)
   c:	48 8b 45 f8          	mov    -0x8(%rbp),%rax
  10:	48 8b 50 08          	mov    0x8(%rax),%rdx
  14:	48 8b 45 f8          	mov    -0x8(%rbp),%rax
  18:	48 8b 08             	mov    (%rax),%rcx
  1b:	48 89 d0             	mov    %rdx,%rax
  1e:	48 29 c8             	sub    %rcx,%rax
  21:	48 c1 f8 03          	sar    $0x3,%rax
  25:	48 89 c2             	mov    %rax,%rdx
  28:	48 b8 ab aa aa aa aa 	movabs $0xaaaaaaaaaaaaaaab,%rax
  2f:	aa aa aa 
  32:	48 0f af c2          	imul   %rdx,%rax
  36:	5d                   	pop    %rbp
  37:	c3                   	ret    

Disassembly of section .text._ZNSt6vectorIS_IiSaIiEESaIS1_EE4backEv:

0000000000000000 <_ZNSt6vectorIS_IiSaIiEESaIS1_EE4backEv>:
   0:	f3 0f 1e fa          	endbr64 
   4:	55                   	push   %rbp
   5:	48 89 e5             	mov    %rsp,%rbp
   8:	48 83 ec 30          	sub    $0x30,%rsp
   c:	48 89 7d d8          	mov    %rdi,-0x28(%rbp)
  10:	64 48 8b 04 25 28 00 	mov    %fs:0x28,%rax
  17:	00 00 
  19:	48 89 45 f8          	mov    %rax,-0x8(%rbp)
  1d:	31 c0                	xor    %eax,%eax
  1f:	48 8b 45 d8          	mov    -0x28(%rbp),%rax
  23:	48 89 c7             	mov    %rax,%rdi
  26:	e8 00 00 00 00       	call   2b <_ZNSt6vectorIS_IiSaIiEESaIS1_EE4backEv+0x2b>
  2b:	48 89 45 e8          	mov    %rax,-0x18(%rbp)
  2f:	48 8d 45 e8          	lea    -0x18(%rbp),%rax
  33:	be 01 00 00 00       	mov    $0x1,%esi
  38:	48 89 c7             	mov    %rax,%rdi
  3b:	e8 00 00 00 00       	call   40 <_ZNSt6vectorIS_IiSaIiEESaIS1_EE4backEv+0x40>
  40:	48 89 45 f0          	mov    %rax,-0x10(%rbp)
  44:	48 8d 45 f0          	lea    -0x10(%rbp),%rax
  48:	48 89 c7             	mov    %rax,%rdi
  4b:	e8 00 00 00 00       	call   50 <_ZNSt6vectorIS_IiSaIiEESaIS1_EE4backEv+0x50>
  50:	48 8b 55 f8          	mov    -0x8(%rbp),%rdx
  54:	64 48 2b 14 25 28 00 	sub    %fs:0x28,%rdx
  5b:	00 00 
  5d:	74 05                	je     64 <_ZNSt6vectorIS_IiSaIiEESaIS1_EE4backEv+0x64>
  5f:	e8 00 00 00 00       	call   64 <_ZNSt6vectorIS_IiSaIiEESaIS1_EE4backEv+0x64>
  64:	c9                   	leave  
  65:	c3                   	ret    

Disassembly of section .text._ZNK9__gnu_cxx17__normal_iteratorIPiSt6vectorIiSaIiEEEmiEl:

0000000000000000 <_ZNK9__gnu_cxx17__normal_iteratorIPiSt6vectorIiSaIiEEEmiEl>:
   0:	f3 0f 1e fa          	endbr64 
   4:	55                   	push   %rbp
   5:	48 89 e5             	mov    %rsp,%rbp
   8:	48 83 ec 30          	sub    $0x30,%rsp
   c:	48 89 7d d8          	mov    %rdi,-0x28(%rbp)
  10:	48 89 75 d0          	mov    %rsi,-0x30(%rbp)
  14:	64 48 8b 04 25 28 00 	mov    %fs:0x28,%rax
  1b:	00 00 
  1d:	48 89 45 f8          	mov    %rax,-0x8(%rbp)
  21:	31 c0                	xor    %eax,%eax
  23:	48 8b 45 d8          	mov    -0x28(%rbp),%rax
  27:	48 8b 10             	mov    (%rax),%rdx
  2a:	48 8b 45 d0          	mov    -0x30(%rbp),%rax
  2e:	48 c1 e0 02          	shl    $0x2,%rax
  32:	48 f7 d8             	neg    %rax
  35:	48 01 d0             	add    %rdx,%rax
  38:	48 89 45 e8          	mov    %rax,-0x18(%rbp)
  3c:	48 8d 55 e8          	lea    -0x18(%rbp),%rdx
  40:	48 8d 45 f0          	lea    -0x10(%rbp),%rax
  44:	48 89 d6             	mov    %rdx,%rsi
  47:	48 89 c7             	mov    %rax,%rdi
  4a:	e8 00 00 00 00       	call   4f <_ZNK9__gnu_cxx17__normal_iteratorIPiSt6vectorIiSaIiEEEmiEl+0x4f>
  4f:	48 8b 45 f0          	mov    -0x10(%rbp),%rax
  53:	48 8b 55 f8          	mov    -0x8(%rbp),%rdx
  57:	64 48 2b 14 25 28 00 	sub    %fs:0x28,%rdx
  5e:	00 00 
  60:	74 05                	je     67 <_ZNK9__gnu_cxx17__normal_iteratorIPiSt6vectorIiSaIiEEEmiEl+0x67>
  62:	e8 00 00 00 00       	call   67 <_ZNK9__gnu_cxx17__normal_iteratorIPiSt6vectorIiSaIiEEEmiEl+0x67>
  67:	c9                   	leave  
  68:	c3                   	ret    

Disassembly of section .text._ZN9__gnu_cxxmiIPiSt6vectorIiSaIiEEEENS_17__normal_iteratorIT_T0_E15difference_typeERKS8_SB_:

0000000000000000 <_ZN9__gnu_cxxmiIPiSt6vectorIiSaIiEEEENS_17__normal_iteratorIT_T0_E15difference_typeERKS8_SB_>:
   0:	f3 0f 1e fa          	endbr64 
   4:	55                   	push   %rbp
   5:	48 89 e5             	mov    %rsp,%rbp
   8:	53                   	push   %rbx
   9:	48 83 ec 18          	sub    $0x18,%rsp
   d:	48 89 7d e8          	mov    %rdi,-0x18(%rbp)
  11:	48 89 75 e0          	mov    %rsi,-0x20(%rbp)
  15:	48 8b 45 e8          	mov    -0x18(%rbp),%rax
  19:	48 89 c7             	mov    %rax,%rdi
  1c:	e8 00 00 00 00       	call   21 <_ZN9__gnu_cxxmiIPiSt6vectorIiSaIiEEEENS_17__normal_iteratorIT_T0_E15difference_typeERKS8_SB_+0x21>
  21:	48 8b 18             	mov    (%rax),%rbx
  24:	48 8b 45 e0          	mov    -0x20(%rbp),%rax
  28:	48 89 c7             	mov    %rax,%rdi
  2b:	e8 00 00 00 00       	call   30 <_ZN9__gnu_cxxmiIPiSt6vectorIiSaIiEEEENS_17__normal_iteratorIT_T0_E15difference_typeERKS8_SB_+0x30>
  30:	48 8b 10             	mov    (%rax),%rdx
  33:	48 89 d8             	mov    %rbx,%rax
  36:	48 29 d0             	sub    %rdx,%rax
  39:	48 c1 f8 02          	sar    $0x2,%rax
  3d:	48 8b 5d f8          	mov    -0x8(%rbp),%rbx
  41:	c9                   	leave  
  42:	c3                   	ret    

Disassembly of section .text._ZNSaIiEC2Ev:

0000000000000000 <_ZNSaIiEC1Ev>:
   0:	f3 0f 1e fa          	endbr64 
   4:	55                   	push   %rbp
   5:	48 89 e5             	mov    %rsp,%rbp
   8:	48 83 ec 10          	sub    $0x10,%rsp
   c:	48 89 7d f8          	mov    %rdi,-0x8(%rbp)
  10:	48 8b 45 f8          	mov    -0x8(%rbp),%rax
  14:	48 89 c7             	mov    %rax,%rdi
  17:	e8 00 00 00 00       	call   1c <_ZNSaIiEC1Ev+0x1c>
  1c:	90                   	nop
  1d:	c9                   	leave  
  1e:	c3                   	ret    

Disassembly of section .text._ZNSt6vectorIiSaIiEEC2ESt16initializer_listIiERKS0_:

0000000000000000 <_ZNSt6vectorIiSaIiEEC1ESt16initializer_listIiERKS0_>:
   0:	f3 0f 1e fa          	endbr64 
   4:	55                   	push   %rbp
   5:	48 89 e5             	mov    %rsp,%rbp
   8:	53                   	push   %rbx
   9:	48 83 ec 38          	sub    $0x38,%rsp
   d:	48 89 7d d8          	mov    %rdi,-0x28(%rbp)
  11:	48 89 f0             	mov    %rsi,%rax
  14:	48 89 d6             	mov    %rdx,%rsi
  17:	48 89 f2             	mov    %rsi,%rdx
  1a:	48 89 45 c0          	mov    %rax,-0x40(%rbp)
  1e:	48 89 55 c8          	mov    %rdx,-0x38(%rbp)
  22:	48 89 4d d0          	mov    %rcx,-0x30(%rbp)
  26:	64 48 8b 04 25 28 00 	mov    %fs:0x28,%rax
  2d:	00 00 
  2f:	48 89 45 e8          	mov    %rax,-0x18(%rbp)
  33:	31 c0                	xor    %eax,%eax
  35:	48 8b 45 d8          	mov    -0x28(%rbp),%rax
  39:	48 8b 55 d0          	mov    -0x30(%rbp),%rdx
  3d:	48 89 d6             	mov    %rdx,%rsi
  40:	48 89 c7             	mov    %rax,%rdi
  43:	e8 00 00 00 00       	call   48 <_ZNSt6vectorIiSaIiEEC1ESt16initializer_listIiERKS0_+0x48>
  48:	48 8d 45 c0          	lea    -0x40(%rbp),%rax
  4c:	48 89 c7             	mov    %rax,%rdi
  4f:	e8 00 00 00 00       	call   54 <_ZNSt6vectorIiSaIiEEC1ESt16initializer_listIiERKS0_+0x54>
  54:	48 89 c3             	mov    %rax,%rbx
  57:	48 8d 45 c0          	lea    -0x40(%rbp),%rax
  5b:	48 89 c7             	mov    %rax,%rdi
  5e:	e8 00 00 00 00       	call   63 <_ZNSt6vectorIiSaIiEEC1ESt16initializer_listIiERKS0_+0x63>
  63:	48 89 c1             	mov    %rax,%rcx
  66:	48 8b 45 d8          	mov    -0x28(%rbp),%rax
  6a:	48 89 da             	mov    %rbx,%rdx
  6d:	48 89 ce             	mov    %rcx,%rsi
  70:	48 89 c7             	mov    %rax,%rdi
  73:	e8 00 00 00 00       	call   78 <_ZNSt6vectorIiSaIiEEC1ESt16initializer_listIiERKS0_+0x78>
  78:	eb 1e                	jmp    98 <_ZNSt6vectorIiSaIiEEC1ESt16initializer_listIiERKS0_+0x98>
  7a:	f3 0f 1e fa          	endbr64 
  7e:	48 89 c3             	mov    %rax,%rbx
  81:	48 8b 45 d8          	mov    -0x28(%rbp),%rax
  85:	48 89 c7             	mov    %rax,%rdi
  88:	e8 00 00 00 00       	call   8d <_ZNSt6vectorIiSaIiEEC1ESt16initializer_listIiERKS0_+0x8d>
  8d:	48 89 d8             	mov    %rbx,%rax
  90:	48 89 c7             	mov    %rax,%rdi
  93:	e8 00 00 00 00       	call   98 <_ZNSt6vectorIiSaIiEEC1ESt16initializer_listIiERKS0_+0x98>
  98:	48 8b 45 e8          	mov    -0x18(%rbp),%rax
  9c:	64 48 2b 04 25 28 00 	sub    %fs:0x28,%rax
  a3:	00 00 
  a5:	74 05                	je     ac <_ZNSt6vectorIiSaIiEEC1ESt16initializer_listIiERKS0_+0xac>
  a7:	e8 00 00 00 00       	call   ac <_ZNSt6vectorIiSaIiEEC1ESt16initializer_listIiERKS0_+0xac>
  ac:	48 8b 5d f8          	mov    -0x8(%rbp),%rbx
  b0:	c9                   	leave  
  b1:	c3                   	ret    

Disassembly of section .text._ZNSt6vectorIS_IiSaIiEESaIS1_EE9push_backEOS1_:

0000000000000000 <_ZNSt6vectorIS_IiSaIiEESaIS1_EE9push_backEOS1_>:
   0:	f3 0f 1e fa          	endbr64 
   4:	55                   	push   %rbp
   5:	48 89 e5             	mov    %rsp,%rbp
   8:	48 83 ec 10          	sub    $0x10,%rsp
   c:	48 89 7d f8          	mov    %rdi,-0x8(%rbp)
  10:	48 89 75 f0          	mov    %rsi,-0x10(%rbp)
  14:	48 8b 45 f0          	mov    -0x10(%rbp),%rax
  18:	48 89 c7             	mov    %rax,%rdi
  1b:	e8 00 00 00 00       	call   20 <_ZNSt6vectorIS_IiSaIiEESaIS1_EE9push_backEOS1_+0x20>
  20:	48 89 c2             	mov    %rax,%rdx
  23:	48 8b 45 f8          	mov    -0x8(%rbp),%rax
  27:	48 89 d6             	mov    %rdx,%rsi
  2a:	48 89 c7             	mov    %rax,%rdi
  2d:	e8 00 00 00 00       	call   32 <_ZNSt6vectorIS_IiSaIiEESaIS1_EE9push_backEOS1_+0x32>
  32:	90                   	nop
  33:	c9                   	leave  
  34:	c3                   	ret    

Disassembly of section .text._ZNSaISt6vectorIiSaIiEEEC2Ev:

0000000000000000 <_ZNSaISt6vectorIiSaIiEEEC1Ev>:
   0:	f3 0f 1e fa          	endbr64 
   4:	55                   	push   %rbp
   5:	48 89 e5             	mov    %rsp,%rbp
   8:	48 83 ec 10          	sub    $0x10,%rsp
   c:	48 89 7d f8          	mov    %rdi,-0x8(%rbp)
  10:	48 8b 45 f8          	mov    -0x8(%rbp),%rax
  14:	48 89 c7             	mov    %rax,%rdi
  17:	e8 00 00 00 00       	call   1c <_ZNSaISt6vectorIiSaIiEEEC1Ev+0x1c>
  1c:	90                   	nop
  1d:	c9                   	leave  
  1e:	c3                   	ret    

Disassembly of section .text._ZNSt6vectorIS_IiSaIiEESaIS1_EEC2ESt16initializer_listIS1_ERKS2_:

0000000000000000 <_ZNSt6vectorIS_IiSaIiEESaIS1_EEC1ESt16initializer_listIS1_ERKS2_>:
   0:	f3 0f 1e fa          	endbr64 
   4:	55                   	push   %rbp
   5:	48 89 e5             	mov    %rsp,%rbp
   8:	53                   	push   %rbx
   9:	48 83 ec 38          	sub    $0x38,%rsp
   d:	48 89 7d d8          	mov    %rdi,-0x28(%rbp)
  11:	48 89 f0             	mov    %rsi,%rax
  14:	48 89 d6             	mov    %rdx,%rsi
  17:	48 89 f2             	mov    %rsi,%rdx
  1a:	48 89 45 c0          	mov    %rax,-0x40(%rbp)
  1e:	48 89 55 c8          	mov    %rdx,-0x38(%rbp)
  22:	48 89 4d d0          	mov    %rcx,-0x30(%rbp)
  26:	64 48 8b 04 25 28 00 	mov    %fs:0x28,%rax
  2d:	00 00 
  2f:	48 89 45 e8          	mov    %rax,-0x18(%rbp)
  33:	31 c0                	xor    %eax,%eax
  35:	48 8b 45 d8          	mov    -0x28(%rbp),%rax
  39:	48 8b 55 d0          	mov    -0x30(%rbp),%rdx
  3d:	48 89 d6             	mov    %rdx,%rsi
  40:	48 89 c7             	mov    %rax,%rdi
  43:	e8 00 00 00 00       	call   48 <_ZNSt6vectorIS_IiSaIiEESaIS1_EEC1ESt16initializer_listIS1_ERKS2_+0x48>
  48:	48 8d 45 c0          	lea    -0x40(%rbp),%rax
  4c:	48 89 c7             	mov    %rax,%rdi
  4f:	e8 00 00 00 00       	call   54 <_ZNSt6vectorIS_IiSaIiEESaIS1_EEC1ESt16initializer_listIS1_ERKS2_+0x54>
  54:	48 89 c3             	mov    %rax,%rbx
  57:	48 8d 45 c0          	lea    -0x40(%rbp),%rax
  5b:	48 89 c7             	mov    %rax,%rdi
  5e:	e8 00 00 00 00       	call   63 <_ZNSt6vectorIS_IiSaIiEESaIS1_EEC1ESt16initializer_listIS1_ERKS2_+0x63>
  63:	48 89 c1             	mov    %rax,%rcx
  66:	48 8b 45 d8          	mov    -0x28(%rbp),%rax
  6a:	48 89 da             	mov    %rbx,%rdx
  6d:	48 89 ce             	mov    %rcx,%rsi
  70:	48 89 c7             	mov    %rax,%rdi
  73:	e8 00 00 00 00       	call   78 <_ZNSt6vectorIS_IiSaIiEESaIS1_EEC1ESt16initializer_listIS1_ERKS2_+0x78>
  78:	eb 1e                	jmp    98 <_ZNSt6vectorIS_IiSaIiEESaIS1_EEC1ESt16initializer_listIS1_ERKS2_+0x98>
  7a:	f3 0f 1e fa          	endbr64 
  7e:	48 89 c3             	mov    %rax,%rbx
  81:	48 8b 45 d8          	mov    -0x28(%rbp),%rax
  85:	48 89 c7             	mov    %rax,%rdi
  88:	e8 00 00 00 00       	call   8d <_ZNSt6vectorIS_IiSaIiEESaIS1_EEC1ESt16initializer_listIS1_ERKS2_+0x8d>
  8d:	48 89 d8             	mov    %rbx,%rax
  90:	48 89 c7             	mov    %rax,%rdi
  93:	e8 00 00 00 00       	call   98 <_ZNSt6vectorIS_IiSaIiEESaIS1_EEC1ESt16initializer_listIS1_ERKS2_+0x98>
  98:	48 8b 45 e8          	mov    -0x18(%rbp),%rax
  9c:	64 48 2b 04 25 28 00 	sub    %fs:0x28,%rax
  a3:	00 00 
  a5:	74 05                	je     ac <_ZNSt6vectorIS_IiSaIiEESaIS1_EEC1ESt16initializer_listIS1_ERKS2_+0xac>
  a7:	e8 00 00 00 00       	call   ac <_ZNSt6vectorIS_IiSaIiEESaIS1_EEC1ESt16initializer_listIS1_ERKS2_+0xac>
  ac:	48 8b 5d f8          	mov    -0x8(%rbp),%rbx
  b0:	c9                   	leave  
  b1:	c3                   	ret    

Disassembly of section .text._ZNSt12_Vector_baseIiSaIiEE17_Vector_impl_dataC2Ev:

0000000000000000 <_ZNSt12_Vector_baseIiSaIiEE17_Vector_impl_dataC1Ev>:
   0:	f3 0f 1e fa          	endbr64 
   4:	55                   	push   %rbp
   5:	48 89 e5             	mov    %rsp,%rbp
   8:	48 89 7d f8          	mov    %rdi,-0x8(%rbp)
   c:	48 8b 45 f8          	mov    -0x8(%rbp),%rax
  10:	48 c7 00 00 00 00 00 	movq   $0x0,(%rax)
  17:	48 8b 45 f8          	mov    -0x8(%rbp),%rax
  1b:	48 c7 40 08 00 00 00 	movq   $0x0,0x8(%rax)
  22:	00 
  23:	48 8b 45 f8          	mov    -0x8(%rbp),%rax
  27:	48 c7 40 10 00 00 00 	movq   $0x0,0x10(%rax)
  2e:	00 
  2f:	90                   	nop
  30:	5d                   	pop    %rbp
  31:	c3                   	ret    

Disassembly of section .text._ZN9__gnu_cxx13new_allocatorIiED2Ev:

0000000000000000 <_ZN9__gnu_cxx13new_allocatorIiED1Ev>:
   0:	f3 0f 1e fa          	endbr64 
   4:	55                   	push   %rbp
   5:	48 89 e5             	mov    %rsp,%rbp
   8:	48 89 7d f8          	mov    %rdi,-0x8(%rbp)
   c:	90                   	nop
   d:	5d                   	pop    %rbp
   e:	c3                   	ret    

Disassembly of section .text._ZNSt12_Vector_baseIiSaIiEE13_M_deallocateEPim:

0000000000000000 <_ZNSt12_Vector_baseIiSaIiEE13_M_deallocateEPim>:
   0:	f3 0f 1e fa          	endbr64 
   4:	55                   	push   %rbp
   5:	48 89 e5             	mov    %rsp,%rbp
   8:	48 83 ec 20          	sub    $0x20,%rsp
   c:	48 89 7d f8          	mov    %rdi,-0x8(%rbp)
  10:	48 89 75 f0          	mov    %rsi,-0x10(%rbp)
  14:	48 89 55 e8          	mov    %rdx,-0x18(%rbp)
  18:	48 83 7d f0 00       	cmpq   $0x0,-0x10(%rbp)
  1d:	74 17                	je     36 <_ZNSt12_Vector_baseIiSaIiEE13_M_deallocateEPim+0x36>
  1f:	48 8b 45 f8          	mov    -0x8(%rbp),%rax
  23:	48 8b 55 e8          	mov    -0x18(%rbp),%rdx
  27:	48 8b 4d f0          	mov    -0x10(%rbp),%rcx
  2b:	48 89 ce             	mov    %rcx,%rsi
  2e:	48 89 c7             	mov    %rax,%rdi
  31:	e8 00 00 00 00       	call   36 <_ZNSt12_Vector_baseIiSaIiEE13_M_deallocateEPim+0x36>
  36:	90                   	nop
  37:	c9                   	leave  
  38:	c3                   	ret    

Disassembly of section .text._ZNSt12_Vector_baseIiSaIiEE19_M_get_Tp_allocatorEv:

0000000000000000 <_ZNSt12_Vector_baseIiSaIiEE19_M_get_Tp_allocatorEv>:
   0:	f3 0f 1e fa          	endbr64 
   4:	55                   	push   %rbp
   5:	48 89 e5             	mov    %rsp,%rbp
   8:	48 89 7d f8          	mov    %rdi,-0x8(%rbp)
   c:	48 8b 45 f8          	mov    -0x8(%rbp),%rax
  10:	5d                   	pop    %rbp
  11:	c3                   	ret    

Disassembly of section .text._ZSt8_DestroyIPiiEvT_S1_RSaIT0_E:

0000000000000000 <_ZSt8_DestroyIPiiEvT_S1_RSaIT0_E>:
   0:	f3 0f 1e fa          	endbr64 
   4:	55                   	push   %rbp
   5:	48 89 e5             	mov    %rsp,%rbp
   8:	48 83 ec 20          	sub    $0x20,%rsp
   c:	48 89 7d f8          	mov    %rdi,-0x8(%rbp)
  10:	48 89 75 f0          	mov    %rsi,-0x10(%rbp)
  14:	48 89 55 e8          	mov    %rdx,-0x18(%rbp)
  18:	48 8b 55 f0          	mov    -0x10(%rbp),%rdx
  1c:	48 8b 45 f8          	mov    -0x8(%rbp),%rax
  20:	48 89 d6             	mov    %rdx,%rsi
  23:	48 89 c7             	mov    %rax,%rdi
  26:	e8 00 00 00 00       	call   2b <_ZSt8_DestroyIPiiEvT_S1_RSaIT0_E+0x2b>
  2b:	90                   	nop
  2c:	c9                   	leave  
  2d:	c3                   	ret    

Disassembly of section .text._ZNSt16allocator_traitsISaIiEE9constructIiJRKiEEEvRS0_PT_DpOT0_:

0000000000000000 <_ZNSt16allocator_traitsISaIiEE9constructIiJRKiEEEvRS0_PT_DpOT0_>:
   0:	f3 0f 1e fa          	endbr64 
   4:	55                   	push   %rbp
   5:	48 89 e5             	mov    %rsp,%rbp
   8:	48 83 ec 20          	sub    $0x20,%rsp
   c:	48 89 7d f8          	mov    %rdi,-0x8(%rbp)
  10:	48 89 75 f0          	mov    %rsi,-0x10(%rbp)
  14:	48 89 55 e8          	mov    %rdx,-0x18(%rbp)
  18:	48 8b 45 e8          	mov    -0x18(%rbp),%rax
  1c:	48 89 c7             	mov    %rax,%rdi
  1f:	e8 00 00 00 00       	call   24 <_ZNSt16allocator_traitsISaIiEE9constructIiJRKiEEEvRS0_PT_DpOT0_+0x24>
  24:	48 89 c2             	mov    %rax,%rdx
  27:	48 8b 4d f0          	mov    -0x10(%rbp),%rcx
  2b:	48 8b 45 f8          	mov    -0x8(%rbp),%rax
  2f:	48 89 ce             	mov    %rcx,%rsi
  32:	48 89 c7             	mov    %rax,%rdi
  35:	e8 00 00 00 00       	call   3a <_ZNSt16allocator_traitsISaIiEE9constructIiJRKiEEEvRS0_PT_DpOT0_+0x3a>
  3a:	90                   	nop
  3b:	c9                   	leave  
  3c:	c3                   	ret    

Disassembly of section .text._ZNSt6vectorIiSaIiEE17_M_realloc_insertIJRKiEEEvN9__gnu_cxx17__normal_iteratorIPiS1_EEDpOT_:

0000000000000000 <_ZNSt6vectorIiSaIiEE17_M_realloc_insertIJRKiEEEvN9__gnu_cxx17__normal_iteratorIPiS1_EEDpOT_>:
   0:	f3 0f 1e fa          	endbr64 
   4:	55                   	push   %rbp
   5:	48 89 e5             	mov    %rsp,%rbp
   8:	53                   	push   %rbx
   9:	48 83 ec 68          	sub    $0x68,%rsp
   d:	48 89 7d a8          	mov    %rdi,-0x58(%rbp)
  11:	48 89 75 a0          	mov    %rsi,-0x60(%rbp)
  15:	48 89 55 98          	mov    %rdx,-0x68(%rbp)
  19:	64 48 8b 04 25 28 00 	mov    %fs:0x28,%rax
  20:	00 00 
  22:	48 89 45 e8          	mov    %rax,-0x18(%rbp)
  26:	31 c0                	xor    %eax,%eax
  28:	48 8b 45 a8          	mov    -0x58(%rbp),%rax
  2c:	48 8d 15 00 00 00 00 	lea    0x0(%rip),%rdx        # 33 <_ZNSt6vectorIiSaIiEE17_M_realloc_insertIJRKiEEEvN9__gnu_cxx17__normal_iteratorIPiS1_EEDpOT_+0x33>
  33:	be 01 00 00 00       	mov    $0x1,%esi
  38:	48 89 c7             	mov    %rax,%rdi
  3b:	e8 00 00 00 00       	call   40 <_ZNSt6vectorIiSaIiEE17_M_realloc_insertIJRKiEEEvN9__gnu_cxx17__normal_iteratorIPiS1_EEDpOT_+0x40>
  40:	48 89 45 b8          	mov    %rax,-0x48(%rbp)
  44:	48 8b 45 a8          	mov    -0x58(%rbp),%rax
  48:	48 8b 00             	mov    (%rax),%rax
  4b:	48 89 45 c0          	mov    %rax,-0x40(%rbp)
  4f:	48 8b 45 a8          	mov    -0x58(%rbp),%rax
  53:	48 8b 40 08          	mov    0x8(%rax),%rax
  57:	48 89 45 c8          	mov    %rax,-0x38(%rbp)
  5b:	48 8b 45 a8          	mov    -0x58(%rbp),%rax
  5f:	48 89 c7             	mov    %rax,%rdi
  62:	e8 00 00 00 00       	call   67 <_ZNSt6vectorIiSaIiEE17_M_realloc_insertIJRKiEEEvN9__gnu_cxx17__normal_iteratorIPiS1_EEDpOT_+0x67>
  67:	48 89 45 b0          	mov    %rax,-0x50(%rbp)
  6b:	48 8d 55 b0          	lea    -0x50(%rbp),%rdx
  6f:	48 8d 45 a0          	lea    -0x60(%rbp),%rax
  73:	48 89 d6             	mov    %rdx,%rsi
  76:	48 89 c7             	mov    %rax,%rdi
  79:	e8 00 00 00 00       	call   7e <_ZNSt6vectorIiSaIiEE17_M_realloc_insertIJRKiEEEvN9__gnu_cxx17__normal_iteratorIPiS1_EEDpOT_+0x7e>
  7e:	48 89 45 d0          	mov    %rax,-0x30(%rbp)
  82:	48 8b 45 a8          	mov    -0x58(%rbp),%rax
  86:	48 8b 55 b8          	mov    -0x48(%rbp),%rdx
  8a:	48 89 d6             	mov    %rdx,%rsi
  8d:	48 89 c7             	mov    %rax,%rdi
  90:	e8 00 00 00 00       	call   95 <_ZNSt6vectorIiSaIiEE17_M_realloc_insertIJRKiEEEvN9__gnu_cxx17__normal_iteratorIPiS1_EEDpOT_+0x95>
  95:	48 89 45 d8          	mov    %rax,-0x28(%rbp)
  99:	48 8b 45 d8          	mov    -0x28(%rbp),%rax
  9d:	48 89 45 e0          	mov    %rax,-0x20(%rbp)
  a1:	48 8b 45 98          	mov    -0x68(%rbp),%rax
  a5:	48 89 c7             	mov    %rax,%rdi
  a8:	e8 00 00 00 00       	call   ad <_ZNSt6vectorIiSaIiEE17_M_realloc_insertIJRKiEEEvN9__gnu_cxx17__normal_iteratorIPiS1_EEDpOT_+0xad>
  ad:	48 89 c2             	mov    %rax,%rdx
  b0:	48 8b 45 d0          	mov    -0x30(%rbp),%rax
  b4:	48 8d 0c 85 00 00 00 	lea    0x0(,%rax,4),%rcx
  bb:	00 
  bc:	48 8b 45 d8          	mov    -0x28(%rbp),%rax
  c0:	48 01 c1             	add    %rax,%rcx
  c3:	48 8b 45 a8          	mov    -0x58(%rbp),%rax
  c7:	48 89 ce             	mov    %rcx,%rsi
  ca:	48 89 c7             	mov    %rax,%rdi
  cd:	e8 00 00 00 00       	call   d2 <_ZNSt6vectorIiSaIiEE17_M_realloc_insertIJRKiEEEvN9__gnu_cxx17__normal_iteratorIPiS1_EEDpOT_+0xd2>
  d2:	48 c7 45 e0 00 00 00 	movq   $0x0,-0x20(%rbp)
  d9:	00 
  da:	48 8b 45 a8          	mov    -0x58(%rbp),%rax
  de:	48 89 c7             	mov    %rax,%rdi
  e1:	e8 00 00 00 00       	call   e6 <_ZNSt6vectorIiSaIiEE17_M_realloc_insertIJRKiEEEvN9__gnu_cxx17__normal_iteratorIPiS1_EEDpOT_+0xe6>
  e6:	48 89 c3             	mov    %rax,%rbx
  e9:	48 8d 45 a0          	lea    -0x60(%rbp),%rax
  ed:	48 89 c7             	mov    %rax,%rdi
  f0:	e8 00 00 00 00       	call   f5 <_ZNSt6vectorIiSaIiEE17_M_realloc_insertIJRKiEEEvN9__gnu_cxx17__normal_iteratorIPiS1_EEDpOT_+0xf5>
  f5:	48 8b 30             	mov    (%rax),%rsi
  f8:	48 8b 55 d8          	mov    -0x28(%rbp),%rdx
  fc:	48 8b 45 c0          	mov    -0x40(%rbp),%rax
 100:	48 89 d9             	mov    %rbx,%rcx
 103:	48 89 c7             	mov    %rax,%rdi
 106:	e8 00 00 00 00       	call   10b <_ZNSt6vectorIiSaIiEE17_M_realloc_insertIJRKiEEEvN9__gnu_cxx17__normal_iteratorIPiS1_EEDpOT_+0x10b>
 10b:	48 89 45 e0          	mov    %rax,-0x20(%rbp)
 10f:	48 83 45 e0 04       	addq   $0x4,-0x20(%rbp)
 114:	48 8b 45 a8          	mov    -0x58(%rbp),%rax
 118:	48 89 c7             	mov    %rax,%rdi
 11b:	e8 00 00 00 00       	call   120 <_ZNSt6vectorIiSaIiEE17_M_realloc_insertIJRKiEEEvN9__gnu_cxx17__normal_iteratorIPiS1_EEDpOT_+0x120>
 120:	48 89 c3             	mov    %rax,%rbx
 123:	48 8d 45 a0          	lea    -0x60(%rbp),%rax
 127:	48 89 c7             	mov    %rax,%rdi
 12a:	e8 00 00 00 00       	call   12f <_ZNSt6vectorIiSaIiEE17_M_realloc_insertIJRKiEEEvN9__gnu_cxx17__normal_iteratorIPiS1_EEDpOT_+0x12f>
 12f:	48 8b 00             	mov    (%rax),%rax
 132:	48 8b 55 e0          	mov    -0x20(%rbp),%rdx
 136:	48 8b 75 c8          	mov    -0x38(%rbp),%rsi
 13a:	48 89 d9             	mov    %rbx,%rcx
 13d:	48 89 c7             	mov    %rax,%rdi
 140:	e8 00 00 00 00       	call   145 <_ZNSt6vectorIiSaIiEE17_M_realloc_insertIJRKiEEEvN9__gnu_cxx17__normal_iteratorIPiS1_EEDpOT_+0x145>
 145:	48 89 45 e0          	mov    %rax,-0x20(%rbp)
 149:	48 8b 45 a8          	mov    -0x58(%rbp),%rax
 14d:	48 8b 55 a8          	mov    -0x58(%rbp),%rdx
 151:	48 8b 52 10          	mov    0x10(%rdx),%rdx
 155:	48 2b 55 c0          	sub    -0x40(%rbp),%rdx
 159:	48 c1 fa 02          	sar    $0x2,%rdx
 15d:	48 8b 4d c0          	mov    -0x40(%rbp),%rcx
 161:	48 89 ce             	mov    %rcx,%rsi
 164:	48 89 c7             	mov    %rax,%rdi
 167:	e8 00 00 00 00       	call   16c <_ZNSt6vectorIiSaIiEE17_M_realloc_insertIJRKiEEEvN9__gnu_cxx17__normal_iteratorIPiS1_EEDpOT_+0x16c>
 16c:	48 8b 45 a8          	mov    -0x58(%rbp),%rax
 170:	48 8b 55 d8          	mov    -0x28(%rbp),%rdx
 174:	48 89 10             	mov    %rdx,(%rax)
 177:	48 8b 45 a8          	mov    -0x58(%rbp),%rax
 17b:	48 8b 55 e0          	mov    -0x20(%rbp),%rdx
 17f:	48 89 50 08          	mov    %rdx,0x8(%rax)
 183:	48 8b 45 b8          	mov    -0x48(%rbp),%rax
 187:	48 8d 14 85 00 00 00 	lea    0x0(,%rax,4),%rdx
 18e:	00 
 18f:	48 8b 45 d8          	mov    -0x28(%rbp),%rax
 193:	48 01 c2             	add    %rax,%rdx
 196:	48 8b 45 a8          	mov    -0x58(%rbp),%rax
 19a:	48 89 50 10          	mov    %rdx,0x10(%rax)
 19e:	90                   	nop
 19f:	48 8b 45 e8          	mov    -0x18(%rbp),%rax
 1a3:	64 48 2b 04 25 28 00 	sub    %fs:0x28,%rax
 1aa:	00 00 
 1ac:	74 05                	je     1b3 <_ZNSt6vectorIiSaIiEE17_M_realloc_insertIJRKiEEEvN9__gnu_cxx17__normal_iteratorIPiS1_EEDpOT_+0x1b3>
 1ae:	e8 00 00 00 00       	call   1b3 <_ZNSt6vectorIiSaIiEE17_M_realloc_insertIJRKiEEEvN9__gnu_cxx17__normal_iteratorIPiS1_EEDpOT_+0x1b3>
 1b3:	48 8b 5d f8          	mov    -0x8(%rbp),%rbx
 1b7:	c9                   	leave  
 1b8:	c3                   	ret    

Disassembly of section .text._ZN9__gnu_cxx17__normal_iteratorIPiSt6vectorIiSaIiEEEC2ERKS1_:

0000000000000000 <_ZN9__gnu_cxx17__normal_iteratorIPiSt6vectorIiSaIiEEEC1ERKS1_>:
   0:	f3 0f 1e fa          	endbr64 
   4:	55                   	push   %rbp
   5:	48 89 e5             	mov    %rsp,%rbp
   8:	48 89 7d f8          	mov    %rdi,-0x8(%rbp)
   c:	48 89 75 f0          	mov    %rsi,-0x10(%rbp)
  10:	48 8b 45 f0          	mov    -0x10(%rbp),%rax
  14:	48 8b 10             	mov    (%rax),%rdx
  17:	48 8b 45 f8          	mov    -0x8(%rbp),%rax
  1b:	48 89 10             	mov    %rdx,(%rax)
  1e:	90                   	nop
  1f:	5d                   	pop    %rbp
  20:	c3                   	ret    

Disassembly of section .text._ZSt4moveIRiEONSt16remove_referenceIT_E4typeEOS2_:

0000000000000000 <_ZSt4moveIRiEONSt16remove_referenceIT_E4typeEOS2_>:
   0:	f3 0f 1e fa          	endbr64 
   4:	55                   	push   %rbp
   5:	48 89 e5             	mov    %rsp,%rbp
   8:	48 89 7d f8          	mov    %rdi,-0x8(%rbp)
   c:	48 8b 45 f8          	mov    -0x8(%rbp),%rax
  10:	5d                   	pop    %rbp
  11:	c3                   	ret    

Disassembly of section .text._ZSt4swapIiENSt9enable_ifIXsrSt6__and_IJSt6__not_ISt15__is_tuple_likeIT_EESt21is_move_constructibleIS4_ESt18is_move_assignableIS4_EEE5valueEvE4typeERS4_SE_:

0000000000000000 <_ZSt4swapIiENSt9enable_ifIXsrSt6__and_IJSt6__not_ISt15__is_tuple_likeIT_EESt21is_move_constructibleIS4_ESt18is_move_assignableIS4_EEE5valueEvE4typeERS4_SE_>:
   0:	f3 0f 1e fa          	endbr64 
   4:	55                   	push   %rbp
   5:	48 89 e5             	mov    %rsp,%rbp
   8:	48 83 ec 20          	sub    $0x20,%rsp
   c:	48 89 7d e8          	mov    %rdi,-0x18(%rbp)
  10:	48 89 75 e0          	mov    %rsi,-0x20(%rbp)
  14:	64 48 8b 04 25 28 00 	mov    %fs:0x28,%rax
  1b:	00 00 
  1d:	48 89 45 f8          	mov    %rax,-0x8(%rbp)
  21:	31 c0                	xor    %eax,%eax
  23:	48 8b 45 e8          	mov    -0x18(%rbp),%rax
  27:	48 89 c7             	mov    %rax,%rdi
  2a:	e8 00 00 00 00       	call   2f <_ZSt4swapIiENSt9enable_ifIXsrSt6__and_IJSt6__not_ISt15__is_tuple_likeIT_EESt21is_move_constructibleIS4_ESt18is_move_assignableIS4_EEE5valueEvE4typeERS4_SE_+0x2f>
  2f:	8b 00                	mov    (%rax),%eax
  31:	89 45 f4             	mov    %eax,-0xc(%rbp)
  34:	48 8b 45 e0          	mov    -0x20(%rbp),%rax
  38:	48 89 c7             	mov    %rax,%rdi
  3b:	e8 00 00 00 00       	call   40 <_ZSt4swapIiENSt9enable_ifIXsrSt6__and_IJSt6__not_ISt15__is_tuple_likeIT_EESt21is_move_constructibleIS4_ESt18is_move_assignableIS4_EEE5valueEvE4typeERS4_SE_+0x40>
  40:	8b 10                	mov    (%rax),%edx
  42:	48 8b 45 e8          	mov    -0x18(%rbp),%rax
  46:	89 10                	mov    %edx,(%rax)
  48:	48 8d 45 f4          	lea    -0xc(%rbp),%rax
  4c:	48 89 c7             	mov    %rax,%rdi
  4f:	e8 00 00 00 00       	call   54 <_ZSt4swapIiENSt9enable_ifIXsrSt6__and_IJSt6__not_ISt15__is_tuple_likeIT_EESt21is_move_constructibleIS4_ESt18is_move_assignableIS4_EEE5valueEvE4typeERS4_SE_+0x54>
  54:	8b 10                	mov    (%rax),%edx
  56:	48 8b 45 e0          	mov    -0x20(%rbp),%rax
  5a:	89 10                	mov    %edx,(%rax)
  5c:	90                   	nop
  5d:	48 8b 45 f8          	mov    -0x8(%rbp),%rax
  61:	64 48 2b 04 25 28 00 	sub    %fs:0x28,%rax
  68:	00 00 
  6a:	74 05                	je     71 <_ZSt4swapIiENSt9enable_ifIXsrSt6__and_IJSt6__not_ISt15__is_tuple_likeIT_EESt21is_move_constructibleIS4_ESt18is_move_assignableIS4_EEE5valueEvE4typeERS4_SE_+0x71>
  6c:	e8 00 00 00 00       	call   71 <_ZSt4swapIiENSt9enable_ifIXsrSt6__and_IJSt6__not_ISt15__is_tuple_likeIT_EESt21is_move_constructibleIS4_ESt18is_move_assignableIS4_EEE5valueEvE4typeERS4_SE_+0x71>
  71:	c9                   	leave  
  72:	c3                   	ret    

Disassembly of section .text._ZNSaI4HeapEC2Ev:

0000000000000000 <_ZNSaI4HeapEC1Ev>:
   0:	f3 0f 1e fa          	endbr64 
   4:	55                   	push   %rbp
   5:	48 89 e5             	mov    %rsp,%rbp
   8:	48 83 ec 10          	sub    $0x10,%rsp
   c:	48 89 7d f8          	mov    %rdi,-0x8(%rbp)
  10:	48 8b 45 f8          	mov    -0x8(%rbp),%rax
  14:	48 89 c7             	mov    %rax,%rdi
  17:	e8 00 00 00 00       	call   1c <_ZNSaI4HeapEC1Ev+0x1c>
  1c:	90                   	nop
  1d:	c9                   	leave  
  1e:	c3                   	ret    

Disassembly of section .text._ZNSt12_Vector_baseI4HeapSaIS0_EE17_Vector_impl_dataC2Ev:

0000000000000000 <_ZNSt12_Vector_baseI4HeapSaIS0_EE17_Vector_impl_dataC1Ev>:
   0:	f3 0f 1e fa          	endbr64 
   4:	55                   	push   %rbp
   5:	48 89 e5             	mov    %rsp,%rbp
   8:	48 89 7d f8          	mov    %rdi,-0x8(%rbp)
   c:	48 8b 45 f8          	mov    -0x8(%rbp),%rax
  10:	48 c7 00 00 00 00 00 	movq   $0x0,(%rax)
  17:	48 8b 45 f8          	mov    -0x8(%rbp),%rax
  1b:	48 c7 40 08 00 00 00 	movq   $0x0,0x8(%rax)
  22:	00 
  23:	48 8b 45 f8          	mov    -0x8(%rbp),%rax
  27:	48 c7 40 10 00 00 00 	movq   $0x0,0x10(%rax)
  2e:	00 
  2f:	90                   	nop
  30:	5d                   	pop    %rbp
  31:	c3                   	ret    

Disassembly of section .text._ZN9__gnu_cxx13new_allocatorI4HeapED2Ev:

0000000000000000 <_ZN9__gnu_cxx13new_allocatorI4HeapED1Ev>:
   0:	f3 0f 1e fa          	endbr64 
   4:	55                   	push   %rbp
   5:	48 89 e5             	mov    %rsp,%rbp
   8:	48 89 7d f8          	mov    %rdi,-0x8(%rbp)
   c:	90                   	nop
   d:	5d                   	pop    %rbp
   e:	c3                   	ret    

Disassembly of section .text._ZNSt12_Vector_baseI4HeapSaIS0_EE13_M_deallocateEPS0_m:

0000000000000000 <_ZNSt12_Vector_baseI4HeapSaIS0_EE13_M_deallocateEPS0_m>:
   0:	f3 0f 1e fa          	endbr64 
   4:	55                   	push   %rbp
   5:	48 89 e5             	mov    %rsp,%rbp
   8:	48 83 ec 20          	sub    $0x20,%rsp
   c:	48 89 7d f8          	mov    %rdi,-0x8(%rbp)
  10:	48 89 75 f0          	mov    %rsi,-0x10(%rbp)
  14:	48 89 55 e8          	mov    %rdx,-0x18(%rbp)
  18:	48 83 7d f0 00       	cmpq   $0x0,-0x10(%rbp)
  1d:	74 17                	je     36 <_ZNSt12_Vector_baseI4HeapSaIS0_EE13_M_deallocateEPS0_m+0x36>
  1f:	48 8b 45 f8          	mov    -0x8(%rbp),%rax
  23:	48 8b 55 e8          	mov    -0x18(%rbp),%rdx
  27:	48 8b 4d f0          	mov    -0x10(%rbp),%rcx
  2b:	48 89 ce             	mov    %rcx,%rsi
  2e:	48 89 c7             	mov    %rax,%rdi
  31:	e8 00 00 00 00       	call   36 <_ZNSt12_Vector_baseI4HeapSaIS0_EE13_M_deallocateEPS0_m+0x36>
  36:	90                   	nop
  37:	c9                   	leave  
  38:	c3                   	ret    

Disassembly of section .text._ZNSt12_Vector_baseI4HeapSaIS0_EE19_M_get_Tp_allocatorEv:

0000000000000000 <_ZNSt12_Vector_baseI4HeapSaIS0_EE19_M_get_Tp_allocatorEv>:
   0:	f3 0f 1e fa          	endbr64 
   4:	55                   	push   %rbp
   5:	48 89 e5             	mov    %rsp,%rbp
   8:	48 89 7d f8          	mov    %rdi,-0x8(%rbp)
   c:	48 8b 45 f8          	mov    -0x8(%rbp),%rax
  10:	5d                   	pop    %rbp
  11:	c3                   	ret    

Disassembly of section .text._ZSt8_DestroyIP4HeapS0_EvT_S2_RSaIT0_E:

0000000000000000 <_ZSt8_DestroyIP4HeapS0_EvT_S2_RSaIT0_E>:
   0:	f3 0f 1e fa          	endbr64 
   4:	55                   	push   %rbp
   5:	48 89 e5             	mov    %rsp,%rbp
   8:	48 83 ec 20          	sub    $0x20,%rsp
   c:	48 89 7d f8          	mov    %rdi,-0x8(%rbp)
  10:	48 89 75 f0          	mov    %rsi,-0x10(%rbp)
  14:	48 89 55 e8          	mov    %rdx,-0x18(%rbp)
  18:	48 8b 55 f0          	mov    -0x10(%rbp),%rdx
  1c:	48 8b 45 f8          	mov    -0x8(%rbp),%rax
  20:	48 89 d6             	mov    %rdx,%rsi
  23:	48 89 c7             	mov    %rax,%rdi
  26:	e8 00 00 00 00       	call   2b <_ZSt8_DestroyIP4HeapS0_EvT_S2_RSaIT0_E+0x2b>
  2b:	90                   	nop
  2c:	c9                   	leave  
  2d:	c3                   	ret    

Disassembly of section .text._ZN9__gnu_cxx17__normal_iteratorIPSt6vectorIiSaIiEES1_IS3_SaIS3_EEEC2ERKS4_:

0000000000000000 <_ZN9__gnu_cxx17__normal_iteratorIPSt6vectorIiSaIiEES1_IS3_SaIS3_EEEC1ERKS4_>:
   0:	f3 0f 1e fa          	endbr64 
   4:	55                   	push   %rbp
   5:	48 89 e5             	mov    %rsp,%rbp
   8:	48 89 7d f8          	mov    %rdi,-0x8(%rbp)
   c:	48 89 75 f0          	mov    %rsi,-0x10(%rbp)
  10:	48 8b 45 f0          	mov    -0x10(%rbp),%rax
  14:	48 8b 10             	mov    (%rax),%rdx
  17:	48 8b 45 f8          	mov    -0x8(%rbp),%rax
  1b:	48 89 10             	mov    %rdx,(%rax)
  1e:	90                   	nop
  1f:	5d                   	pop    %rbp
  20:	c3                   	ret    

Disassembly of section .text._ZNK9__gnu_cxx17__normal_iteratorIPSt6vectorIiSaIiEES1_IS3_SaIS3_EEE4baseEv:

0000000000000000 <_ZNK9__gnu_cxx17__normal_iteratorIPSt6vectorIiSaIiEES1_IS3_SaIS3_EEE4baseEv>:
   0:	f3 0f 1e fa          	endbr64 
   4:	55                   	push   %rbp
   5:	48 89 e5             	mov    %rsp,%rbp
   8:	48 89 7d f8          	mov    %rdi,-0x8(%rbp)
   c:	48 8b 45 f8          	mov    -0x8(%rbp),%rax
  10:	5d                   	pop    %rbp
  11:	c3                   	ret    

Disassembly of section .text._ZNSt16allocator_traitsISaI4HeapEE9constructIS0_JRKS0_EEEvRS1_PT_DpOT0_:

0000000000000000 <_ZNSt16allocator_traitsISaI4HeapEE9constructIS0_JRKS0_EEEvRS1_PT_DpOT0_>:
   0:	f3 0f 1e fa          	endbr64 
   4:	55                   	push   %rbp
   5:	48 89 e5             	mov    %rsp,%rbp
   8:	48 83 ec 20          	sub    $0x20,%rsp
   c:	48 89 7d f8          	mov    %rdi,-0x8(%rbp)
  10:	48 89 75 f0          	mov    %rsi,-0x10(%rbp)
  14:	48 89 55 e8          	mov    %rdx,-0x18(%rbp)
  18:	48 8b 45 e8          	mov    -0x18(%rbp),%rax
  1c:	48 89 c7             	mov    %rax,%rdi
  1f:	e8 00 00 00 00       	call   24 <_ZNSt16allocator_traitsISaI4HeapEE9constructIS0_JRKS0_EEEvRS1_PT_DpOT0_+0x24>
  24:	48 89 c2             	mov    %rax,%rdx
  27:	48 8b 4d f0          	mov    -0x10(%rbp),%rcx
  2b:	48 8b 45 f8          	mov    -0x8(%rbp),%rax
  2f:	48 89 ce             	mov    %rcx,%rsi
  32:	48 89 c7             	mov    %rax,%rdi
  35:	e8 00 00 00 00       	call   3a <_ZNSt16allocator_traitsISaI4HeapEE9constructIS0_JRKS0_EEEvRS1_PT_DpOT0_+0x3a>
  3a:	90                   	nop
  3b:	c9                   	leave  
  3c:	c3                   	ret    

Disassembly of section .text._ZNSt6vectorI4HeapSaIS0_EE17_M_realloc_insertIJRKS0_EEEvN9__gnu_cxx17__normal_iteratorIPS0_S2_EEDpOT_:

0000000000000000 <_ZNSt6vectorI4HeapSaIS0_EE17_M_realloc_insertIJRKS0_EEEvN9__gnu_cxx17__normal_iteratorIPS0_S2_EEDpOT_>:
   0:	f3 0f 1e fa          	endbr64 
   4:	55                   	push   %rbp
   5:	48 89 e5             	mov    %rsp,%rbp
   8:	53                   	push   %rbx
   9:	48 83 ec 68          	sub    $0x68,%rsp
   d:	48 89 7d a8          	mov    %rdi,-0x58(%rbp)
  11:	48 89 75 a0          	mov    %rsi,-0x60(%rbp)
  15:	48 89 55 98          	mov    %rdx,-0x68(%rbp)
  19:	64 48 8b 04 25 28 00 	mov    %fs:0x28,%rax
  20:	00 00 
  22:	48 89 45 e8          	mov    %rax,-0x18(%rbp)
  26:	31 c0                	xor    %eax,%eax
  28:	48 8b 45 a8          	mov    -0x58(%rbp),%rax
  2c:	48 8d 15 00 00 00 00 	lea    0x0(%rip),%rdx        # 33 <_ZNSt6vectorI4HeapSaIS0_EE17_M_realloc_insertIJRKS0_EEEvN9__gnu_cxx17__normal_iteratorIPS0_S2_EEDpOT_+0x33>
  33:	be 01 00 00 00       	mov    $0x1,%esi
  38:	48 89 c7             	mov    %rax,%rdi
  3b:	e8 00 00 00 00       	call   40 <_ZNSt6vectorI4HeapSaIS0_EE17_M_realloc_insertIJRKS0_EEEvN9__gnu_cxx17__normal_iteratorIPS0_S2_EEDpOT_+0x40>
  40:	48 89 45 b8          	mov    %rax,-0x48(%rbp)
  44:	48 8b 45 a8          	mov    -0x58(%rbp),%rax
  48:	48 8b 00             	mov    (%rax),%rax
  4b:	48 89 45 c0          	mov    %rax,-0x40(%rbp)
  4f:	48 8b 45 a8          	mov    -0x58(%rbp),%rax
  53:	48 8b 40 08          	mov    0x8(%rax),%rax
  57:	48 89 45 c8          	mov    %rax,-0x38(%rbp)
  5b:	48 8b 45 a8          	mov    -0x58(%rbp),%rax
  5f:	48 89 c7             	mov    %rax,%rdi
  62:	e8 00 00 00 00       	call   67 <_ZNSt6vectorI4HeapSaIS0_EE17_M_realloc_insertIJRKS0_EEEvN9__gnu_cxx17__normal_iteratorIPS0_S2_EEDpOT_+0x67>
  67:	48 89 45 b0          	mov    %rax,-0x50(%rbp)
  6b:	48 8d 55 b0          	lea    -0x50(%rbp),%rdx
  6f:	48 8d 45 a0          	lea    -0x60(%rbp),%rax
  73:	48 89 d6             	mov    %rdx,%rsi
  76:	48 89 c7             	mov    %rax,%rdi
  79:	e8 00 00 00 00       	call   7e <_ZNSt6vectorI4HeapSaIS0_EE17_M_realloc_insertIJRKS0_EEEvN9__gnu_cxx17__normal_iteratorIPS0_S2_EEDpOT_+0x7e>
  7e:	48 89 45 d0          	mov    %rax,-0x30(%rbp)
  82:	48 8b 45 a8          	mov    -0x58(%rbp),%rax
  86:	48 8b 55 b8          	mov    -0x48(%rbp),%rdx
  8a:	48 89 d6             	mov    %rdx,%rsi
  8d:	48 89 c7             	mov    %rax,%rdi
  90:	e8 00 00 00 00       	call   95 <_ZNSt6vectorI4HeapSaIS0_EE17_M_realloc_insertIJRKS0_EEEvN9__gnu_cxx17__normal_iteratorIPS0_S2_EEDpOT_+0x95>
  95:	48 89 45 d8          	mov    %rax,-0x28(%rbp)
  99:	48 8b 45 d8          	mov    -0x28(%rbp),%rax
  9d:	48 89 45 e0          	mov    %rax,-0x20(%rbp)
  a1:	48 8b 45 98          	mov    -0x68(%rbp),%rax
  a5:	48 89 c7             	mov    %rax,%rdi
  a8:	e8 00 00 00 00       	call   ad <_ZNSt6vectorI4HeapSaIS0_EE17_M_realloc_insertIJRKS0_EEEvN9__gnu_cxx17__normal_iteratorIPS0_S2_EEDpOT_+0xad>
  ad:	48 89 c2             	mov    %rax,%rdx
  b0:	48 8b 45 d0          	mov    -0x30(%rbp),%rax
  b4:	48 c1 e0 05          	shl    $0x5,%rax
  b8:	48 89 c1             	mov    %rax,%rcx
  bb:	48 8b 45 d8          	mov    -0x28(%rbp),%rax
  bf:	48 01 c1             	add    %rax,%rcx
  c2:	48 8b 45 a8          	mov    -0x58(%rbp),%rax
  c6:	48 89 ce             	mov    %rcx,%rsi
  c9:	48 89 c7             	mov    %rax,%rdi
  cc:	e8 00 00 00 00       	call   d1 <_ZNSt6vectorI4HeapSaIS0_EE17_M_realloc_insertIJRKS0_EEEvN9__gnu_cxx17__normal_iteratorIPS0_S2_EEDpOT_+0xd1>
  d1:	48 c7 45 e0 00 00 00 	movq   $0x0,-0x20(%rbp)
  d8:	00 
  d9:	48 8b 45 a8          	mov    -0x58(%rbp),%rax
  dd:	48 89 c7             	mov    %rax,%rdi
  e0:	e8 00 00 00 00       	call   e5 <_ZNSt6vectorI4HeapSaIS0_EE17_M_realloc_insertIJRKS0_EEEvN9__gnu_cxx17__normal_iteratorIPS0_S2_EEDpOT_+0xe5>
  e5:	48 89 c3             	mov    %rax,%rbx
  e8:	48 8d 45 a0          	lea    -0x60(%rbp),%rax
  ec:	48 89 c7             	mov    %rax,%rdi
  ef:	e8 00 00 00 00       	call   f4 <_ZNSt6vectorI4HeapSaIS0_EE17_M_realloc_insertIJRKS0_EEEvN9__gnu_cxx17__normal_iteratorIPS0_S2_EEDpOT_+0xf4>
  f4:	48 8b 30             	mov    (%rax),%rsi
  f7:	48 8b 55 d8          	mov    -0x28(%rbp),%rdx
  fb:	48 8b 45 c0          	mov    -0x40(%rbp),%rax
  ff:	48 89 d9             	mov    %rbx,%rcx
 102:	48 89 c7             	mov    %rax,%rdi
 105:	e8 00 00 00 00       	call   10a <_ZNSt6vectorI4HeapSaIS0_EE17_M_realloc_insertIJRKS0_EEEvN9__gnu_cxx17__normal_iteratorIPS0_S2_EEDpOT_+0x10a>
 10a:	48 89 45 e0          	mov    %rax,-0x20(%rbp)
 10e:	48 83 45 e0 20       	addq   $0x20,-0x20(%rbp)
 113:	48 8b 45 a8          	mov    -0x58(%rbp),%rax
 117:	48 89 c7             	mov    %rax,%rdi
 11a:	e8 00 00 00 00       	call   11f <_ZNSt6vectorI4HeapSaIS0_EE17_M_realloc_insertIJRKS0_EEEvN9__gnu_cxx17__normal_iteratorIPS0_S2_EEDpOT_+0x11f>
 11f:	48 89 c3             	mov    %rax,%rbx
 122:	48 8d 45 a0          	lea    -0x60(%rbp),%rax
 126:	48 89 c7             	mov    %rax,%rdi
 129:	e8 00 00 00 00       	call   12e <_ZNSt6vectorI4HeapSaIS0_EE17_M_realloc_insertIJRKS0_EEEvN9__gnu_cxx17__normal_iteratorIPS0_S2_EEDpOT_+0x12e>
 12e:	48 8b 00             	mov    (%rax),%rax
 131:	48 8b 55 e0          	mov    -0x20(%rbp),%rdx
 135:	48 8b 75 c8          	mov    -0x38(%rbp),%rsi
 139:	48 89 d9             	mov    %rbx,%rcx
 13c:	48 89 c7             	mov    %rax,%rdi
 13f:	e8 00 00 00 00       	call   144 <_ZNSt6vectorI4HeapSaIS0_EE17_M_realloc_insertIJRKS0_EEEvN9__gnu_cxx17__normal_iteratorIPS0_S2_EEDpOT_+0x144>
 144:	48 89 45 e0          	mov    %rax,-0x20(%rbp)
 148:	48 8b 45 a8          	mov    -0x58(%rbp),%rax
 14c:	48 8b 55 a8          	mov    -0x58(%rbp),%rdx
 150:	48 8b 52 10          	mov    0x10(%rdx),%rdx
 154:	48 2b 55 c0          	sub    -0x40(%rbp),%rdx
 158:	48 c1 fa 05          	sar    $0x5,%rdx
 15c:	48 8b 4d c0          	mov    -0x40(%rbp),%rcx
 160:	48 89 ce             	mov    %rcx,%rsi
 163:	48 89 c7             	mov    %rax,%rdi
 166:	e8 00 00 00 00       	call   16b <_ZNSt6vectorI4HeapSaIS0_EE17_M_realloc_insertIJRKS0_EEEvN9__gnu_cxx17__normal_iteratorIPS0_S2_EEDpOT_+0x16b>
 16b:	48 8b 45 a8          	mov    -0x58(%rbp),%rax
 16f:	48 8b 55 d8          	mov    -0x28(%rbp),%rdx
 173:	48 89 10             	mov    %rdx,(%rax)
 176:	48 8b 45 a8          	mov    -0x58(%rbp),%rax
 17a:	48 8b 55 e0          	mov    -0x20(%rbp),%rdx
 17e:	48 89 50 08          	mov    %rdx,0x8(%rax)
 182:	48 8b 45 b8          	mov    -0x48(%rbp),%rax
 186:	48 c1 e0 05          	shl    $0x5,%rax
 18a:	48 89 c2             	mov    %rax,%rdx
 18d:	48 8b 45 d8          	mov    -0x28(%rbp),%rax
 191:	48 01 c2             	add    %rax,%rdx
 194:	48 8b 45 a8          	mov    -0x58(%rbp),%rax
 198:	48 89 50 10          	mov    %rdx,0x10(%rax)
 19c:	90                   	nop
 19d:	48 8b 45 e8          	mov    -0x18(%rbp),%rax
 1a1:	64 48 2b 04 25 28 00 	sub    %fs:0x28,%rax
 1a8:	00 00 
 1aa:	0f 84 95 00 00 00    	je     245 <_ZNSt6vectorI4HeapSaIS0_EE17_M_realloc_insertIJRKS0_EEEvN9__gnu_cxx17__normal_iteratorIPS0_S2_EEDpOT_+0x245>
 1b0:	e9 8b 00 00 00       	jmp    240 <_ZNSt6vectorI4HeapSaIS0_EE17_M_realloc_insertIJRKS0_EEEvN9__gnu_cxx17__normal_iteratorIPS0_S2_EEDpOT_+0x240>
 1b5:	f3 0f 1e fa          	endbr64 
 1b9:	48 89 c7             	mov    %rax,%rdi
 1bc:	e8 00 00 00 00       	call   1c1 <_ZNSt6vectorI4HeapSaIS0_EE17_M_realloc_insertIJRKS0_EEEvN9__gnu_cxx17__normal_iteratorIPS0_S2_EEDpOT_+0x1c1>
 1c1:	48 83 7d e0 00       	cmpq   $0x0,-0x20(%rbp)
 1c6:	75 23                	jne    1eb <_ZNSt6vectorI4HeapSaIS0_EE17_M_realloc_insertIJRKS0_EEEvN9__gnu_cxx17__normal_iteratorIPS0_S2_EEDpOT_+0x1eb>
 1c8:	48 8b 45 d0          	mov    -0x30(%rbp),%rax
 1cc:	48 c1 e0 05          	shl    $0x5,%rax
 1d0:	48 89 c2             	mov    %rax,%rdx
 1d3:	48 8b 45 d8          	mov    -0x28(%rbp),%rax
 1d7:	48 01 c2             	add    %rax,%rdx
 1da:	48 8b 45 a8          	mov    -0x58(%rbp),%rax
 1de:	48 89 d6             	mov    %rdx,%rsi
 1e1:	48 89 c7             	mov    %rax,%rdi
 1e4:	e8 00 00 00 00       	call   1e9 <_ZNSt6vectorI4HeapSaIS0_EE17_M_realloc_insertIJRKS0_EEEvN9__gnu_cxx17__normal_iteratorIPS0_S2_EEDpOT_+0x1e9>
 1e9:	eb 22                	jmp    20d <_ZNSt6vectorI4HeapSaIS0_EE17_M_realloc_insertIJRKS0_EEEvN9__gnu_cxx17__normal_iteratorIPS0_S2_EEDpOT_+0x20d>
 1eb:	48 8b 45 a8          	mov    -0x58(%rbp),%rax
 1ef:	48 89 c7             	mov    %rax,%rdi
 1f2:	e8 00 00 00 00       	call   1f7 <_ZNSt6vectorI4HeapSaIS0_EE17_M_realloc_insertIJRKS0_EEEvN9__gnu_cxx17__normal_iteratorIPS0_S2_EEDpOT_+0x1f7>
 1f7:	48 89 c2             	mov    %rax,%rdx
 1fa:	48 8b 4d e0          	mov    -0x20(%rbp),%rcx
 1fe:	48 8b 45 d8          	mov    -0x28(%rbp),%rax
 202:	48 89 ce             	mov    %rcx,%rsi
 205:	48 89 c7             	mov    %rax,%rdi
 208:	e8 00 00 00 00       	call   20d <_ZNSt6vectorI4HeapSaIS0_EE17_M_realloc_insertIJRKS0_EEEvN9__gnu_cxx17__normal_iteratorIPS0_S2_EEDpOT_+0x20d>
 20d:	48 8b 45 a8          	mov    -0x58(%rbp),%rax
 211:	48 8b 55 b8          	mov    -0x48(%rbp),%rdx
 215:	48 8b 4d d8          	mov    -0x28(%rbp),%rcx
 219:	48 89 ce             	mov    %rcx,%rsi
 21c:	48 89 c7             	mov    %rax,%rdi
 21f:	e8 00 00 00 00       	call   224 <_ZNSt6vectorI4HeapSaIS0_EE17_M_realloc_insertIJRKS0_EEEvN9__gnu_cxx17__normal_iteratorIPS0_S2_EEDpOT_+0x224>
 224:	e8 00 00 00 00       	call   229 <_ZNSt6vectorI4HeapSaIS0_EE17_M_realloc_insertIJRKS0_EEEvN9__gnu_cxx17__normal_iteratorIPS0_S2_EEDpOT_+0x229>
 229:	f3 0f 1e fa          	endbr64 
 22d:	48 89 c3             	mov    %rax,%rbx
 230:	e8 00 00 00 00       	call   235 <_ZNSt6vectorI4HeapSaIS0_EE17_M_realloc_insertIJRKS0_EEEvN9__gnu_cxx17__normal_iteratorIPS0_S2_EEDpOT_+0x235>
 235:	48 89 d8             	mov    %rbx,%rax
 238:	48 89 c7             	mov    %rax,%rdi
 23b:	e8 00 00 00 00       	call   240 <_ZNSt6vectorI4HeapSaIS0_EE17_M_realloc_insertIJRKS0_EEEvN9__gnu_cxx17__normal_iteratorIPS0_S2_EEDpOT_+0x240>
 240:	e8 00 00 00 00       	call   245 <_ZNSt6vectorI4HeapSaIS0_EE17_M_realloc_insertIJRKS0_EEEvN9__gnu_cxx17__normal_iteratorIPS0_S2_EEDpOT_+0x245>
 245:	48 8b 5d f8          	mov    -0x8(%rbp),%rbx
 249:	c9                   	leave  
 24a:	c3                   	ret    

Disassembly of section .text._ZN9__gnu_cxx17__normal_iteratorIP4HeapSt6vectorIS1_SaIS1_EEEC2ERKS2_:

0000000000000000 <_ZN9__gnu_cxx17__normal_iteratorIP4HeapSt6vectorIS1_SaIS1_EEEC1ERKS2_>:
   0:	f3 0f 1e fa          	endbr64 
   4:	55                   	push   %rbp
   5:	48 89 e5             	mov    %rsp,%rbp
   8:	48 89 7d f8          	mov    %rdi,-0x8(%rbp)
   c:	48 89 75 f0          	mov    %rsi,-0x10(%rbp)
  10:	48 8b 45 f0          	mov    -0x10(%rbp),%rax
  14:	48 8b 10             	mov    (%rax),%rdx
  17:	48 8b 45 f8          	mov    -0x8(%rbp),%rax
  1b:	48 89 10             	mov    %rdx,(%rax)
  1e:	90                   	nop
  1f:	5d                   	pop    %rbp
  20:	c3                   	ret    

Disassembly of section .text._ZNK9__gnu_cxx17__normal_iteratorIP4HeapSt6vectorIS1_SaIS1_EEE4baseEv:

0000000000000000 <_ZNK9__gnu_cxx17__normal_iteratorIP4HeapSt6vectorIS1_SaIS1_EEE4baseEv>:
   0:	f3 0f 1e fa          	endbr64 
   4:	55                   	push   %rbp
   5:	48 89 e5             	mov    %rsp,%rbp
   8:	48 89 7d f8          	mov    %rdi,-0x8(%rbp)
   c:	48 8b 45 f8          	mov    -0x8(%rbp),%rax
  10:	5d                   	pop    %rbp
  11:	c3                   	ret    

Disassembly of section .text._ZNSt6vectorIiSaIiEE12emplace_backIJiEEERiDpOT_:

0000000000000000 <_ZNSt6vectorIiSaIiEE12emplace_backIJiEEERiDpOT_>:
   0:	f3 0f 1e fa          	endbr64 
   4:	55                   	push   %rbp
   5:	48 89 e5             	mov    %rsp,%rbp
   8:	53                   	push   %rbx
   9:	48 83 ec 18          	sub    $0x18,%rsp
   d:	48 89 7d e8          	mov    %rdi,-0x18(%rbp)
  11:	48 89 75 e0          	mov    %rsi,-0x20(%rbp)
  15:	48 8b 45 e8          	mov    -0x18(%rbp),%rax
  19:	48 8b 50 08          	mov    0x8(%rax),%rdx
  1d:	48 8b 45 e8          	mov    -0x18(%rbp),%rax
  21:	48 8b 40 10          	mov    0x10(%rax),%rax
  25:	48 39 c2             	cmp    %rax,%rdx
  28:	74 3c                	je     66 <_ZNSt6vectorIiSaIiEE12emplace_backIJiEEERiDpOT_+0x66>
  2a:	48 8b 45 e0          	mov    -0x20(%rbp),%rax
  2e:	48 89 c7             	mov    %rax,%rdi
  31:	e8 00 00 00 00       	call   36 <_ZNSt6vectorIiSaIiEE12emplace_backIJiEEERiDpOT_+0x36>
  36:	48 89 c2             	mov    %rax,%rdx
  39:	48 8b 45 e8          	mov    -0x18(%rbp),%rax
  3d:	48 8b 48 08          	mov    0x8(%rax),%rcx
  41:	48 8b 45 e8          	mov    -0x18(%rbp),%rax
  45:	48 89 ce             	mov    %rcx,%rsi
  48:	48 89 c7             	mov    %rax,%rdi
  4b:	e8 00 00 00 00       	call   50 <_ZNSt6vectorIiSaIiEE12emplace_backIJiEEERiDpOT_+0x50>
  50:	48 8b 45 e8          	mov    -0x18(%rbp),%rax
  54:	48 8b 40 08          	mov    0x8(%rax),%rax
  58:	48 8d 50 04          	lea    0x4(%rax),%rdx
  5c:	48 8b 45 e8          	mov    -0x18(%rbp),%rax
  60:	48 89 50 08          	mov    %rdx,0x8(%rax)
  64:	eb 30                	jmp    96 <_ZNSt6vectorIiSaIiEE12emplace_backIJiEEERiDpOT_+0x96>
  66:	48 8b 45 e0          	mov    -0x20(%rbp),%rax
  6a:	48 89 c7             	mov    %rax,%rdi
  6d:	e8 00 00 00 00       	call   72 <_ZNSt6vectorIiSaIiEE12emplace_backIJiEEERiDpOT_+0x72>
  72:	48 89 c3             	mov    %rax,%rbx
  75:	48 8b 45 e8          	mov    -0x18(%rbp),%rax
  79:	48 89 c7             	mov    %rax,%rdi
  7c:	e8 00 00 00 00       	call   81 <_ZNSt6vectorIiSaIiEE12emplace_backIJiEEERiDpOT_+0x81>
  81:	48 89 c1             	mov    %rax,%rcx
  84:	48 8b 45 e8          	mov    -0x18(%rbp),%rax
  88:	48 89 da             	mov    %rbx,%rdx
  8b:	48 89 ce             	mov    %rcx,%rsi
  8e:	48 89 c7             	mov    %rax,%rdi
  91:	e8 00 00 00 00       	call   96 <_ZNSt6vectorIiSaIiEE12emplace_backIJiEEERiDpOT_+0x96>
  96:	48 8b 45 e8          	mov    -0x18(%rbp),%rax
  9a:	48 89 c7             	mov    %rax,%rdi
  9d:	e8 00 00 00 00       	call   a2 <_ZNSt6vectorIiSaIiEE12emplace_backIJiEEERiDpOT_+0xa2>
  a2:	48 8b 5d f8          	mov    -0x8(%rbp),%rbx
  a6:	c9                   	leave  
  a7:	c3                   	ret    

Disassembly of section .text._ZNSt12_Vector_baseISt6vectorIiSaIiEESaIS2_EE17_Vector_impl_dataC2Ev:

0000000000000000 <_ZNSt12_Vector_baseISt6vectorIiSaIiEESaIS2_EE17_Vector_impl_dataC1Ev>:
   0:	f3 0f 1e fa          	endbr64 
   4:	55                   	push   %rbp
   5:	48 89 e5             	mov    %rsp,%rbp
   8:	48 89 7d f8          	mov    %rdi,-0x8(%rbp)
   c:	48 8b 45 f8          	mov    -0x8(%rbp),%rax
  10:	48 c7 00 00 00 00 00 	movq   $0x0,(%rax)
  17:	48 8b 45 f8          	mov    -0x8(%rbp),%rax
  1b:	48 c7 40 08 00 00 00 	movq   $0x0,0x8(%rax)
  22:	00 
  23:	48 8b 45 f8          	mov    -0x8(%rbp),%rax
  27:	48 c7 40 10 00 00 00 	movq   $0x0,0x10(%rax)
  2e:	00 
  2f:	90                   	nop
  30:	5d                   	pop    %rbp
  31:	c3                   	ret    

Disassembly of section .text._ZN9__gnu_cxx13new_allocatorISt6vectorIiSaIiEEED2Ev:

0000000000000000 <_ZN9__gnu_cxx13new_allocatorISt6vectorIiSaIiEEED1Ev>:
   0:	f3 0f 1e fa          	endbr64 
   4:	55                   	push   %rbp
   5:	48 89 e5             	mov    %rsp,%rbp
   8:	48 89 7d f8          	mov    %rdi,-0x8(%rbp)
   c:	90                   	nop
   d:	5d                   	pop    %rbp
   e:	c3                   	ret    

Disassembly of section .text._ZNSt12_Vector_baseISt6vectorIiSaIiEESaIS2_EE13_M_deallocateEPS2_m:

0000000000000000 <_ZNSt12_Vector_baseISt6vectorIiSaIiEESaIS2_EE13_M_deallocateEPS2_m>:
   0:	f3 0f 1e fa          	endbr64 
   4:	55                   	push   %rbp
   5:	48 89 e5             	mov    %rsp,%rbp
   8:	48 83 ec 20          	sub    $0x20,%rsp
   c:	48 89 7d f8          	mov    %rdi,-0x8(%rbp)
  10:	48 89 75 f0          	mov    %rsi,-0x10(%rbp)
  14:	48 89 55 e8          	mov    %rdx,-0x18(%rbp)
  18:	48 83 7d f0 00       	cmpq   $0x0,-0x10(%rbp)
  1d:	74 17                	je     36 <_ZNSt12_Vector_baseISt6vectorIiSaIiEESaIS2_EE13_M_deallocateEPS2_m+0x36>
  1f:	48 8b 45 f8          	mov    -0x8(%rbp),%rax
  23:	48 8b 55 e8          	mov    -0x18(%rbp),%rdx
  27:	48 8b 4d f0          	mov    -0x10(%rbp),%rcx
  2b:	48 89 ce             	mov    %rcx,%rsi
  2e:	48 89 c7             	mov    %rax,%rdi
  31:	e8 00 00 00 00       	call   36 <_ZNSt12_Vector_baseISt6vectorIiSaIiEESaIS2_EE13_M_deallocateEPS2_m+0x36>
  36:	90                   	nop
  37:	c9                   	leave  
  38:	c3                   	ret    

Disassembly of section .text._ZNSt12_Vector_baseISt6vectorIiSaIiEESaIS2_EE19_M_get_Tp_allocatorEv:

0000000000000000 <_ZNSt12_Vector_baseISt6vectorIiSaIiEESaIS2_EE19_M_get_Tp_allocatorEv>:
   0:	f3 0f 1e fa          	endbr64 
   4:	55                   	push   %rbp
   5:	48 89 e5             	mov    %rsp,%rbp
   8:	48 89 7d f8          	mov    %rdi,-0x8(%rbp)
   c:	48 8b 45 f8          	mov    -0x8(%rbp),%rax
  10:	5d                   	pop    %rbp
  11:	c3                   	ret    

Disassembly of section .text._ZSt8_DestroyIPSt6vectorIiSaIiEES2_EvT_S4_RSaIT0_E:

0000000000000000 <_ZSt8_DestroyIPSt6vectorIiSaIiEES2_EvT_S4_RSaIT0_E>:
   0:	f3 0f 1e fa          	endbr64 
   4:	55                   	push   %rbp
   5:	48 89 e5             	mov    %rsp,%rbp
   8:	48 83 ec 20          	sub    $0x20,%rsp
   c:	48 89 7d f8          	mov    %rdi,-0x8(%rbp)
  10:	48 89 75 f0          	mov    %rsi,-0x10(%rbp)
  14:	48 89 55 e8          	mov    %rdx,-0x18(%rbp)
  18:	48 8b 55 f0          	mov    -0x10(%rbp),%rdx
  1c:	48 8b 45 f8          	mov    -0x8(%rbp),%rax
  20:	48 89 d6             	mov    %rdx,%rsi
  23:	48 89 c7             	mov    %rax,%rdi
  26:	e8 00 00 00 00       	call   2b <_ZSt8_DestroyIPSt6vectorIiSaIiEES2_EvT_S4_RSaIT0_E+0x2b>
  2b:	90                   	nop
  2c:	c9                   	leave  
  2d:	c3                   	ret    

Disassembly of section .text._ZNK9__gnu_cxx17__normal_iteratorIPiSt6vectorIiSaIiEEE4baseEv:

0000000000000000 <_ZNK9__gnu_cxx17__normal_iteratorIPiSt6vectorIiSaIiEEE4baseEv>:
   0:	f3 0f 1e fa          	endbr64 
   4:	55                   	push   %rbp
   5:	48 89 e5             	mov    %rsp,%rbp
   8:	48 89 7d f8          	mov    %rdi,-0x8(%rbp)
   c:	48 8b 45 f8          	mov    -0x8(%rbp),%rax
  10:	5d                   	pop    %rbp
  11:	c3                   	ret    

Disassembly of section .text._ZSt19__iterator_categoryIN9__gnu_cxx17__normal_iteratorIPiSt6vectorIiSaIiEEEEENSt15iterator_traitsIT_E17iterator_categoryERKS8_:

0000000000000000 <_ZSt19__iterator_categoryIN9__gnu_cxx17__normal_iteratorIPiSt6vectorIiSaIiEEEEENSt15iterator_traitsIT_E17iterator_categoryERKS8_>:
   0:	f3 0f 1e fa          	endbr64 
   4:	55                   	push   %rbp
   5:	48 89 e5             	mov    %rsp,%rbp
   8:	48 89 7d f8          	mov    %rdi,-0x8(%rbp)
   c:	5d                   	pop    %rbp
   d:	c3                   	ret    

Disassembly of section .text._ZSt9__advanceIN9__gnu_cxx17__normal_iteratorIPiSt6vectorIiSaIiEEEElEvRT_T0_St26random_access_iterator_tag:

0000000000000000 <_ZSt9__advanceIN9__gnu_cxx17__normal_iteratorIPiSt6vectorIiSaIiEEEElEvRT_T0_St26random_access_iterator_tag>:
   0:	f3 0f 1e fa          	endbr64 
   4:	55                   	push   %rbp
   5:	48 89 e5             	mov    %rsp,%rbp
   8:	48 83 ec 10          	sub    $0x10,%rsp
   c:	48 89 7d f8          	mov    %rdi,-0x8(%rbp)
  10:	48 89 75 f0          	mov    %rsi,-0x10(%rbp)
  14:	48 8b 55 f0          	mov    -0x10(%rbp),%rdx
  18:	48 8b 45 f8          	mov    -0x8(%rbp),%rax
  1c:	48 89 d6             	mov    %rdx,%rsi
  1f:	48 89 c7             	mov    %rax,%rdi
  22:	e8 00 00 00 00       	call   27 <_ZSt9__advanceIN9__gnu_cxx17__normal_iteratorIPiSt6vectorIiSaIiEEEElEvRT_T0_St26random_access_iterator_tag+0x27>
  27:	90                   	nop
  28:	c9                   	leave  
  29:	c3                   	ret    

Disassembly of section .text._ZNK9__gnu_cxx17__normal_iteratorIPSt6vectorIiSaIiEES1_IS3_SaIS3_EEEmiEl:

0000000000000000 <_ZNK9__gnu_cxx17__normal_iteratorIPSt6vectorIiSaIiEES1_IS3_SaIS3_EEEmiEl>:
   0:	f3 0f 1e fa          	endbr64 
   4:	55                   	push   %rbp
   5:	48 89 e5             	mov    %rsp,%rbp
   8:	48 83 ec 30          	sub    $0x30,%rsp
   c:	48 89 7d d8          	mov    %rdi,-0x28(%rbp)
  10:	48 89 75 d0          	mov    %rsi,-0x30(%rbp)
  14:	64 48 8b 04 25 28 00 	mov    %fs:0x28,%rax
  1b:	00 00 
  1d:	48 89 45 f8          	mov    %rax,-0x8(%rbp)
  21:	31 c0                	xor    %eax,%eax
  23:	48 8b 45 d8          	mov    -0x28(%rbp),%rax
  27:	48 8b 08             	mov    (%rax),%rcx
  2a:	48 8b 55 d0          	mov    -0x30(%rbp),%rdx
  2e:	48 89 d0             	mov    %rdx,%rax
  31:	48 01 c0             	add    %rax,%rax
  34:	48 01 d0             	add    %rdx,%rax
  37:	48 c1 e0 03          	shl    $0x3,%rax
  3b:	48 f7 d8             	neg    %rax
  3e:	48 01 c8             	add    %rcx,%rax
  41:	48 89 45 e8          	mov    %rax,-0x18(%rbp)
  45:	48 8d 55 e8          	lea    -0x18(%rbp),%rdx
  49:	48 8d 45 f0          	lea    -0x10(%rbp),%rax
  4d:	48 89 d6             	mov    %rdx,%rsi
  50:	48 89 c7             	mov    %rax,%rdi
  53:	e8 00 00 00 00       	call   58 <_ZNK9__gnu_cxx17__normal_iteratorIPSt6vectorIiSaIiEES1_IS3_SaIS3_EEEmiEl+0x58>
  58:	48 8b 45 f0          	mov    -0x10(%rbp),%rax
  5c:	48 8b 55 f8          	mov    -0x8(%rbp),%rdx
  60:	64 48 2b 14 25 28 00 	sub    %fs:0x28,%rdx
  67:	00 00 
  69:	74 05                	je     70 <_ZNK9__gnu_cxx17__normal_iteratorIPSt6vectorIiSaIiEES1_IS3_SaIS3_EEEmiEl+0x70>
  6b:	e8 00 00 00 00       	call   70 <_ZNK9__gnu_cxx17__normal_iteratorIPSt6vectorIiSaIiEES1_IS3_SaIS3_EEEmiEl+0x70>
  70:	c9                   	leave  
  71:	c3                   	ret    

Disassembly of section .text._ZN9__gnu_cxx13new_allocatorIiEC2Ev:

0000000000000000 <_ZN9__gnu_cxx13new_allocatorIiEC1Ev>:
   0:	f3 0f 1e fa          	endbr64 
   4:	55                   	push   %rbp
   5:	48 89 e5             	mov    %rsp,%rbp
   8:	48 89 7d f8          	mov    %rdi,-0x8(%rbp)
   c:	90                   	nop
   d:	5d                   	pop    %rbp
   e:	c3                   	ret    

Disassembly of section .text._ZNSt12_Vector_baseIiSaIiEEC2ERKS0_:

0000000000000000 <_ZNSt12_Vector_baseIiSaIiEEC1ERKS0_>:
   0:	f3 0f 1e fa          	endbr64 
   4:	55                   	push   %rbp
   5:	48 89 e5             	mov    %rsp,%rbp
   8:	48 83 ec 10          	sub    $0x10,%rsp
   c:	48 89 7d f8          	mov    %rdi,-0x8(%rbp)
  10:	48 89 75 f0          	mov    %rsi,-0x10(%rbp)
  14:	48 8b 45 f8          	mov    -0x8(%rbp),%rax
  18:	48 8b 55 f0          	mov    -0x10(%rbp),%rdx
  1c:	48 89 d6             	mov    %rdx,%rsi
  1f:	48 89 c7             	mov    %rax,%rdi
  22:	e8 00 00 00 00       	call   27 <_ZNSt12_Vector_baseIiSaIiEEC1ERKS0_+0x27>
  27:	90                   	nop
  28:	c9                   	leave  
  29:	c3                   	ret    

Disassembly of section .text._ZNKSt16initializer_listIiE5beginEv:

0000000000000000 <_ZNKSt16initializer_listIiE5beginEv>:
   0:	f3 0f 1e fa          	endbr64 
   4:	55                   	push   %rbp
   5:	48 89 e5             	mov    %rsp,%rbp
   8:	48 89 7d f8          	mov    %rdi,-0x8(%rbp)
   c:	48 8b 45 f8          	mov    -0x8(%rbp),%rax
  10:	48 8b 00             	mov    (%rax),%rax
  13:	5d                   	pop    %rbp
  14:	c3                   	ret    

Disassembly of section .text._ZNKSt16initializer_listIiE3endEv:

0000000000000000 <_ZNKSt16initializer_listIiE3endEv>:
   0:	f3 0f 1e fa          	endbr64 
   4:	55                   	push   %rbp
   5:	48 89 e5             	mov    %rsp,%rbp
   8:	53                   	push   %rbx
   9:	48 83 ec 18          	sub    $0x18,%rsp
   d:	48 89 7d e8          	mov    %rdi,-0x18(%rbp)
  11:	48 8b 45 e8          	mov    -0x18(%rbp),%rax
  15:	48 89 c7             	mov    %rax,%rdi
  18:	e8 00 00 00 00       	call   1d <_ZNKSt16initializer_listIiE3endEv+0x1d>
  1d:	48 89 c3             	mov    %rax,%rbx
  20:	48 8b 45 e8          	mov    -0x18(%rbp),%rax
  24:	48 89 c7             	mov    %rax,%rdi
  27:	e8 00 00 00 00       	call   2c <_ZNKSt16initializer_listIiE3endEv+0x2c>
  2c:	48 c1 e0 02          	shl    $0x2,%rax
  30:	48 01 d8             	add    %rbx,%rax
  33:	48 8b 5d f8          	mov    -0x8(%rbp),%rbx
  37:	c9                   	leave  
  38:	c3                   	ret    

Disassembly of section .text._ZSt8distanceIPKiENSt15iterator_traitsIT_E15difference_typeES3_S3_:

0000000000000000 <_ZSt8distanceIPKiENSt15iterator_traitsIT_E15difference_typeES3_S3_>:
   0:	f3 0f 1e fa          	endbr64 
   4:	55                   	push   %rbp
   5:	48 89 e5             	mov    %rsp,%rbp
   8:	48 83 ec 10          	sub    $0x10,%rsp
   c:	48 89 7d f8          	mov    %rdi,-0x8(%rbp)
  10:	48 89 75 f0          	mov    %rsi,-0x10(%rbp)
  14:	48 8d 45 f8          	lea    -0x8(%rbp),%rax
  18:	48 89 c7             	mov    %rax,%rdi
  1b:	e8 00 00 00 00       	call   20 <_ZSt8distanceIPKiENSt15iterator_traitsIT_E15difference_typeES3_S3_+0x20>
  20:	48 8b 45 f8          	mov    -0x8(%rbp),%rax
  24:	48 8b 55 f0          	mov    -0x10(%rbp),%rdx
  28:	48 89 d6             	mov    %rdx,%rsi
  2b:	48 89 c7             	mov    %rax,%rdi
  2e:	e8 00 00 00 00       	call   33 <_ZSt8distanceIPKiENSt15iterator_traitsIT_E15difference_typeES3_S3_+0x33>
  33:	c9                   	leave  
  34:	c3                   	ret    

Disassembly of section .text._ZNSt6vectorIiSaIiEE19_M_range_initializeIPKiEEvT_S5_St20forward_iterator_tag:

0000000000000000 <_ZNSt6vectorIiSaIiEE19_M_range_initializeIPKiEEvT_S5_St20forward_iterator_tag>:
   0:	f3 0f 1e fa          	endbr64 
   4:	55                   	push   %rbp
   5:	48 89 e5             	mov    %rsp,%rbp
   8:	53                   	push   %rbx
   9:	48 83 ec 38          	sub    $0x38,%rsp
   d:	48 89 7d d8          	mov    %rdi,-0x28(%rbp)
  11:	48 89 75 d0          	mov    %rsi,-0x30(%rbp)
  15:	48 89 55 c8          	mov    %rdx,-0x38(%rbp)
  19:	48 8b 55 c8          	mov    -0x38(%rbp),%rdx
  1d:	48 8b 45 d0          	mov    -0x30(%rbp),%rax
  21:	48 89 d6             	mov    %rdx,%rsi
  24:	48 89 c7             	mov    %rax,%rdi
  27:	e8 00 00 00 00       	call   2c <_ZNSt6vectorIiSaIiEE19_M_range_initializeIPKiEEvT_S5_St20forward_iterator_tag+0x2c>
  2c:	48 89 45 e8          	mov    %rax,-0x18(%rbp)
  30:	48 8b 5d d8          	mov    -0x28(%rbp),%rbx
  34:	48 8b 45 d8          	mov    -0x28(%rbp),%rax
  38:	48 89 c7             	mov    %rax,%rdi
  3b:	e8 00 00 00 00       	call   40 <_ZNSt6vectorIiSaIiEE19_M_range_initializeIPKiEEvT_S5_St20forward_iterator_tag+0x40>
  40:	48 89 c2             	mov    %rax,%rdx
  43:	48 8b 45 e8          	mov    -0x18(%rbp),%rax
  47:	48 89 d6             	mov    %rdx,%rsi
  4a:	48 89 c7             	mov    %rax,%rdi
  4d:	e8 00 00 00 00       	call   52 <_ZNSt6vectorIiSaIiEE19_M_range_initializeIPKiEEvT_S5_St20forward_iterator_tag+0x52>
  52:	48 89 c6             	mov    %rax,%rsi
  55:	48 89 df             	mov    %rbx,%rdi
  58:	e8 00 00 00 00       	call   5d <_ZNSt6vectorIiSaIiEE19_M_range_initializeIPKiEEvT_S5_St20forward_iterator_tag+0x5d>
  5d:	48 8b 55 d8          	mov    -0x28(%rbp),%rdx
  61:	48 89 02             	mov    %rax,(%rdx)
  64:	48 8b 45 d8          	mov    -0x28(%rbp),%rax
  68:	48 8b 10             	mov    (%rax),%rdx
  6b:	48 8b 45 e8          	mov    -0x18(%rbp),%rax
  6f:	48 c1 e0 02          	shl    $0x2,%rax
  73:	48 01 c2             	add    %rax,%rdx
  76:	48 8b 45 d8          	mov    -0x28(%rbp),%rax
  7a:	48 89 50 10          	mov    %rdx,0x10(%rax)
  7e:	48 8b 45 d8          	mov    -0x28(%rbp),%rax
  82:	48 89 c7             	mov    %rax,%rdi
  85:	e8 00 00 00 00       	call   8a <_ZNSt6vectorIiSaIiEE19_M_range_initializeIPKiEEvT_S5_St20forward_iterator_tag+0x8a>
  8a:	48 89 c1             	mov    %rax,%rcx
  8d:	48 8b 45 d8          	mov    -0x28(%rbp),%rax
  91:	48 8b 10             	mov    (%rax),%rdx
  94:	48 8b 75 c8          	mov    -0x38(%rbp),%rsi
  98:	48 8b 45 d0          	mov    -0x30(%rbp),%rax
  9c:	48 89 c7             	mov    %rax,%rdi
  9f:	e8 00 00 00 00       	call   a4 <_ZNSt6vectorIiSaIiEE19_M_range_initializeIPKiEEvT_S5_St20forward_iterator_tag+0xa4>
  a4:	48 8b 55 d8          	mov    -0x28(%rbp),%rdx
  a8:	48 89 42 08          	mov    %rax,0x8(%rdx)
  ac:	90                   	nop
  ad:	48 8b 5d f8          	mov    -0x8(%rbp),%rbx
  b1:	c9                   	leave  
  b2:	c3                   	ret    

Disassembly of section .text._ZSt4moveIRSt6vectorIiSaIiEEEONSt16remove_referenceIT_E4typeEOS5_:

0000000000000000 <_ZSt4moveIRSt6vectorIiSaIiEEEONSt16remove_referenceIT_E4typeEOS5_>:
   0:	f3 0f 1e fa          	endbr64 
   4:	55                   	push   %rbp
   5:	48 89 e5             	mov    %rsp,%rbp
   8:	48 89 7d f8          	mov    %rdi,-0x8(%rbp)
   c:	48 8b 45 f8          	mov    -0x8(%rbp),%rax
  10:	5d                   	pop    %rbp
  11:	c3                   	ret    

Disassembly of section .text._ZNSt6vectorIS_IiSaIiEESaIS1_EE12emplace_backIJS1_EEERS1_DpOT_:

0000000000000000 <_ZNSt6vectorIS_IiSaIiEESaIS1_EE12emplace_backIJS1_EEERS1_DpOT_>:
   0:	f3 0f 1e fa          	endbr64 
   4:	55                   	push   %rbp
   5:	48 89 e5             	mov    %rsp,%rbp
   8:	53                   	push   %rbx
   9:	48 83 ec 18          	sub    $0x18,%rsp
   d:	48 89 7d e8          	mov    %rdi,-0x18(%rbp)
  11:	48 89 75 e0          	mov    %rsi,-0x20(%rbp)
  15:	48 8b 45 e8          	mov    -0x18(%rbp),%rax
  19:	48 8b 50 08          	mov    0x8(%rax),%rdx
  1d:	48 8b 45 e8          	mov    -0x18(%rbp),%rax
  21:	48 8b 40 10          	mov    0x10(%rax),%rax
  25:	48 39 c2             	cmp    %rax,%rdx
  28:	74 3c                	je     66 <_ZNSt6vectorIS_IiSaIiEESaIS1_EE12emplace_backIJS1_EEERS1_DpOT_+0x66>
  2a:	48 8b 45 e0          	mov    -0x20(%rbp),%rax
  2e:	48 89 c7             	mov    %rax,%rdi
  31:	e8 00 00 00 00       	call   36 <_ZNSt6vectorIS_IiSaIiEESaIS1_EE12emplace_backIJS1_EEERS1_DpOT_+0x36>
  36:	48 89 c2             	mov    %rax,%rdx
  39:	48 8b 45 e8          	mov    -0x18(%rbp),%rax
  3d:	48 8b 48 08          	mov    0x8(%rax),%rcx
  41:	48 8b 45 e8          	mov    -0x18(%rbp),%rax
  45:	48 89 ce             	mov    %rcx,%rsi
  48:	48 89 c7             	mov    %rax,%rdi
  4b:	e8 00 00 00 00       	call   50 <_ZNSt6vectorIS_IiSaIiEESaIS1_EE12emplace_backIJS1_EEERS1_DpOT_+0x50>
  50:	48 8b 45 e8          	mov    -0x18(%rbp),%rax
  54:	48 8b 40 08          	mov    0x8(%rax),%rax
  58:	48 8d 50 18          	lea    0x18(%rax),%rdx
  5c:	48 8b 45 e8          	mov    -0x18(%rbp),%rax
  60:	48 89 50 08          	mov    %rdx,0x8(%rax)
  64:	eb 30                	jmp    96 <_ZNSt6vectorIS_IiSaIiEESaIS1_EE12emplace_backIJS1_EEERS1_DpOT_+0x96>
  66:	48 8b 45 e0          	mov    -0x20(%rbp),%rax
  6a:	48 89 c7             	mov    %rax,%rdi
  6d:	e8 00 00 00 00       	call   72 <_ZNSt6vectorIS_IiSaIiEESaIS1_EE12emplace_backIJS1_EEERS1_DpOT_+0x72>
  72:	48 89 c3             	mov    %rax,%rbx
  75:	48 8b 45 e8          	mov    -0x18(%rbp),%rax
  79:	48 89 c7             	mov    %rax,%rdi
  7c:	e8 00 00 00 00       	call   81 <_ZNSt6vectorIS_IiSaIiEESaIS1_EE12emplace_backIJS1_EEERS1_DpOT_+0x81>
  81:	48 89 c1             	mov    %rax,%rcx
  84:	48 8b 45 e8          	mov    -0x18(%rbp),%rax
  88:	48 89 da             	mov    %rbx,%rdx
  8b:	48 89 ce             	mov    %rcx,%rsi
  8e:	48 89 c7             	mov    %rax,%rdi
  91:	e8 00 00 00 00       	call   96 <_ZNSt6vectorIS_IiSaIiEESaIS1_EE12emplace_backIJS1_EEERS1_DpOT_+0x96>
  96:	48 8b 45 e8          	mov    -0x18(%rbp),%rax
  9a:	48 89 c7             	mov    %rax,%rdi
  9d:	e8 00 00 00 00       	call   a2 <_ZNSt6vectorIS_IiSaIiEESaIS1_EE12emplace_backIJS1_EEERS1_DpOT_+0xa2>
  a2:	48 8b 5d f8          	mov    -0x8(%rbp),%rbx
  a6:	c9                   	leave  
  a7:	c3                   	ret    

Disassembly of section .text._ZNSaISt6vectorIiSaIiEEEC2ERKS2_:

0000000000000000 <_ZNSaISt6vectorIiSaIiEEEC1ERKS2_>:
   0:	f3 0f 1e fa          	endbr64 
   4:	55                   	push   %rbp
   5:	48 89 e5             	mov    %rsp,%rbp
   8:	48 83 ec 10          	sub    $0x10,%rsp
   c:	48 89 7d f8          	mov    %rdi,-0x8(%rbp)
  10:	48 89 75 f0          	mov    %rsi,-0x10(%rbp)
  14:	48 8b 55 f0          	mov    -0x10(%rbp),%rdx
  18:	48 8b 45 f8          	mov    -0x8(%rbp),%rax
  1c:	48 89 d6             	mov    %rdx,%rsi
  1f:	48 89 c7             	mov    %rax,%rdi
  22:	e8 00 00 00 00       	call   27 <_ZNSaISt6vectorIiSaIiEEEC1ERKS2_+0x27>
  27:	90                   	nop
  28:	c9                   	leave  
  29:	c3                   	ret    

Disassembly of section .text._ZN9__gnu_cxx13new_allocatorISt6vectorIiSaIiEEEC2Ev:

0000000000000000 <_ZN9__gnu_cxx13new_allocatorISt6vectorIiSaIiEEEC1Ev>:
   0:	f3 0f 1e fa          	endbr64 
   4:	55                   	push   %rbp
   5:	48 89 e5             	mov    %rsp,%rbp
   8:	48 89 7d f8          	mov    %rdi,-0x8(%rbp)
   c:	90                   	nop
   d:	5d                   	pop    %rbp
   e:	c3                   	ret    

Disassembly of section .text._ZNSt12_Vector_baseISt6vectorIiSaIiEESaIS2_EEC2ERKS3_:

0000000000000000 <_ZNSt12_Vector_baseISt6vectorIiSaIiEESaIS2_EEC1ERKS3_>:
   0:	f3 0f 1e fa          	endbr64 
   4:	55                   	push   %rbp
   5:	48 89 e5             	mov    %rsp,%rbp
   8:	48 83 ec 10          	sub    $0x10,%rsp
   c:	48 89 7d f8          	mov    %rdi,-0x8(%rbp)
  10:	48 89 75 f0          	mov    %rsi,-0x10(%rbp)
  14:	48 8b 45 f8          	mov    -0x8(%rbp),%rax
  18:	48 8b 55 f0          	mov    -0x10(%rbp),%rdx
  1c:	48 89 d6             	mov    %rdx,%rsi
  1f:	48 89 c7             	mov    %rax,%rdi
  22:	e8 00 00 00 00       	call   27 <_ZNSt12_Vector_baseISt6vectorIiSaIiEESaIS2_EEC1ERKS3_+0x27>
  27:	90                   	nop
  28:	c9                   	leave  
  29:	c3                   	ret    

Disassembly of section .text._ZNKSt16initializer_listISt6vectorIiSaIiEEE5beginEv:

0000000000000000 <_ZNKSt16initializer_listISt6vectorIiSaIiEEE5beginEv>:
   0:	f3 0f 1e fa          	endbr64 
   4:	55                   	push   %rbp
   5:	48 89 e5             	mov    %rsp,%rbp
   8:	48 89 7d f8          	mov    %rdi,-0x8(%rbp)
   c:	48 8b 45 f8          	mov    -0x8(%rbp),%rax
  10:	48 8b 00             	mov    (%rax),%rax
  13:	5d                   	pop    %rbp
  14:	c3                   	ret    

Disassembly of section .text._ZNKSt16initializer_listISt6vectorIiSaIiEEE3endEv:

0000000000000000 <_ZNKSt16initializer_listISt6vectorIiSaIiEEE3endEv>:
   0:	f3 0f 1e fa          	endbr64 
   4:	55                   	push   %rbp
   5:	48 89 e5             	mov    %rsp,%rbp
   8:	53                   	push   %rbx
   9:	48 83 ec 18          	sub    $0x18,%rsp
   d:	48 89 7d e8          	mov    %rdi,-0x18(%rbp)
  11:	48 8b 45 e8          	mov    -0x18(%rbp),%rax
  15:	48 89 c7             	mov    %rax,%rdi
  18:	e8 00 00 00 00       	call   1d <_ZNKSt16initializer_listISt6vectorIiSaIiEEE3endEv+0x1d>
  1d:	48 89 c3             	mov    %rax,%rbx
  20:	48 8b 45 e8          	mov    -0x18(%rbp),%rax
  24:	48 89 c7             	mov    %rax,%rdi
  27:	e8 00 00 00 00       	call   2c <_ZNKSt16initializer_listISt6vectorIiSaIiEEE3endEv+0x2c>
  2c:	48 89 c2             	mov    %rax,%rdx
  2f:	48 89 d0             	mov    %rdx,%rax
  32:	48 01 c0             	add    %rax,%rax
  35:	48 01 d0             	add    %rdx,%rax
  38:	48 c1 e0 03          	shl    $0x3,%rax
  3c:	48 01 d8             	add    %rbx,%rax
  3f:	48 8b 5d f8          	mov    -0x8(%rbp),%rbx
  43:	c9                   	leave  
  44:	c3                   	ret    

Disassembly of section .text._ZSt8distanceIPKSt6vectorIiSaIiEEENSt15iterator_traitsIT_E15difference_typeES6_S6_:

0000000000000000 <_ZSt8distanceIPKSt6vectorIiSaIiEEENSt15iterator_traitsIT_E15difference_typeES6_S6_>:
   0:	f3 0f 1e fa          	endbr64 
   4:	55                   	push   %rbp
   5:	48 89 e5             	mov    %rsp,%rbp
   8:	48 83 ec 10          	sub    $0x10,%rsp
   c:	48 89 7d f8          	mov    %rdi,-0x8(%rbp)
  10:	48 89 75 f0          	mov    %rsi,-0x10(%rbp)
  14:	48 8d 45 f8          	lea    -0x8(%rbp),%rax
  18:	48 89 c7             	mov    %rax,%rdi
  1b:	e8 00 00 00 00       	call   20 <_ZSt8distanceIPKSt6vectorIiSaIiEEENSt15iterator_traitsIT_E15difference_typeES6_S6_+0x20>
  20:	48 8b 45 f8          	mov    -0x8(%rbp),%rax
  24:	48 8b 55 f0          	mov    -0x10(%rbp),%rdx
  28:	48 89 d6             	mov    %rdx,%rsi
  2b:	48 89 c7             	mov    %rax,%rdi
  2e:	e8 00 00 00 00       	call   33 <_ZSt8distanceIPKSt6vectorIiSaIiEEENSt15iterator_traitsIT_E15difference_typeES6_S6_+0x33>
  33:	c9                   	leave  
  34:	c3                   	ret    

Disassembly of section .text._ZNSt6vectorIS_IiSaIiEESaIS1_EE19_M_range_initializeIPKS1_EEvT_S7_St20forward_iterator_tag:

0000000000000000 <_ZNSt6vectorIS_IiSaIiEESaIS1_EE19_M_range_initializeIPKS1_EEvT_S7_St20forward_iterator_tag>:
   0:	f3 0f 1e fa          	endbr64 
   4:	55                   	push   %rbp
   5:	48 89 e5             	mov    %rsp,%rbp
   8:	53                   	push   %rbx
   9:	48 83 ec 38          	sub    $0x38,%rsp
   d:	48 89 7d d8          	mov    %rdi,-0x28(%rbp)
  11:	48 89 75 d0          	mov    %rsi,-0x30(%rbp)
  15:	48 89 55 c8          	mov    %rdx,-0x38(%rbp)
  19:	48 8b 55 c8          	mov    -0x38(%rbp),%rdx
  1d:	48 8b 45 d0          	mov    -0x30(%rbp),%rax
  21:	48 89 d6             	mov    %rdx,%rsi
  24:	48 89 c7             	mov    %rax,%rdi
  27:	e8 00 00 00 00       	call   2c <_ZNSt6vectorIS_IiSaIiEESaIS1_EE19_M_range_initializeIPKS1_EEvT_S7_St20forward_iterator_tag+0x2c>
  2c:	48 89 45 e8          	mov    %rax,-0x18(%rbp)
  30:	48 8b 5d d8          	mov    -0x28(%rbp),%rbx
  34:	48 8b 45 d8          	mov    -0x28(%rbp),%rax
  38:	48 89 c7             	mov    %rax,%rdi
  3b:	e8 00 00 00 00       	call   40 <_ZNSt6vectorIS_IiSaIiEESaIS1_EE19_M_range_initializeIPKS1_EEvT_S7_St20forward_iterator_tag+0x40>
  40:	48 89 c2             	mov    %rax,%rdx
  43:	48 8b 45 e8          	mov    -0x18(%rbp),%rax
  47:	48 89 d6             	mov    %rdx,%rsi
  4a:	48 89 c7             	mov    %rax,%rdi
  4d:	e8 00 00 00 00       	call   52 <_ZNSt6vectorIS_IiSaIiEESaIS1_EE19_M_range_initializeIPKS1_EEvT_S7_St20forward_iterator_tag+0x52>
  52:	48 89 c6             	mov    %rax,%rsi
  55:	48 89 df             	mov    %rbx,%rdi
  58:	e8 00 00 00 00       	call   5d <_ZNSt6vectorIS_IiSaIiEESaIS1_EE19_M_range_initializeIPKS1_EEvT_S7_St20forward_iterator_tag+0x5d>
  5d:	48 8b 55 d8          	mov    -0x28(%rbp),%rdx
  61:	48 89 02             	mov    %rax,(%rdx)
  64:	48 8b 45 d8          	mov    -0x28(%rbp),%rax
  68:	48 8b 08             	mov    (%rax),%rcx
  6b:	48 8b 55 e8          	mov    -0x18(%rbp),%rdx
  6f:	48 89 d0             	mov    %rdx,%rax
  72:	48 01 c0             	add    %rax,%rax
  75:	48 01 d0             	add    %rdx,%rax
  78:	48 c1 e0 03          	shl    $0x3,%rax
  7c:	48 8d 14 01          	lea    (%rcx,%rax,1),%rdx
  80:	48 8b 45 d8          	mov    -0x28(%rbp),%rax
  84:	48 89 50 10          	mov    %rdx,0x10(%rax)
  88:	48 8b 45 d8          	mov    -0x28(%rbp),%rax
  8c:	48 89 c7             	mov    %rax,%rdi
  8f:	e8 00 00 00 00       	call   94 <_ZNSt6vectorIS_IiSaIiEESaIS1_EE19_M_range_initializeIPKS1_EEvT_S7_St20forward_iterator_tag+0x94>
  94:	48 89 c1             	mov    %rax,%rcx
  97:	48 8b 45 d8          	mov    -0x28(%rbp),%rax
  9b:	48 8b 10             	mov    (%rax),%rdx
  9e:	48 8b 75 c8          	mov    -0x38(%rbp),%rsi
  a2:	48 8b 45 d0          	mov    -0x30(%rbp),%rax
  a6:	48 89 c7             	mov    %rax,%rdi
  a9:	e8 00 00 00 00       	call   ae <_ZNSt6vectorIS_IiSaIiEESaIS1_EE19_M_range_initializeIPKS1_EEvT_S7_St20forward_iterator_tag+0xae>
  ae:	48 8b 55 d8          	mov    -0x28(%rbp),%rdx
  b2:	48 89 42 08          	mov    %rax,0x8(%rdx)
  b6:	90                   	nop
  b7:	48 8b 5d f8          	mov    -0x8(%rbp),%rbx
  bb:	c9                   	leave  
  bc:	c3                   	ret    

Disassembly of section .text._ZNSt16allocator_traitsISaIiEE10deallocateERS0_Pim:

0000000000000000 <_ZNSt16allocator_traitsISaIiEE10deallocateERS0_Pim>:
   0:	f3 0f 1e fa          	endbr64 
   4:	55                   	push   %rbp
   5:	48 89 e5             	mov    %rsp,%rbp
   8:	48 83 ec 20          	sub    $0x20,%rsp
   c:	48 89 7d f8          	mov    %rdi,-0x8(%rbp)
  10:	48 89 75 f0          	mov    %rsi,-0x10(%rbp)
  14:	48 89 55 e8          	mov    %rdx,-0x18(%rbp)
  18:	48 8b 55 e8          	mov    -0x18(%rbp),%rdx
  1c:	48 8b 4d f0          	mov    -0x10(%rbp),%rcx
  20:	48 8b 45 f8          	mov    -0x8(%rbp),%rax
  24:	48 89 ce             	mov    %rcx,%rsi
  27:	48 89 c7             	mov    %rax,%rdi
  2a:	e8 00 00 00 00       	call   2f <_ZNSt16allocator_traitsISaIiEE10deallocateERS0_Pim+0x2f>
  2f:	90                   	nop
  30:	c9                   	leave  
  31:	c3                   	ret    

Disassembly of section .text._ZSt8_DestroyIPiEvT_S1_:

0000000000000000 <_ZSt8_DestroyIPiEvT_S1_>:
   0:	f3 0f 1e fa          	endbr64 
   4:	55                   	push   %rbp
   5:	48 89 e5             	mov    %rsp,%rbp
   8:	48 83 ec 10          	sub    $0x10,%rsp
   c:	48 89 7d f8          	mov    %rdi,-0x8(%rbp)
  10:	48 89 75 f0          	mov    %rsi,-0x10(%rbp)
  14:	48 8b 55 f0          	mov    -0x10(%rbp),%rdx
  18:	48 8b 45 f8          	mov    -0x8(%rbp),%rax
  1c:	48 89 d6             	mov    %rdx,%rsi
  1f:	48 89 c7             	mov    %rax,%rdi
  22:	e8 00 00 00 00       	call   27 <_ZSt8_DestroyIPiEvT_S1_+0x27>
  27:	90                   	nop
  28:	c9                   	leave  
  29:	c3                   	ret    

Disassembly of section .text._ZSt7forwardIRKiEOT_RNSt16remove_referenceIS2_E4typeE:

0000000000000000 <_ZSt7forwardIRKiEOT_RNSt16remove_referenceIS2_E4typeE>:
   0:	f3 0f 1e fa          	endbr64 
   4:	55                   	push   %rbp
   5:	48 89 e5             	mov    %rsp,%rbp
   8:	48 89 7d f8          	mov    %rdi,-0x8(%rbp)
   c:	48 8b 45 f8          	mov    -0x8(%rbp),%rax
  10:	5d                   	pop    %rbp
  11:	c3                   	ret    

Disassembly of section .text._ZN9__gnu_cxx13new_allocatorIiE9constructIiJRKiEEEvPT_DpOT0_:

0000000000000000 <_ZN9__gnu_cxx13new_allocatorIiE9constructIiJRKiEEEvPT_DpOT0_>:
   0:	f3 0f 1e fa          	endbr64 
   4:	55                   	push   %rbp
   5:	48 89 e5             	mov    %rsp,%rbp
   8:	53                   	push   %rbx
   9:	48 83 ec 28          	sub    $0x28,%rsp
   d:	48 89 7d e8          	mov    %rdi,-0x18(%rbp)
  11:	48 89 75 e0          	mov    %rsi,-0x20(%rbp)
  15:	48 89 55 d8          	mov    %rdx,-0x28(%rbp)
  19:	48 8b 45 d8          	mov    -0x28(%rbp),%rax
  1d:	48 89 c7             	mov    %rax,%rdi
  20:	e8 00 00 00 00       	call   25 <_ZN9__gnu_cxx13new_allocatorIiE9constructIiJRKiEEEvPT_DpOT0_+0x25>
  25:	8b 18                	mov    (%rax),%ebx
  27:	48 8b 45 e0          	mov    -0x20(%rbp),%rax
  2b:	48 89 c6             	mov    %rax,%rsi
  2e:	bf 04 00 00 00       	mov    $0x4,%edi
  33:	e8 00 00 00 00       	call   38 <_ZN9__gnu_cxx13new_allocatorIiE9constructIiJRKiEEEvPT_DpOT0_+0x38>
  38:	89 18                	mov    %ebx,(%rax)
  3a:	90                   	nop
  3b:	48 8b 5d f8          	mov    -0x8(%rbp),%rbx
  3f:	c9                   	leave  
  40:	c3                   	ret    

Disassembly of section .text._ZNKSt6vectorIiSaIiEE12_M_check_lenEmPKc:

0000000000000000 <_ZNKSt6vectorIiSaIiEE12_M_check_lenEmPKc>:
   0:	f3 0f 1e fa          	endbr64 
   4:	55                   	push   %rbp
   5:	48 89 e5             	mov    %rsp,%rbp
   8:	53                   	push   %rbx
   9:	48 83 ec 48          	sub    $0x48,%rsp
   d:	48 89 7d c8          	mov    %rdi,-0x38(%rbp)
  11:	48 89 75 c0          	mov    %rsi,-0x40(%rbp)
  15:	48 89 55 b8          	mov    %rdx,-0x48(%rbp)
  19:	64 48 8b 04 25 28 00 	mov    %fs:0x28,%rax
  20:	00 00 
  22:	48 89 45 e8          	mov    %rax,-0x18(%rbp)
  26:	31 c0                	xor    %eax,%eax
  28:	48 8b 45 c8          	mov    -0x38(%rbp),%rax
  2c:	48 89 c7             	mov    %rax,%rdi
  2f:	e8 00 00 00 00       	call   34 <_ZNKSt6vectorIiSaIiEE12_M_check_lenEmPKc+0x34>
  34:	48 89 c3             	mov    %rax,%rbx
  37:	48 8b 45 c8          	mov    -0x38(%rbp),%rax
  3b:	48 89 c7             	mov    %rax,%rdi
  3e:	e8 00 00 00 00       	call   43 <_ZNKSt6vectorIiSaIiEE12_M_check_lenEmPKc+0x43>
  43:	48 29 c3             	sub    %rax,%rbx
  46:	48 89 da             	mov    %rbx,%rdx
  49:	48 8b 45 c0          	mov    -0x40(%rbp),%rax
  4d:	48 39 c2             	cmp    %rax,%rdx
  50:	0f 92 c0             	setb   %al
  53:	84 c0                	test   %al,%al
  55:	74 0c                	je     63 <_ZNKSt6vectorIiSaIiEE12_M_check_lenEmPKc+0x63>
  57:	48 8b 45 b8          	mov    -0x48(%rbp),%rax
  5b:	48 89 c7             	mov    %rax,%rdi
  5e:	e8 00 00 00 00       	call   63 <_ZNKSt6vectorIiSaIiEE12_M_check_lenEmPKc+0x63>
  63:	48 8b 45 c8          	mov    -0x38(%rbp),%rax
  67:	48 89 c7             	mov    %rax,%rdi
  6a:	e8 00 00 00 00       	call   6f <_ZNKSt6vectorIiSaIiEE12_M_check_lenEmPKc+0x6f>
  6f:	48 89 c3             	mov    %rax,%rbx
  72:	48 8b 45 c8          	mov    -0x38(%rbp),%rax
  76:	48 89 c7             	mov    %rax,%rdi
  79:	e8 00 00 00 00       	call   7e <_ZNKSt6vectorIiSaIiEE12_M_check_lenEmPKc+0x7e>
  7e:	48 89 45 d8          	mov    %rax,-0x28(%rbp)
  82:	48 8d 55 c0          	lea    -0x40(%rbp),%rdx
  86:	48 8d 45 d8          	lea    -0x28(%rbp),%rax
  8a:	48 89 d6             	mov    %rdx,%rsi
  8d:	48 89 c7             	mov    %rax,%rdi
  90:	e8 00 00 00 00       	call   95 <_ZNKSt6vectorIiSaIiEE12_M_check_lenEmPKc+0x95>
  95:	48 8b 00             	mov    (%rax),%rax
  98:	48 01 d8             	add    %rbx,%rax
  9b:	48 89 45 e0          	mov    %rax,-0x20(%rbp)
  9f:	48 8b 45 c8          	mov    -0x38(%rbp),%rax
  a3:	48 89 c7             	mov    %rax,%rdi
  a6:	e8 00 00 00 00       	call   ab <_ZNKSt6vectorIiSaIiEE12_M_check_lenEmPKc+0xab>
  ab:	48 39 45 e0          	cmp    %rax,-0x20(%rbp)
  af:	72 12                	jb     c3 <_ZNKSt6vectorIiSaIiEE12_M_check_lenEmPKc+0xc3>
  b1:	48 8b 45 c8          	mov    -0x38(%rbp),%rax
  b5:	48 89 c7             	mov    %rax,%rdi
  b8:	e8 00 00 00 00       	call   bd <_ZNKSt6vectorIiSaIiEE12_M_check_lenEmPKc+0xbd>
  bd:	48 39 45 e0          	cmp    %rax,-0x20(%rbp)
  c1:	76 0e                	jbe    d1 <_ZNKSt6vectorIiSaIiEE12_M_check_lenEmPKc+0xd1>
  c3:	48 8b 45 c8          	mov    -0x38(%rbp),%rax
  c7:	48 89 c7             	mov    %rax,%rdi
  ca:	e8 00 00 00 00       	call   cf <_ZNKSt6vectorIiSaIiEE12_M_check_lenEmPKc+0xcf>
  cf:	eb 04                	jmp    d5 <_ZNKSt6vectorIiSaIiEE12_M_check_lenEmPKc+0xd5>
  d1:	48 8b 45 e0          	mov    -0x20(%rbp),%rax
  d5:	48 8b 55 e8          	mov    -0x18(%rbp),%rdx
  d9:	64 48 2b 14 25 28 00 	sub    %fs:0x28,%rdx
  e0:	00 00 
  e2:	74 05                	je     e9 <_ZNKSt6vectorIiSaIiEE12_M_check_lenEmPKc+0xe9>
  e4:	e8 00 00 00 00       	call   e9 <_ZNKSt6vectorIiSaIiEE12_M_check_lenEmPKc+0xe9>
  e9:	48 8b 5d f8          	mov    -0x8(%rbp),%rbx
  ed:	c9                   	leave  
  ee:	c3                   	ret    

Disassembly of section .text._ZNSt12_Vector_baseIiSaIiEE11_M_allocateEm:

0000000000000000 <_ZNSt12_Vector_baseIiSaIiEE11_M_allocateEm>:
   0:	f3 0f 1e fa          	endbr64 
   4:	55                   	push   %rbp
   5:	48 89 e5             	mov    %rsp,%rbp
   8:	48 83 ec 10          	sub    $0x10,%rsp
   c:	48 89 7d f8          	mov    %rdi,-0x8(%rbp)
  10:	48 89 75 f0          	mov    %rsi,-0x10(%rbp)
  14:	48 83 7d f0 00       	cmpq   $0x0,-0x10(%rbp)
  19:	74 15                	je     30 <_ZNSt12_Vector_baseIiSaIiEE11_M_allocateEm+0x30>
  1b:	48 8b 45 f8          	mov    -0x8(%rbp),%rax
  1f:	48 8b 55 f0          	mov    -0x10(%rbp),%rdx
  23:	48 89 d6             	mov    %rdx,%rsi
  26:	48 89 c7             	mov    %rax,%rdi
  29:	e8 00 00 00 00       	call   2e <_ZNSt12_Vector_baseIiSaIiEE11_M_allocateEm+0x2e>
  2e:	eb 05                	jmp    35 <_ZNSt12_Vector_baseIiSaIiEE11_M_allocateEm+0x35>
  30:	b8 00 00 00 00       	mov    $0x0,%eax
  35:	c9                   	leave  
  36:	c3                   	ret    

Disassembly of section .text._ZNSt6vectorIiSaIiEE11_S_relocateEPiS2_S2_RS0_:

0000000000000000 <_ZNSt6vectorIiSaIiEE11_S_relocateEPiS2_S2_RS0_>:
   0:	f3 0f 1e fa          	endbr64 
   4:	55                   	push   %rbp
   5:	48 89 e5             	mov    %rsp,%rbp
   8:	48 83 ec 20          	sub    $0x20,%rsp
   c:	48 89 7d f8          	mov    %rdi,-0x8(%rbp)
  10:	48 89 75 f0          	mov    %rsi,-0x10(%rbp)
  14:	48 89 55 e8          	mov    %rdx,-0x18(%rbp)
  18:	48 89 4d e0          	mov    %rcx,-0x20(%rbp)
  1c:	48 8b 4d e0          	mov    -0x20(%rbp),%rcx
  20:	48 8b 55 e8          	mov    -0x18(%rbp),%rdx
  24:	48 8b 75 f0          	mov    -0x10(%rbp),%rsi
  28:	48 8b 45 f8          	mov    -0x8(%rbp),%rax
  2c:	48 89 c7             	mov    %rax,%rdi
  2f:	e8 00 00 00 00       	call   34 <_ZNSt6vectorIiSaIiEE11_S_relocateEPiS2_S2_RS0_+0x34>
  34:	c9                   	leave  
  35:	c3                   	ret    

Disassembly of section .text._ZN9__gnu_cxx13new_allocatorI4HeapEC2Ev:

0000000000000000 <_ZN9__gnu_cxx13new_allocatorI4HeapEC1Ev>:
   0:	f3 0f 1e fa          	endbr64 
   4:	55                   	push   %rbp
   5:	48 89 e5             	mov    %rsp,%rbp
   8:	48 89 7d f8          	mov    %rdi,-0x8(%rbp)
   c:	90                   	nop
   d:	5d                   	pop    %rbp
   e:	c3                   	ret    

Disassembly of section .text._ZNSt16allocator_traitsISaI4HeapEE10deallocateERS1_PS0_m:

0000000000000000 <_ZNSt16allocator_traitsISaI4HeapEE10deallocateERS1_PS0_m>:
   0:	f3 0f 1e fa          	endbr64 
   4:	55                   	push   %rbp
   5:	48 89 e5             	mov    %rsp,%rbp
   8:	48 83 ec 20          	sub    $0x20,%rsp
   c:	48 89 7d f8          	mov    %rdi,-0x8(%rbp)
  10:	48 89 75 f0          	mov    %rsi,-0x10(%rbp)
  14:	48 89 55 e8          	mov    %rdx,-0x18(%rbp)
  18:	48 8b 55 e8          	mov    -0x18(%rbp),%rdx
  1c:	48 8b 4d f0          	mov    -0x10(%rbp),%rcx
  20:	48 8b 45 f8          	mov    -0x8(%rbp),%rax
  24:	48 89 ce             	mov    %rcx,%rsi
  27:	48 89 c7             	mov    %rax,%rdi
  2a:	e8 00 00 00 00       	call   2f <_ZNSt16allocator_traitsISaI4HeapEE10deallocateERS1_PS0_m+0x2f>
  2f:	90                   	nop
  30:	c9                   	leave  
  31:	c3                   	ret    

Disassembly of section .text._ZSt8_DestroyIP4HeapEvT_S2_:

0000000000000000 <_ZSt8_DestroyIP4HeapEvT_S2_>:
   0:	f3 0f 1e fa          	endbr64 
   4:	55                   	push   %rbp
   5:	48 89 e5             	mov    %rsp,%rbp
   8:	48 83 ec 10          	sub    $0x10,%rsp
   c:	48 89 7d f8          	mov    %rdi,-0x8(%rbp)
  10:	48 89 75 f0          	mov    %rsi,-0x10(%rbp)
  14:	48 8b 55 f0          	mov    -0x10(%rbp),%rdx
  18:	48 8b 45 f8          	mov    -0x8(%rbp),%rax
  1c:	48 89 d6             	mov    %rdx,%rsi
  1f:	48 89 c7             	mov    %rax,%rdi
  22:	e8 00 00 00 00       	call   27 <_ZSt8_DestroyIP4HeapEvT_S2_+0x27>
  27:	90                   	nop
  28:	c9                   	leave  
  29:	c3                   	ret    

Disassembly of section .text._ZSt7forwardIRK4HeapEOT_RNSt16remove_referenceIS3_E4typeE:

0000000000000000 <_ZSt7forwardIRK4HeapEOT_RNSt16remove_referenceIS3_E4typeE>:
   0:	f3 0f 1e fa          	endbr64 
   4:	55                   	push   %rbp
   5:	48 89 e5             	mov    %rsp,%rbp
   8:	48 89 7d f8          	mov    %rdi,-0x8(%rbp)
   c:	48 8b 45 f8          	mov    -0x8(%rbp),%rax
  10:	5d                   	pop    %rbp
  11:	c3                   	ret    

Disassembly of section .text._ZN4HeapC2ERKS_:

0000000000000000 <_ZN4HeapC1ERKS_>:
   0:	f3 0f 1e fa          	endbr64 
   4:	55                   	push   %rbp
   5:	48 89 e5             	mov    %rsp,%rbp
   8:	48 83 ec 10          	sub    $0x10,%rsp
   c:	48 89 7d f8          	mov    %rdi,-0x8(%rbp)
  10:	48 89 75 f0          	mov    %rsi,-0x10(%rbp)
  14:	48 8b 45 f8          	mov    -0x8(%rbp),%rax
  18:	48 8b 55 f0          	mov    -0x10(%rbp),%rdx
  1c:	48 89 d6             	mov    %rdx,%rsi
  1f:	48 89 c7             	mov    %rax,%rdi
  22:	e8 00 00 00 00       	call   27 <_ZN4HeapC1ERKS_+0x27>
  27:	48 8b 45 f0          	mov    -0x10(%rbp),%rax
  2b:	8b 50 18             	mov    0x18(%rax),%edx
  2e:	48 8b 45 f8          	mov    -0x8(%rbp),%rax
  32:	89 50 18             	mov    %edx,0x18(%rax)
  35:	48 8b 45 f0          	mov    -0x10(%rbp),%rax
  39:	8b 50 1c             	mov    0x1c(%rax),%edx
  3c:	48 8b 45 f8          	mov    -0x8(%rbp),%rax
  40:	89 50 1c             	mov    %edx,0x1c(%rax)
  43:	90                   	nop
  44:	c9                   	leave  
  45:	c3                   	ret    

Disassembly of section .text._ZN9__gnu_cxx13new_allocatorI4HeapE9constructIS1_JRKS1_EEEvPT_DpOT0_:

0000000000000000 <_ZN9__gnu_cxx13new_allocatorI4HeapE9constructIS1_JRKS1_EEEvPT_DpOT0_>:
   0:	f3 0f 1e fa          	endbr64 
   4:	55                   	push   %rbp
   5:	48 89 e5             	mov    %rsp,%rbp
   8:	41 55                	push   %r13
   a:	41 54                	push   %r12
   c:	53                   	push   %rbx
   d:	48 83 ec 28          	sub    $0x28,%rsp
  11:	48 89 7d d8          	mov    %rdi,-0x28(%rbp)
  15:	48 89 75 d0          	mov    %rsi,-0x30(%rbp)
  19:	48 89 55 c8          	mov    %rdx,-0x38(%rbp)
  1d:	48 8b 45 c8          	mov    -0x38(%rbp),%rax
  21:	48 89 c7             	mov    %rax,%rdi
  24:	e8 00 00 00 00       	call   29 <_ZN9__gnu_cxx13new_allocatorI4HeapE9constructIS1_JRKS1_EEEvPT_DpOT0_+0x29>
  29:	49 89 c5             	mov    %rax,%r13
  2c:	48 8b 5d d0          	mov    -0x30(%rbp),%rbx
  30:	48 89 de             	mov    %rbx,%rsi
  33:	bf 20 00 00 00       	mov    $0x20,%edi
  38:	e8 00 00 00 00       	call   3d <_ZN9__gnu_cxx13new_allocatorI4HeapE9constructIS1_JRKS1_EEEvPT_DpOT0_+0x3d>
  3d:	49 89 c4             	mov    %rax,%r12
  40:	4c 89 ee             	mov    %r13,%rsi
  43:	4c 89 e7             	mov    %r12,%rdi
  46:	e8 00 00 00 00       	call   4b <_ZN9__gnu_cxx13new_allocatorI4HeapE9constructIS1_JRKS1_EEEvPT_DpOT0_+0x4b>
  4b:	eb 1d                	jmp    6a <_ZN9__gnu_cxx13new_allocatorI4HeapE9constructIS1_JRKS1_EEEvPT_DpOT0_+0x6a>
  4d:	f3 0f 1e fa          	endbr64 
  51:	49 89 c5             	mov    %rax,%r13
  54:	48 89 de             	mov    %rbx,%rsi
  57:	4c 89 e7             	mov    %r12,%rdi
  5a:	e8 00 00 00 00       	call   5f <_ZN9__gnu_cxx13new_allocatorI4HeapE9constructIS1_JRKS1_EEEvPT_DpOT0_+0x5f>
  5f:	4c 89 e8             	mov    %r13,%rax
  62:	48 89 c7             	mov    %rax,%rdi
  65:	e8 00 00 00 00       	call   6a <_ZN9__gnu_cxx13new_allocatorI4HeapE9constructIS1_JRKS1_EEEvPT_DpOT0_+0x6a>
  6a:	48 83 c4 28          	add    $0x28,%rsp
  6e:	5b                   	pop    %rbx
  6f:	41 5c                	pop    %r12
  71:	41 5d                	pop    %r13
  73:	5d                   	pop    %rbp
  74:	c3                   	ret    

Disassembly of section .text._ZNKSt6vectorI4HeapSaIS0_EE12_M_check_lenEmPKc:

0000000000000000 <_ZNKSt6vectorI4HeapSaIS0_EE12_M_check_lenEmPKc>:
   0:	f3 0f 1e fa          	endbr64 
   4:	55                   	push   %rbp
   5:	48 89 e5             	mov    %rsp,%rbp
   8:	53                   	push   %rbx
   9:	48 83 ec 48          	sub    $0x48,%rsp
   d:	48 89 7d c8          	mov    %rdi,-0x38(%rbp)
  11:	48 89 75 c0          	mov    %rsi,-0x40(%rbp)
  15:	48 89 55 b8          	mov    %rdx,-0x48(%rbp)
  19:	64 48 8b 04 25 28 00 	mov    %fs:0x28,%rax
  20:	00 00 
  22:	48 89 45 e8          	mov    %rax,-0x18(%rbp)
  26:	31 c0                	xor    %eax,%eax
  28:	48 8b 45 c8          	mov    -0x38(%rbp),%rax
  2c:	48 89 c7             	mov    %rax,%rdi
  2f:	e8 00 00 00 00       	call   34 <_ZNKSt6vectorI4HeapSaIS0_EE12_M_check_lenEmPKc+0x34>
  34:	48 89 c3             	mov    %rax,%rbx
  37:	48 8b 45 c8          	mov    -0x38(%rbp),%rax
  3b:	48 89 c7             	mov    %rax,%rdi
  3e:	e8 00 00 00 00       	call   43 <_ZNKSt6vectorI4HeapSaIS0_EE12_M_check_lenEmPKc+0x43>
  43:	48 29 c3             	sub    %rax,%rbx
  46:	48 89 da             	mov    %rbx,%rdx
  49:	48 8b 45 c0          	mov    -0x40(%rbp),%rax
  4d:	48 39 c2             	cmp    %rax,%rdx
  50:	0f 92 c0             	setb   %al
  53:	84 c0                	test   %al,%al
  55:	74 0c                	je     63 <_ZNKSt6vectorI4HeapSaIS0_EE12_M_check_lenEmPKc+0x63>
  57:	48 8b 45 b8          	mov    -0x48(%rbp),%rax
  5b:	48 89 c7             	mov    %rax,%rdi
  5e:	e8 00 00 00 00       	call   63 <_ZNKSt6vectorI4HeapSaIS0_EE12_M_check_lenEmPKc+0x63>
  63:	48 8b 45 c8          	mov    -0x38(%rbp),%rax
  67:	48 89 c7             	mov    %rax,%rdi
  6a:	e8 00 00 00 00       	call   6f <_ZNKSt6vectorI4HeapSaIS0_EE12_M_check_lenEmPKc+0x6f>
  6f:	48 89 c3             	mov    %rax,%rbx
  72:	48 8b 45 c8          	mov    -0x38(%rbp),%rax
  76:	48 89 c7             	mov    %rax,%rdi
  79:	e8 00 00 00 00       	call   7e <_ZNKSt6vectorI4HeapSaIS0_EE12_M_check_lenEmPKc+0x7e>
  7e:	48 89 45 d8          	mov    %rax,-0x28(%rbp)
  82:	48 8d 55 c0          	lea    -0x40(%rbp),%rdx
  86:	48 8d 45 d8          	lea    -0x28(%rbp),%rax
  8a:	48 89 d6             	mov    %rdx,%rsi
  8d:	48 89 c7             	mov    %rax,%rdi
  90:	e8 00 00 00 00       	call   95 <_ZNKSt6vectorI4HeapSaIS0_EE12_M_check_lenEmPKc+0x95>
  95:	48 8b 00             	mov    (%rax),%rax
  98:	48 01 d8             	add    %rbx,%rax
  9b:	48 89 45 e0          	mov    %rax,-0x20(%rbp)
  9f:	48 8b 45 c8          	mov    -0x38(%rbp),%rax
  a3:	48 89 c7             	mov    %rax,%rdi
  a6:	e8 00 00 00 00       	call   ab <_ZNKSt6vectorI4HeapSaIS0_EE12_M_check_lenEmPKc+0xab>
  ab:	48 39 45 e0          	cmp    %rax,-0x20(%rbp)
  af:	72 12                	jb     c3 <_ZNKSt6vectorI4HeapSaIS0_EE12_M_check_lenEmPKc+0xc3>
  b1:	48 8b 45 c8          	mov    -0x38(%rbp),%rax
  b5:	48 89 c7             	mov    %rax,%rdi
  b8:	e8 00 00 00 00       	call   bd <_ZNKSt6vectorI4HeapSaIS0_EE12_M_check_lenEmPKc+0xbd>
  bd:	48 39 45 e0          	cmp    %rax,-0x20(%rbp)
  c1:	76 0e                	jbe    d1 <_ZNKSt6vectorI4HeapSaIS0_EE12_M_check_lenEmPKc+0xd1>
  c3:	48 8b 45 c8          	mov    -0x38(%rbp),%rax
  c7:	48 89 c7             	mov    %rax,%rdi
  ca:	e8 00 00 00 00       	call   cf <_ZNKSt6vectorI4HeapSaIS0_EE12_M_check_lenEmPKc+0xcf>
  cf:	eb 04                	jmp    d5 <_ZNKSt6vectorI4HeapSaIS0_EE12_M_check_lenEmPKc+0xd5>
  d1:	48 8b 45 e0          	mov    -0x20(%rbp),%rax
  d5:	48 8b 55 e8          	mov    -0x18(%rbp),%rdx
  d9:	64 48 2b 14 25 28 00 	sub    %fs:0x28,%rdx
  e0:	00 00 
  e2:	74 05                	je     e9 <_ZNKSt6vectorI4HeapSaIS0_EE12_M_check_lenEmPKc+0xe9>
  e4:	e8 00 00 00 00       	call   e9 <_ZNKSt6vectorI4HeapSaIS0_EE12_M_check_lenEmPKc+0xe9>
  e9:	48 8b 5d f8          	mov    -0x8(%rbp),%rbx
  ed:	c9                   	leave  
  ee:	c3                   	ret    

Disassembly of section .text._ZN9__gnu_cxxmiIP4HeapSt6vectorIS1_SaIS1_EEEENS_17__normal_iteratorIT_T0_E15difference_typeERKS9_SC_:

0000000000000000 <_ZN9__gnu_cxxmiIP4HeapSt6vectorIS1_SaIS1_EEEENS_17__normal_iteratorIT_T0_E15difference_typeERKS9_SC_>:
   0:	f3 0f 1e fa          	endbr64 
   4:	55                   	push   %rbp
   5:	48 89 e5             	mov    %rsp,%rbp
   8:	53                   	push   %rbx
   9:	48 83 ec 18          	sub    $0x18,%rsp
   d:	48 89 7d e8          	mov    %rdi,-0x18(%rbp)
  11:	48 89 75 e0          	mov    %rsi,-0x20(%rbp)
  15:	48 8b 45 e8          	mov    -0x18(%rbp),%rax
  19:	48 89 c7             	mov    %rax,%rdi
  1c:	e8 00 00 00 00       	call   21 <_ZN9__gnu_cxxmiIP4HeapSt6vectorIS1_SaIS1_EEEENS_17__normal_iteratorIT_T0_E15difference_typeERKS9_SC_+0x21>
  21:	48 8b 18             	mov    (%rax),%rbx
  24:	48 8b 45 e0          	mov    -0x20(%rbp),%rax
  28:	48 89 c7             	mov    %rax,%rdi
  2b:	e8 00 00 00 00       	call   30 <_ZN9__gnu_cxxmiIP4HeapSt6vectorIS1_SaIS1_EEEENS_17__normal_iteratorIT_T0_E15difference_typeERKS9_SC_+0x30>
  30:	48 8b 10             	mov    (%rax),%rdx
  33:	48 89 d8             	mov    %rbx,%rax
  36:	48 29 d0             	sub    %rdx,%rax
  39:	48 c1 f8 05          	sar    $0x5,%rax
  3d:	48 8b 5d f8          	mov    -0x8(%rbp),%rbx
  41:	c9                   	leave  
  42:	c3                   	ret    

Disassembly of section .text._ZNSt12_Vector_baseI4HeapSaIS0_EE11_M_allocateEm:

0000000000000000 <_ZNSt12_Vector_baseI4HeapSaIS0_EE11_M_allocateEm>:
   0:	f3 0f 1e fa          	endbr64 
   4:	55                   	push   %rbp
   5:	48 89 e5             	mov    %rsp,%rbp
   8:	48 83 ec 10          	sub    $0x10,%rsp
   c:	48 89 7d f8          	mov    %rdi,-0x8(%rbp)
  10:	48 89 75 f0          	mov    %rsi,-0x10(%rbp)
  14:	48 83 7d f0 00       	cmpq   $0x0,-0x10(%rbp)
  19:	74 15                	je     30 <_ZNSt12_Vector_baseI4HeapSaIS0_EE11_M_allocateEm+0x30>
  1b:	48 8b 45 f8          	mov    -0x8(%rbp),%rax
  1f:	48 8b 55 f0          	mov    -0x10(%rbp),%rdx
  23:	48 89 d6             	mov    %rdx,%rsi
  26:	48 89 c7             	mov    %rax,%rdi
  29:	e8 00 00 00 00       	call   2e <_ZNSt12_Vector_baseI4HeapSaIS0_EE11_M_allocateEm+0x2e>
  2e:	eb 05                	jmp    35 <_ZNSt12_Vector_baseI4HeapSaIS0_EE11_M_allocateEm+0x35>
  30:	b8 00 00 00 00       	mov    $0x0,%eax
  35:	c9                   	leave  
  36:	c3                   	ret    

Disassembly of section .text._ZNSt6vectorI4HeapSaIS0_EE11_S_relocateEPS0_S3_S3_RS1_:

0000000000000000 <_ZNSt6vectorI4HeapSaIS0_EE11_S_relocateEPS0_S3_S3_RS1_>:
   0:	f3 0f 1e fa          	endbr64 
   4:	55                   	push   %rbp
   5:	48 89 e5             	mov    %rsp,%rbp
   8:	48 83 ec 20          	sub    $0x20,%rsp
   c:	48 89 7d f8          	mov    %rdi,-0x8(%rbp)
  10:	48 89 75 f0          	mov    %rsi,-0x10(%rbp)
  14:	48 89 55 e8          	mov    %rdx,-0x18(%rbp)
  18:	48 89 4d e0          	mov    %rcx,-0x20(%rbp)
  1c:	48 8b 4d e0          	mov    -0x20(%rbp),%rcx
  20:	48 8b 55 e8          	mov    -0x18(%rbp),%rdx
  24:	48 8b 75 f0          	mov    -0x10(%rbp),%rsi
  28:	48 8b 45 f8          	mov    -0x8(%rbp),%rax
  2c:	48 89 c7             	mov    %rax,%rdi
  2f:	e8 00 00 00 00       	call   34 <_ZNSt6vectorI4HeapSaIS0_EE11_S_relocateEPS0_S3_S3_RS1_+0x34>
  34:	c9                   	leave  
  35:	c3                   	ret    

Disassembly of section .text._ZNSt16allocator_traitsISaI4HeapEE7destroyIS0_EEvRS1_PT_:

0000000000000000 <_ZNSt16allocator_traitsISaI4HeapEE7destroyIS0_EEvRS1_PT_>:
   0:	f3 0f 1e fa          	endbr64 
   4:	55                   	push   %rbp
   5:	48 89 e5             	mov    %rsp,%rbp
   8:	48 83 ec 10          	sub    $0x10,%rsp
   c:	48 89 7d f8          	mov    %rdi,-0x8(%rbp)
  10:	48 89 75 f0          	mov    %rsi,-0x10(%rbp)
  14:	48 8b 55 f0          	mov    -0x10(%rbp),%rdx
  18:	48 8b 45 f8          	mov    -0x8(%rbp),%rax
  1c:	48 89 d6             	mov    %rdx,%rsi
  1f:	48 89 c7             	mov    %rax,%rdi
  22:	e8 00 00 00 00       	call   27 <_ZNSt16allocator_traitsISaI4HeapEE7destroyIS0_EEvRS1_PT_+0x27>
  27:	90                   	nop
  28:	c9                   	leave  
  29:	c3                   	ret    

Disassembly of section .text._ZNSt16allocator_traitsISaIiEE9constructIiJiEEEvRS0_PT_DpOT0_:

0000000000000000 <_ZNSt16allocator_traitsISaIiEE9constructIiJiEEEvRS0_PT_DpOT0_>:
   0:	f3 0f 1e fa          	endbr64 
   4:	55                   	push   %rbp
   5:	48 89 e5             	mov    %rsp,%rbp
   8:	48 83 ec 20          	sub    $0x20,%rsp
   c:	48 89 7d f8          	mov    %rdi,-0x8(%rbp)
  10:	48 89 75 f0          	mov    %rsi,-0x10(%rbp)
  14:	48 89 55 e8          	mov    %rdx,-0x18(%rbp)
  18:	48 8b 45 e8          	mov    -0x18(%rbp),%rax
  1c:	48 89 c7             	mov    %rax,%rdi
  1f:	e8 00 00 00 00       	call   24 <_ZNSt16allocator_traitsISaIiEE9constructIiJiEEEvRS0_PT_DpOT0_+0x24>
  24:	48 89 c2             	mov    %rax,%rdx
  27:	48 8b 4d f0          	mov    -0x10(%rbp),%rcx
  2b:	48 8b 45 f8          	mov    -0x8(%rbp),%rax
  2f:	48 89 ce             	mov    %rcx,%rsi
  32:	48 89 c7             	mov    %rax,%rdi
  35:	e8 00 00 00 00       	call   3a <_ZNSt16allocator_traitsISaIiEE9constructIiJiEEEvRS0_PT_DpOT0_+0x3a>
  3a:	90                   	nop
  3b:	c9                   	leave  
  3c:	c3                   	ret    

Disassembly of section .text._ZNSt6vectorIiSaIiEE17_M_realloc_insertIJiEEEvN9__gnu_cxx17__normal_iteratorIPiS1_EEDpOT_:

0000000000000000 <_ZNSt6vectorIiSaIiEE17_M_realloc_insertIJiEEEvN9__gnu_cxx17__normal_iteratorIPiS1_EEDpOT_>:
   0:	f3 0f 1e fa          	endbr64 
   4:	55                   	push   %rbp
   5:	48 89 e5             	mov    %rsp,%rbp
   8:	53                   	push   %rbx
   9:	48 83 ec 68          	sub    $0x68,%rsp
   d:	48 89 7d a8          	mov    %rdi,-0x58(%rbp)
  11:	48 89 75 a0          	mov    %rsi,-0x60(%rbp)
  15:	48 89 55 98          	mov    %rdx,-0x68(%rbp)
  19:	64 48 8b 04 25 28 00 	mov    %fs:0x28,%rax
  20:	00 00 
  22:	48 89 45 e8          	mov    %rax,-0x18(%rbp)
  26:	31 c0                	xor    %eax,%eax
  28:	48 8b 45 a8          	mov    -0x58(%rbp),%rax
  2c:	48 8d 15 00 00 00 00 	lea    0x0(%rip),%rdx        # 33 <_ZNSt6vectorIiSaIiEE17_M_realloc_insertIJiEEEvN9__gnu_cxx17__normal_iteratorIPiS1_EEDpOT_+0x33>
  33:	be 01 00 00 00       	mov    $0x1,%esi
  38:	48 89 c7             	mov    %rax,%rdi
  3b:	e8 00 00 00 00       	call   40 <_ZNSt6vectorIiSaIiEE17_M_realloc_insertIJiEEEvN9__gnu_cxx17__normal_iteratorIPiS1_EEDpOT_+0x40>
  40:	48 89 45 b8          	mov    %rax,-0x48(%rbp)
  44:	48 8b 45 a8          	mov    -0x58(%rbp),%rax
  48:	48 8b 00             	mov    (%rax),%rax
  4b:	48 89 45 c0          	mov    %rax,-0x40(%rbp)
  4f:	48 8b 45 a8          	mov    -0x58(%rbp),%rax
  53:	48 8b 40 08          	mov    0x8(%rax),%rax
  57:	48 89 45 c8          	mov    %rax,-0x38(%rbp)
  5b:	48 8b 45 a8          	mov    -0x58(%rbp),%rax
  5f:	48 89 c7             	mov    %rax,%rdi
  62:	e8 00 00 00 00       	call   67 <_ZNSt6vectorIiSaIiEE17_M_realloc_insertIJiEEEvN9__gnu_cxx17__normal_iteratorIPiS1_EEDpOT_+0x67>
  67:	48 89 45 b0          	mov    %rax,-0x50(%rbp)
  6b:	48 8d 55 b0          	lea    -0x50(%rbp),%rdx
  6f:	48 8d 45 a0          	lea    -0x60(%rbp),%rax
  73:	48 89 d6             	mov    %rdx,%rsi
  76:	48 89 c7             	mov    %rax,%rdi
  79:	e8 00 00 00 00       	call   7e <_ZNSt6vectorIiSaIiEE17_M_realloc_insertIJiEEEvN9__gnu_cxx17__normal_iteratorIPiS1_EEDpOT_+0x7e>
  7e:	48 89 45 d0          	mov    %rax,-0x30(%rbp)
  82:	48 8b 45 a8          	mov    -0x58(%rbp),%rax
  86:	48 8b 55 b8          	mov    -0x48(%rbp),%rdx
  8a:	48 89 d6             	mov    %rdx,%rsi
  8d:	48 89 c7             	mov    %rax,%rdi
  90:	e8 00 00 00 00       	call   95 <_ZNSt6vectorIiSaIiEE17_M_realloc_insertIJiEEEvN9__gnu_cxx17__normal_iteratorIPiS1_EEDpOT_+0x95>
  95:	48 89 45 d8          	mov    %rax,-0x28(%rbp)
  99:	48 8b 45 d8          	mov    -0x28(%rbp),%rax
  9d:	48 89 45 e0          	mov    %rax,-0x20(%rbp)
  a1:	48 8b 45 98          	mov    -0x68(%rbp),%rax
  a5:	48 89 c7             	mov    %rax,%rdi
  a8:	e8 00 00 00 00       	call   ad <_ZNSt6vectorIiSaIiEE17_M_realloc_insertIJiEEEvN9__gnu_cxx17__normal_iteratorIPiS1_EEDpOT_+0xad>
  ad:	48 89 c2             	mov    %rax,%rdx
  b0:	48 8b 45 d0          	mov    -0x30(%rbp),%rax
  b4:	48 8d 0c 85 00 00 00 	lea    0x0(,%rax,4),%rcx
  bb:	00 
  bc:	48 8b 45 d8          	mov    -0x28(%rbp),%rax
  c0:	48 01 c1             	add    %rax,%rcx
  c3:	48 8b 45 a8          	mov    -0x58(%rbp),%rax
  c7:	48 89 ce             	mov    %rcx,%rsi
  ca:	48 89 c7             	mov    %rax,%rdi
  cd:	e8 00 00 00 00       	call   d2 <_ZNSt6vectorIiSaIiEE17_M_realloc_insertIJiEEEvN9__gnu_cxx17__normal_iteratorIPiS1_EEDpOT_+0xd2>
  d2:	48 c7 45 e0 00 00 00 	movq   $0x0,-0x20(%rbp)
  d9:	00 
  da:	48 8b 45 a8          	mov    -0x58(%rbp),%rax
  de:	48 89 c7             	mov    %rax,%rdi
  e1:	e8 00 00 00 00       	call   e6 <_ZNSt6vectorIiSaIiEE17_M_realloc_insertIJiEEEvN9__gnu_cxx17__normal_iteratorIPiS1_EEDpOT_+0xe6>
  e6:	48 89 c3             	mov    %rax,%rbx
  e9:	48 8d 45 a0          	lea    -0x60(%rbp),%rax
  ed:	48 89 c7             	mov    %rax,%rdi
  f0:	e8 00 00 00 00       	call   f5 <_ZNSt6vectorIiSaIiEE17_M_realloc_insertIJiEEEvN9__gnu_cxx17__normal_iteratorIPiS1_EEDpOT_+0xf5>
  f5:	48 8b 30             	mov    (%rax),%rsi
  f8:	48 8b 55 d8          	mov    -0x28(%rbp),%rdx
  fc:	48 8b 45 c0          	mov    -0x40(%rbp),%rax
 100:	48 89 d9             	mov    %rbx,%rcx
 103:	48 89 c7             	mov    %rax,%rdi
 106:	e8 00 00 00 00       	call   10b <_ZNSt6vectorIiSaIiEE17_M_realloc_insertIJiEEEvN9__gnu_cxx17__normal_iteratorIPiS1_EEDpOT_+0x10b>
 10b:	48 89 45 e0          	mov    %rax,-0x20(%rbp)
 10f:	48 83 45 e0 04       	addq   $0x4,-0x20(%rbp)
 114:	48 8b 45 a8          	mov    -0x58(%rbp),%rax
 118:	48 89 c7             	mov    %rax,%rdi
 11b:	e8 00 00 00 00       	call   120 <_ZNSt6vectorIiSaIiEE17_M_realloc_insertIJiEEEvN9__gnu_cxx17__normal_iteratorIPiS1_EEDpOT_+0x120>
 120:	48 89 c3             	mov    %rax,%rbx
 123:	48 8d 45 a0          	lea    -0x60(%rbp),%rax
 127:	48 89 c7             	mov    %rax,%rdi
 12a:	e8 00 00 00 00       	call   12f <_ZNSt6vectorIiSaIiEE17_M_realloc_insertIJiEEEvN9__gnu_cxx17__normal_iteratorIPiS1_EEDpOT_+0x12f>
 12f:	48 8b 00             	mov    (%rax),%rax
 132:	48 8b 55 e0          	mov    -0x20(%rbp),%rdx
 136:	48 8b 75 c8          	mov    -0x38(%rbp),%rsi
 13a:	48 89 d9             	mov    %rbx,%rcx
 13d:	48 89 c7             	mov    %rax,%rdi
 140:	e8 00 00 00 00       	call   145 <_ZNSt6vectorIiSaIiEE17_M_realloc_insertIJiEEEvN9__gnu_cxx17__normal_iteratorIPiS1_EEDpOT_+0x145>
 145:	48 89 45 e0          	mov    %rax,-0x20(%rbp)
 149:	48 8b 45 a8          	mov    -0x58(%rbp),%rax
 14d:	48 8b 55 a8          	mov    -0x58(%rbp),%rdx
 151:	48 8b 52 10          	mov    0x10(%rdx),%rdx
 155:	48 2b 55 c0          	sub    -0x40(%rbp),%rdx
 159:	48 c1 fa 02          	sar    $0x2,%rdx
 15d:	48 8b 4d c0          	mov    -0x40(%rbp),%rcx
 161:	48 89 ce             	mov    %rcx,%rsi
 164:	48 89 c7             	mov    %rax,%rdi
 167:	e8 00 00 00 00       	call   16c <_ZNSt6vectorIiSaIiEE17_M_realloc_insertIJiEEEvN9__gnu_cxx17__normal_iteratorIPiS1_EEDpOT_+0x16c>
 16c:	48 8b 45 a8          	mov    -0x58(%rbp),%rax
 170:	48 8b 55 d8          	mov    -0x28(%rbp),%rdx
 174:	48 89 10             	mov    %rdx,(%rax)
 177:	48 8b 45 a8          	mov    -0x58(%rbp),%rax
 17b:	48 8b 55 e0          	mov    -0x20(%rbp),%rdx
 17f:	48 89 50 08          	mov    %rdx,0x8(%rax)
 183:	48 8b 45 b8          	mov    -0x48(%rbp),%rax
 187:	48 8d 14 85 00 00 00 	lea    0x0(,%rax,4),%rdx
 18e:	00 
 18f:	48 8b 45 d8          	mov    -0x28(%rbp),%rax
 193:	48 01 c2             	add    %rax,%rdx
 196:	48 8b 45 a8          	mov    -0x58(%rbp),%rax
 19a:	48 89 50 10          	mov    %rdx,0x10(%rax)
 19e:	90                   	nop
 19f:	48 8b 45 e8          	mov    -0x18(%rbp),%rax
 1a3:	64 48 2b 04 25 28 00 	sub    %fs:0x28,%rax
 1aa:	00 00 
 1ac:	74 05                	je     1b3 <_ZNSt6vectorIiSaIiEE17_M_realloc_insertIJiEEEvN9__gnu_cxx17__normal_iteratorIPiS1_EEDpOT_+0x1b3>
 1ae:	e8 00 00 00 00       	call   1b3 <_ZNSt6vectorIiSaIiEE17_M_realloc_insertIJiEEEvN9__gnu_cxx17__normal_iteratorIPiS1_EEDpOT_+0x1b3>
 1b3:	48 8b 5d f8          	mov    -0x8(%rbp),%rbx
 1b7:	c9                   	leave  
 1b8:	c3                   	ret    

Disassembly of section .text._ZNSt6vectorIiSaIiEE4backEv:

0000000000000000 <_ZNSt6vectorIiSaIiEE4backEv>:
   0:	f3 0f 1e fa          	endbr64 
   4:	55                   	push   %rbp
   5:	48 89 e5             	mov    %rsp,%rbp
   8:	48 83 ec 30          	sub    $0x30,%rsp
   c:	48 89 7d d8          	mov    %rdi,-0x28(%rbp)
  10:	64 48 8b 04 25 28 00 	mov    %fs:0x28,%rax
  17:	00 00 
  19:	48 89 45 f8          	mov    %rax,-0x8(%rbp)
  1d:	31 c0                	xor    %eax,%eax
  1f:	48 8b 45 d8          	mov    -0x28(%rbp),%rax
  23:	48 89 c7             	mov    %rax,%rdi
  26:	e8 00 00 00 00       	call   2b <_ZNSt6vectorIiSaIiEE4backEv+0x2b>
  2b:	48 89 45 e8          	mov    %rax,-0x18(%rbp)
  2f:	48 8d 45 e8          	lea    -0x18(%rbp),%rax
  33:	be 01 00 00 00       	mov    $0x1,%esi
  38:	48 89 c7             	mov    %rax,%rdi
  3b:	e8 00 00 00 00       	call   40 <_ZNSt6vectorIiSaIiEE4backEv+0x40>
  40:	48 89 45 f0          	mov    %rax,-0x10(%rbp)
  44:	48 8d 45 f0          	lea    -0x10(%rbp),%rax
  48:	48 89 c7             	mov    %rax,%rdi
  4b:	e8 00 00 00 00       	call   50 <_ZNSt6vectorIiSaIiEE4backEv+0x50>
  50:	48 8b 55 f8          	mov    -0x8(%rbp),%rdx
  54:	64 48 2b 14 25 28 00 	sub    %fs:0x28,%rdx
  5b:	00 00 
  5d:	74 05                	je     64 <_ZNSt6vectorIiSaIiEE4backEv+0x64>
  5f:	e8 00 00 00 00       	call   64 <_ZNSt6vectorIiSaIiEE4backEv+0x64>
  64:	c9                   	leave  
  65:	c3                   	ret    

Disassembly of section .text._ZNSt16allocator_traitsISaISt6vectorIiSaIiEEEE10deallocateERS3_PS2_m:

0000000000000000 <_ZNSt16allocator_traitsISaISt6vectorIiSaIiEEEE10deallocateERS3_PS2_m>:
   0:	f3 0f 1e fa          	endbr64 
   4:	55                   	push   %rbp
   5:	48 89 e5             	mov    %rsp,%rbp
   8:	48 83 ec 20          	sub    $0x20,%rsp
   c:	48 89 7d f8          	mov    %rdi,-0x8(%rbp)
  10:	48 89 75 f0          	mov    %rsi,-0x10(%rbp)
  14:	48 89 55 e8          	mov    %rdx,-0x18(%rbp)
  18:	48 8b 55 e8          	mov    -0x18(%rbp),%rdx
  1c:	48 8b 4d f0          	mov    -0x10(%rbp),%rcx
  20:	48 8b 45 f8          	mov    -0x8(%rbp),%rax
  24:	48 89 ce             	mov    %rcx,%rsi
  27:	48 89 c7             	mov    %rax,%rdi
  2a:	e8 00 00 00 00       	call   2f <_ZNSt16allocator_traitsISaISt6vectorIiSaIiEEEE10deallocateERS3_PS2_m+0x2f>
  2f:	90                   	nop
  30:	c9                   	leave  
  31:	c3                   	ret    

Disassembly of section .text._ZSt8_DestroyIPSt6vectorIiSaIiEEEvT_S4_:

0000000000000000 <_ZSt8_DestroyIPSt6vectorIiSaIiEEEvT_S4_>:
   0:	f3 0f 1e fa          	endbr64 
   4:	55                   	push   %rbp
   5:	48 89 e5             	mov    %rsp,%rbp
   8:	48 83 ec 10          	sub    $0x10,%rsp
   c:	48 89 7d f8          	mov    %rdi,-0x8(%rbp)
  10:	48 89 75 f0          	mov    %rsi,-0x10(%rbp)
  14:	48 8b 55 f0          	mov    -0x10(%rbp),%rdx
  18:	48 8b 45 f8          	mov    -0x8(%rbp),%rax
  1c:	48 89 d6             	mov    %rdx,%rsi
  1f:	48 89 c7             	mov    %rax,%rdi
  22:	e8 00 00 00 00       	call   27 <_ZSt8_DestroyIPSt6vectorIiSaIiEEEvT_S4_+0x27>
  27:	90                   	nop
  28:	c9                   	leave  
  29:	c3                   	ret    

Disassembly of section .text._ZN9__gnu_cxx17__normal_iteratorIPiSt6vectorIiSaIiEEEpLEl:

0000000000000000 <_ZN9__gnu_cxx17__normal_iteratorIPiSt6vectorIiSaIiEEEpLEl>:
   0:	f3 0f 1e fa          	endbr64 
   4:	55                   	push   %rbp
   5:	48 89 e5             	mov    %rsp,%rbp
   8:	48 89 7d f8          	mov    %rdi,-0x8(%rbp)
   c:	48 89 75 f0          	mov    %rsi,-0x10(%rbp)
  10:	48 8b 45 f8          	mov    -0x8(%rbp),%rax
  14:	48 8b 10             	mov    (%rax),%rdx
  17:	48 8b 45 f0          	mov    -0x10(%rbp),%rax
  1b:	48 c1 e0 02          	shl    $0x2,%rax
  1f:	48 01 c2             	add    %rax,%rdx
  22:	48 8b 45 f8          	mov    -0x8(%rbp),%rax
  26:	48 89 10             	mov    %rdx,(%rax)
  29:	48 8b 45 f8          	mov    -0x8(%rbp),%rax
  2d:	5d                   	pop    %rbp
  2e:	c3                   	ret    

Disassembly of section .text._ZNSt12_Vector_baseIiSaIiEE12_Vector_implC2ERKS0_:

0000000000000000 <_ZNSt12_Vector_baseIiSaIiEE12_Vector_implC1ERKS0_>:
   0:	f3 0f 1e fa          	endbr64 
   4:	55                   	push   %rbp
   5:	48 89 e5             	mov    %rsp,%rbp
   8:	48 83 ec 10          	sub    $0x10,%rsp
   c:	48 89 7d f8          	mov    %rdi,-0x8(%rbp)
  10:	48 89 75 f0          	mov    %rsi,-0x10(%rbp)
  14:	48 8b 55 f0          	mov    -0x10(%rbp),%rdx
  18:	48 8b 45 f8          	mov    -0x8(%rbp),%rax
  1c:	48 89 d6             	mov    %rdx,%rsi
  1f:	48 89 c7             	mov    %rax,%rdi
  22:	e8 00 00 00 00       	call   27 <_ZNSt12_Vector_baseIiSaIiEE12_Vector_implC1ERKS0_+0x27>
  27:	48 8b 45 f8          	mov    -0x8(%rbp),%rax
  2b:	48 89 c7             	mov    %rax,%rdi
  2e:	e8 00 00 00 00       	call   33 <_ZNSt12_Vector_baseIiSaIiEE12_Vector_implC1ERKS0_+0x33>
  33:	90                   	nop
  34:	c9                   	leave  
  35:	c3                   	ret    

Disassembly of section .text._ZNKSt16initializer_listIiE4sizeEv:

0000000000000000 <_ZNKSt16initializer_listIiE4sizeEv>:
   0:	f3 0f 1e fa          	endbr64 
   4:	55                   	push   %rbp
   5:	48 89 e5             	mov    %rsp,%rbp
   8:	48 89 7d f8          	mov    %rdi,-0x8(%rbp)
   c:	48 8b 45 f8          	mov    -0x8(%rbp),%rax
  10:	48 8b 40 08          	mov    0x8(%rax),%rax
  14:	5d                   	pop    %rbp
  15:	c3                   	ret    

Disassembly of section .text._ZSt19__iterator_categoryIPKiENSt15iterator_traitsIT_E17iterator_categoryERKS3_:

0000000000000000 <_ZSt19__iterator_categoryIPKiENSt15iterator_traitsIT_E17iterator_categoryERKS3_>:
   0:	f3 0f 1e fa          	endbr64 
   4:	55                   	push   %rbp
   5:	48 89 e5             	mov    %rsp,%rbp
   8:	48 89 7d f8          	mov    %rdi,-0x8(%rbp)
   c:	5d                   	pop    %rbp
   d:	c3                   	ret    

Disassembly of section .text._ZSt10__distanceIPKiENSt15iterator_traitsIT_E15difference_typeES3_S3_St26random_access_iterator_tag:

0000000000000000 <_ZSt10__distanceIPKiENSt15iterator_traitsIT_E15difference_typeES3_S3_St26random_access_iterator_tag>:
   0:	f3 0f 1e fa          	endbr64 
   4:	55                   	push   %rbp
   5:	48 89 e5             	mov    %rsp,%rbp
   8:	48 89 7d f8          	mov    %rdi,-0x8(%rbp)
   c:	48 89 75 f0          	mov    %rsi,-0x10(%rbp)
  10:	48 8b 45 f0          	mov    -0x10(%rbp),%rax
  14:	48 2b 45 f8          	sub    -0x8(%rbp),%rax
  18:	48 c1 f8 02          	sar    $0x2,%rax
  1c:	5d                   	pop    %rbp
  1d:	c3                   	ret    

Disassembly of section .text._ZNSt6vectorIiSaIiEE17_S_check_init_lenEmRKS0_:

0000000000000000 <_ZNSt6vectorIiSaIiEE17_S_check_init_lenEmRKS0_>:
   0:	f3 0f 1e fa          	endbr64 
   4:	55                   	push   %rbp
   5:	48 89 e5             	mov    %rsp,%rbp
   8:	53                   	push   %rbx
   9:	48 83 ec 28          	sub    $0x28,%rsp
   d:	48 89 7d d8          	mov    %rdi,-0x28(%rbp)
  11:	48 89 75 d0          	mov    %rsi,-0x30(%rbp)
  15:	64 48 8b 04 25 28 00 	mov    %fs:0x28,%rax
  1c:	00 00 
  1e:	48 89 45 e8          	mov    %rax,-0x18(%rbp)
  22:	31 c0                	xor    %eax,%eax
  24:	48 8b 55 d0          	mov    -0x30(%rbp),%rdx
  28:	48 8d 45 e7          	lea    -0x19(%rbp),%rax
  2c:	48 89 d6             	mov    %rdx,%rsi
  2f:	48 89 c7             	mov    %rax,%rdi
  32:	e8 00 00 00 00       	call   37 <_ZNSt6vectorIiSaIiEE17_S_check_init_lenEmRKS0_+0x37>
  37:	48 8d 45 e7          	lea    -0x19(%rbp),%rax
  3b:	48 89 c7             	mov    %rax,%rdi
  3e:	e8 00 00 00 00       	call   43 <_ZNSt6vectorIiSaIiEE17_S_check_init_lenEmRKS0_+0x43>
  43:	48 39 45 d8          	cmp    %rax,-0x28(%rbp)
  47:	0f 97 c3             	seta   %bl
  4a:	48 8d 45 e7          	lea    -0x19(%rbp),%rax
  4e:	48 89 c7             	mov    %rax,%rdi
  51:	e8 00 00 00 00       	call   56 <_ZNSt6vectorIiSaIiEE17_S_check_init_lenEmRKS0_+0x56>
  56:	84 db                	test   %bl,%bl
  58:	74 0f                	je     69 <_ZNSt6vectorIiSaIiEE17_S_check_init_lenEmRKS0_+0x69>
  5a:	48 8d 05 00 00 00 00 	lea    0x0(%rip),%rax        # 61 <_ZNSt6vectorIiSaIiEE17_S_check_init_lenEmRKS0_+0x61>
  61:	48 89 c7             	mov    %rax,%rdi
  64:	e8 00 00 00 00       	call   69 <_ZNSt6vectorIiSaIiEE17_S_check_init_lenEmRKS0_+0x69>
  69:	48 8b 45 d8          	mov    -0x28(%rbp),%rax
  6d:	48 8b 55 e8          	mov    -0x18(%rbp),%rdx
  71:	64 48 2b 14 25 28 00 	sub    %fs:0x28,%rdx
  78:	00 00 
  7a:	74 05                	je     81 <_ZNSt6vectorIiSaIiEE17_S_check_init_lenEmRKS0_+0x81>
  7c:	e8 00 00 00 00       	call   81 <_ZNSt6vectorIiSaIiEE17_S_check_init_lenEmRKS0_+0x81>
  81:	48 8b 5d f8          	mov    -0x8(%rbp),%rbx
  85:	c9                   	leave  
  86:	c3                   	ret    

Disassembly of section .text._ZSt22__uninitialized_copy_aIPKiPiiET0_T_S4_S3_RSaIT1_E:

0000000000000000 <_ZSt22__uninitialized_copy_aIPKiPiiET0_T_S4_S3_RSaIT1_E>:
   0:	f3 0f 1e fa          	endbr64 
   4:	55                   	push   %rbp
   5:	48 89 e5             	mov    %rsp,%rbp
   8:	48 83 ec 20          	sub    $0x20,%rsp
   c:	48 89 7d f8          	mov    %rdi,-0x8(%rbp)
  10:	48 89 75 f0          	mov    %rsi,-0x10(%rbp)
  14:	48 89 55 e8          	mov    %rdx,-0x18(%rbp)
  18:	48 89 4d e0          	mov    %rcx,-0x20(%rbp)
  1c:	48 8b 55 e8          	mov    -0x18(%rbp),%rdx
  20:	48 8b 4d f0          	mov    -0x10(%rbp),%rcx
  24:	48 8b 45 f8          	mov    -0x8(%rbp),%rax
  28:	48 89 ce             	mov    %rcx,%rsi
  2b:	48 89 c7             	mov    %rax,%rdi
  2e:	e8 00 00 00 00       	call   33 <_ZSt22__uninitialized_copy_aIPKiPiiET0_T_S4_S3_RSaIT1_E+0x33>
  33:	c9                   	leave  
  34:	c3                   	ret    

Disassembly of section .text._ZSt7forwardISt6vectorIiSaIiEEEOT_RNSt16remove_referenceIS3_E4typeE:

0000000000000000 <_ZSt7forwardISt6vectorIiSaIiEEEOT_RNSt16remove_referenceIS3_E4typeE>:
   0:	f3 0f 1e fa          	endbr64 
   4:	55                   	push   %rbp
   5:	48 89 e5             	mov    %rsp,%rbp
   8:	48 89 7d f8          	mov    %rdi,-0x8(%rbp)
   c:	48 8b 45 f8          	mov    -0x8(%rbp),%rax
  10:	5d                   	pop    %rbp
  11:	c3                   	ret    

Disassembly of section .text._ZNSt16allocator_traitsISaISt6vectorIiSaIiEEEE9constructIS2_JS2_EEEvRS3_PT_DpOT0_:

0000000000000000 <_ZNSt16allocator_traitsISaISt6vectorIiSaIiEEEE9constructIS2_JS2_EEEvRS3_PT_DpOT0_>:
   0:	f3 0f 1e fa          	endbr64 
   4:	55                   	push   %rbp
   5:	48 89 e5             	mov    %rsp,%rbp
   8:	48 83 ec 20          	sub    $0x20,%rsp
   c:	48 89 7d f8          	mov    %rdi,-0x8(%rbp)
  10:	48 89 75 f0          	mov    %rsi,-0x10(%rbp)
  14:	48 89 55 e8          	mov    %rdx,-0x18(%rbp)
  18:	48 8b 45 e8          	mov    -0x18(%rbp),%rax
  1c:	48 89 c7             	mov    %rax,%rdi
  1f:	e8 00 00 00 00       	call   24 <_ZNSt16allocator_traitsISaISt6vectorIiSaIiEEEE9constructIS2_JS2_EEEvRS3_PT_DpOT0_+0x24>
  24:	48 89 c2             	mov    %rax,%rdx
  27:	48 8b 4d f0          	mov    -0x10(%rbp),%rcx
  2b:	48 8b 45 f8          	mov    -0x8(%rbp),%rax
  2f:	48 89 ce             	mov    %rcx,%rsi
  32:	48 89 c7             	mov    %rax,%rdi
  35:	e8 00 00 00 00       	call   3a <_ZNSt16allocator_traitsISaISt6vectorIiSaIiEEEE9constructIS2_JS2_EEEvRS3_PT_DpOT0_+0x3a>
  3a:	90                   	nop
  3b:	c9                   	leave  
  3c:	c3                   	ret    

Disassembly of section .text._ZNSt6vectorIS_IiSaIiEESaIS1_EE17_M_realloc_insertIJS1_EEEvN9__gnu_cxx17__normal_iteratorIPS1_S3_EEDpOT_:

0000000000000000 <_ZNSt6vectorIS_IiSaIiEESaIS1_EE17_M_realloc_insertIJS1_EEEvN9__gnu_cxx17__normal_iteratorIPS1_S3_EEDpOT_>:
   0:	f3 0f 1e fa          	endbr64 
   4:	55                   	push   %rbp
   5:	48 89 e5             	mov    %rsp,%rbp
   8:	53                   	push   %rbx
   9:	48 83 ec 68          	sub    $0x68,%rsp
   d:	48 89 7d a8          	mov    %rdi,-0x58(%rbp)
  11:	48 89 75 a0          	mov    %rsi,-0x60(%rbp)
  15:	48 89 55 98          	mov    %rdx,-0x68(%rbp)
  19:	64 48 8b 04 25 28 00 	mov    %fs:0x28,%rax
  20:	00 00 
  22:	48 89 45 e8          	mov    %rax,-0x18(%rbp)
  26:	31 c0                	xor    %eax,%eax
  28:	48 8b 45 a8          	mov    -0x58(%rbp),%rax
  2c:	48 8d 15 00 00 00 00 	lea    0x0(%rip),%rdx        # 33 <_ZNSt6vectorIS_IiSaIiEESaIS1_EE17_M_realloc_insertIJS1_EEEvN9__gnu_cxx17__normal_iteratorIPS1_S3_EEDpOT_+0x33>
  33:	be 01 00 00 00       	mov    $0x1,%esi
  38:	48 89 c7             	mov    %rax,%rdi
  3b:	e8 00 00 00 00       	call   40 <_ZNSt6vectorIS_IiSaIiEESaIS1_EE17_M_realloc_insertIJS1_EEEvN9__gnu_cxx17__normal_iteratorIPS1_S3_EEDpOT_+0x40>
  40:	48 89 45 b8          	mov    %rax,-0x48(%rbp)
  44:	48 8b 45 a8          	mov    -0x58(%rbp),%rax
  48:	48 8b 00             	mov    (%rax),%rax
  4b:	48 89 45 c0          	mov    %rax,-0x40(%rbp)
  4f:	48 8b 45 a8          	mov    -0x58(%rbp),%rax
  53:	48 8b 40 08          	mov    0x8(%rax),%rax
  57:	48 89 45 c8          	mov    %rax,-0x38(%rbp)
  5b:	48 8b 45 a8          	mov    -0x58(%rbp),%rax
  5f:	48 89 c7             	mov    %rax,%rdi
  62:	e8 00 00 00 00       	call   67 <_ZNSt6vectorIS_IiSaIiEESaIS1_EE17_M_realloc_insertIJS1_EEEvN9__gnu_cxx17__normal_iteratorIPS1_S3_EEDpOT_+0x67>
  67:	48 89 45 b0          	mov    %rax,-0x50(%rbp)
  6b:	48 8d 55 b0          	lea    -0x50(%rbp),%rdx
  6f:	48 8d 45 a0          	lea    -0x60(%rbp),%rax
  73:	48 89 d6             	mov    %rdx,%rsi
  76:	48 89 c7             	mov    %rax,%rdi
  79:	e8 00 00 00 00       	call   7e <_ZNSt6vectorIS_IiSaIiEESaIS1_EE17_M_realloc_insertIJS1_EEEvN9__gnu_cxx17__normal_iteratorIPS1_S3_EEDpOT_+0x7e>
  7e:	48 89 45 d0          	mov    %rax,-0x30(%rbp)
  82:	48 8b 45 a8          	mov    -0x58(%rbp),%rax
  86:	48 8b 55 b8          	mov    -0x48(%rbp),%rdx
  8a:	48 89 d6             	mov    %rdx,%rsi
  8d:	48 89 c7             	mov    %rax,%rdi
  90:	e8 00 00 00 00       	call   95 <_ZNSt6vectorIS_IiSaIiEESaIS1_EE17_M_realloc_insertIJS1_EEEvN9__gnu_cxx17__normal_iteratorIPS1_S3_EEDpOT_+0x95>
  95:	48 89 45 d8          	mov    %rax,-0x28(%rbp)
  99:	48 8b 45 d8          	mov    -0x28(%rbp),%rax
  9d:	48 89 45 e0          	mov    %rax,-0x20(%rbp)
  a1:	48 8b 45 98          	mov    -0x68(%rbp),%rax
  a5:	48 89 c7             	mov    %rax,%rdi
  a8:	e8 00 00 00 00       	call   ad <_ZNSt6vectorIS_IiSaIiEESaIS1_EE17_M_realloc_insertIJS1_EEEvN9__gnu_cxx17__normal_iteratorIPS1_S3_EEDpOT_+0xad>
  ad:	48 89 c6             	mov    %rax,%rsi
  b0:	48 8b 55 d0          	mov    -0x30(%rbp),%rdx
  b4:	48 89 d0             	mov    %rdx,%rax
  b7:	48 01 c0             	add    %rax,%rax
  ba:	48 01 d0             	add    %rdx,%rax
  bd:	48 c1 e0 03          	shl    $0x3,%rax
  c1:	48 89 c2             	mov    %rax,%rdx
  c4:	48 8b 45 d8          	mov    -0x28(%rbp),%rax
  c8:	48 8d 0c 02          	lea    (%rdx,%rax,1),%rcx
  cc:	48 8b 45 a8          	mov    -0x58(%rbp),%rax
  d0:	48 89 f2             	mov    %rsi,%rdx
  d3:	48 89 ce             	mov    %rcx,%rsi
  d6:	48 89 c7             	mov    %rax,%rdi
  d9:	e8 00 00 00 00       	call   de <_ZNSt6vectorIS_IiSaIiEESaIS1_EE17_M_realloc_insertIJS1_EEEvN9__gnu_cxx17__normal_iteratorIPS1_S3_EEDpOT_+0xde>
  de:	48 c7 45 e0 00 00 00 	movq   $0x0,-0x20(%rbp)
  e5:	00 
  e6:	48 8b 45 a8          	mov    -0x58(%rbp),%rax
  ea:	48 89 c7             	mov    %rax,%rdi
  ed:	e8 00 00 00 00       	call   f2 <_ZNSt6vectorIS_IiSaIiEESaIS1_EE17_M_realloc_insertIJS1_EEEvN9__gnu_cxx17__normal_iteratorIPS1_S3_EEDpOT_+0xf2>
  f2:	48 89 c3             	mov    %rax,%rbx
  f5:	48 8d 45 a0          	lea    -0x60(%rbp),%rax
  f9:	48 89 c7             	mov    %rax,%rdi
  fc:	e8 00 00 00 00       	call   101 <_ZNSt6vectorIS_IiSaIiEESaIS1_EE17_M_realloc_insertIJS1_EEEvN9__gnu_cxx17__normal_iteratorIPS1_S3_EEDpOT_+0x101>
 101:	48 8b 30             	mov    (%rax),%rsi
 104:	48 8b 55 d8          	mov    -0x28(%rbp),%rdx
 108:	48 8b 45 c0          	mov    -0x40(%rbp),%rax
 10c:	48 89 d9             	mov    %rbx,%rcx
 10f:	48 89 c7             	mov    %rax,%rdi
 112:	e8 00 00 00 00       	call   117 <_ZNSt6vectorIS_IiSaIiEESaIS1_EE17_M_realloc_insertIJS1_EEEvN9__gnu_cxx17__normal_iteratorIPS1_S3_EEDpOT_+0x117>
 117:	48 89 45 e0          	mov    %rax,-0x20(%rbp)
 11b:	48 83 45 e0 18       	addq   $0x18,-0x20(%rbp)
 120:	48 8b 45 a8          	mov    -0x58(%rbp),%rax
 124:	48 89 c7             	mov    %rax,%rdi
 127:	e8 00 00 00 00       	call   12c <_ZNSt6vectorIS_IiSaIiEESaIS1_EE17_M_realloc_insertIJS1_EEEvN9__gnu_cxx17__normal_iteratorIPS1_S3_EEDpOT_+0x12c>
 12c:	48 89 c3             	mov    %rax,%rbx
 12f:	48 8d 45 a0          	lea    -0x60(%rbp),%rax
 133:	48 89 c7             	mov    %rax,%rdi
 136:	e8 00 00 00 00       	call   13b <_ZNSt6vectorIS_IiSaIiEESaIS1_EE17_M_realloc_insertIJS1_EEEvN9__gnu_cxx17__normal_iteratorIPS1_S3_EEDpOT_+0x13b>
 13b:	48 8b 00             	mov    (%rax),%rax
 13e:	48 8b 55 e0          	mov    -0x20(%rbp),%rdx
 142:	48 8b 75 c8          	mov    -0x38(%rbp),%rsi
 146:	48 89 d9             	mov    %rbx,%rcx
 149:	48 89 c7             	mov    %rax,%rdi
 14c:	e8 00 00 00 00       	call   151 <_ZNSt6vectorIS_IiSaIiEESaIS1_EE17_M_realloc_insertIJS1_EEEvN9__gnu_cxx17__normal_iteratorIPS1_S3_EEDpOT_+0x151>
 151:	48 89 45 e0          	mov    %rax,-0x20(%rbp)
 155:	48 8b 45 a8          	mov    -0x58(%rbp),%rax
 159:	48 8b 55 a8          	mov    -0x58(%rbp),%rdx
 15d:	48 8b 52 10          	mov    0x10(%rdx),%rdx
 161:	48 2b 55 c0          	sub    -0x40(%rbp),%rdx
 165:	48 89 d1             	mov    %rdx,%rcx
 168:	48 c1 f9 03          	sar    $0x3,%rcx
 16c:	48 ba ab aa aa aa aa 	movabs $0xaaaaaaaaaaaaaaab,%rdx
 173:	aa aa aa 
 176:	48 0f af d1          	imul   %rcx,%rdx
 17a:	48 8b 4d c0          	mov    -0x40(%rbp),%rcx
 17e:	48 89 ce             	mov    %rcx,%rsi
 181:	48 89 c7             	mov    %rax,%rdi
 184:	e8 00 00 00 00       	call   189 <_ZNSt6vectorIS_IiSaIiEESaIS1_EE17_M_realloc_insertIJS1_EEEvN9__gnu_cxx17__normal_iteratorIPS1_S3_EEDpOT_+0x189>
 189:	48 8b 45 a8          	mov    -0x58(%rbp),%rax
 18d:	48 8b 55 d8          	mov    -0x28(%rbp),%rdx
 191:	48 89 10             	mov    %rdx,(%rax)
 194:	48 8b 45 a8          	mov    -0x58(%rbp),%rax
 198:	48 8b 55 e0          	mov    -0x20(%rbp),%rdx
 19c:	48 89 50 08          	mov    %rdx,0x8(%rax)
 1a0:	48 8b 55 b8          	mov    -0x48(%rbp),%rdx
 1a4:	48 89 d0             	mov    %rdx,%rax
 1a7:	48 01 c0             	add    %rax,%rax
 1aa:	48 01 d0             	add    %rdx,%rax
 1ad:	48 c1 e0 03          	shl    $0x3,%rax
 1b1:	48 89 c2             	mov    %rax,%rdx
 1b4:	48 8b 45 d8          	mov    -0x28(%rbp),%rax
 1b8:	48 01 c2             	add    %rax,%rdx
 1bb:	48 8b 45 a8          	mov    -0x58(%rbp),%rax
 1bf:	48 89 50 10          	mov    %rdx,0x10(%rax)
 1c3:	90                   	nop
 1c4:	48 8b 45 e8          	mov    -0x18(%rbp),%rax
 1c8:	64 48 2b 04 25 28 00 	sub    %fs:0x28,%rax
 1cf:	00 00 
 1d1:	74 05                	je     1d8 <_ZNSt6vectorIS_IiSaIiEESaIS1_EE17_M_realloc_insertIJS1_EEEvN9__gnu_cxx17__normal_iteratorIPS1_S3_EEDpOT_+0x1d8>
 1d3:	e8 00 00 00 00       	call   1d8 <_ZNSt6vectorIS_IiSaIiEESaIS1_EE17_M_realloc_insertIJS1_EEEvN9__gnu_cxx17__normal_iteratorIPS1_S3_EEDpOT_+0x1d8>
 1d8:	48 8b 5d f8          	mov    -0x8(%rbp),%rbx
 1dc:	c9                   	leave  
 1dd:	c3                   	ret    

Disassembly of section .text._ZN9__gnu_cxx13new_allocatorISt6vectorIiSaIiEEEC2ERKS4_:

0000000000000000 <_ZN9__gnu_cxx13new_allocatorISt6vectorIiSaIiEEEC1ERKS4_>:
   0:	f3 0f 1e fa          	endbr64 
   4:	55                   	push   %rbp
   5:	48 89 e5             	mov    %rsp,%rbp
   8:	48 89 7d f8          	mov    %rdi,-0x8(%rbp)
   c:	48 89 75 f0          	mov    %rsi,-0x10(%rbp)
  10:	90                   	nop
  11:	5d                   	pop    %rbp
  12:	c3                   	ret    

Disassembly of section .text._ZNSt12_Vector_baseISt6vectorIiSaIiEESaIS2_EE12_Vector_implC2ERKS3_:

0000000000000000 <_ZNSt12_Vector_baseISt6vectorIiSaIiEESaIS2_EE12_Vector_implC1ERKS3_>:
   0:	f3 0f 1e fa          	endbr64 
   4:	55                   	push   %rbp
   5:	48 89 e5             	mov    %rsp,%rbp
   8:	48 83 ec 10          	sub    $0x10,%rsp
   c:	48 89 7d f8          	mov    %rdi,-0x8(%rbp)
  10:	48 89 75 f0          	mov    %rsi,-0x10(%rbp)
  14:	48 8b 55 f0          	mov    -0x10(%rbp),%rdx
  18:	48 8b 45 f8          	mov    -0x8(%rbp),%rax
  1c:	48 89 d6             	mov    %rdx,%rsi
  1f:	48 89 c7             	mov    %rax,%rdi
  22:	e8 00 00 00 00       	call   27 <_ZNSt12_Vector_baseISt6vectorIiSaIiEESaIS2_EE12_Vector_implC1ERKS3_+0x27>
  27:	48 8b 45 f8          	mov    -0x8(%rbp),%rax
  2b:	48 89 c7             	mov    %rax,%rdi
  2e:	e8 00 00 00 00       	call   33 <_ZNSt12_Vector_baseISt6vectorIiSaIiEESaIS2_EE12_Vector_implC1ERKS3_+0x33>
  33:	90                   	nop
  34:	c9                   	leave  
  35:	c3                   	ret    

Disassembly of section .text._ZNKSt16initializer_listISt6vectorIiSaIiEEE4sizeEv:

0000000000000000 <_ZNKSt16initializer_listISt6vectorIiSaIiEEE4sizeEv>:
   0:	f3 0f 1e fa          	endbr64 
   4:	55                   	push   %rbp
   5:	48 89 e5             	mov    %rsp,%rbp
   8:	48 89 7d f8          	mov    %rdi,-0x8(%rbp)
   c:	48 8b 45 f8          	mov    -0x8(%rbp),%rax
  10:	48 8b 40 08          	mov    0x8(%rax),%rax
  14:	5d                   	pop    %rbp
  15:	c3                   	ret    

Disassembly of section .text._ZSt19__iterator_categoryIPKSt6vectorIiSaIiEEENSt15iterator_traitsIT_E17iterator_categoryERKS6_:

0000000000000000 <_ZSt19__iterator_categoryIPKSt6vectorIiSaIiEEENSt15iterator_traitsIT_E17iterator_categoryERKS6_>:
   0:	f3 0f 1e fa          	endbr64 
   4:	55                   	push   %rbp
   5:	48 89 e5             	mov    %rsp,%rbp
   8:	48 89 7d f8          	mov    %rdi,-0x8(%rbp)
   c:	5d                   	pop    %rbp
   d:	c3                   	ret    

Disassembly of section .text._ZSt10__distanceIPKSt6vectorIiSaIiEEENSt15iterator_traitsIT_E15difference_typeES6_S6_St26random_access_iterator_tag:

0000000000000000 <_ZSt10__distanceIPKSt6vectorIiSaIiEEENSt15iterator_traitsIT_E15difference_typeES6_S6_St26random_access_iterator_tag>:
   0:	f3 0f 1e fa          	endbr64 
   4:	55                   	push   %rbp
   5:	48 89 e5             	mov    %rsp,%rbp
   8:	48 89 7d f8          	mov    %rdi,-0x8(%rbp)
   c:	48 89 75 f0          	mov    %rsi,-0x10(%rbp)
  10:	48 8b 45 f0          	mov    -0x10(%rbp),%rax
  14:	48 2b 45 f8          	sub    -0x8(%rbp),%rax
  18:	48 c1 f8 03          	sar    $0x3,%rax
  1c:	48 89 c2             	mov    %rax,%rdx
  1f:	48 b8 ab aa aa aa aa 	movabs $0xaaaaaaaaaaaaaaab,%rax
  26:	aa aa aa 
  29:	48 0f af c2          	imul   %rdx,%rax
  2d:	5d                   	pop    %rbp
  2e:	c3                   	ret    

Disassembly of section .text._ZNSt6vectorIS_IiSaIiEESaIS1_EE17_S_check_init_lenEmRKS2_:

0000000000000000 <_ZNSt6vectorIS_IiSaIiEESaIS1_EE17_S_check_init_lenEmRKS2_>:
   0:	f3 0f 1e fa          	endbr64 
   4:	55                   	push   %rbp
   5:	48 89 e5             	mov    %rsp,%rbp
   8:	53                   	push   %rbx
   9:	48 83 ec 28          	sub    $0x28,%rsp
   d:	48 89 7d d8          	mov    %rdi,-0x28(%rbp)
  11:	48 89 75 d0          	mov    %rsi,-0x30(%rbp)
  15:	64 48 8b 04 25 28 00 	mov    %fs:0x28,%rax
  1c:	00 00 
  1e:	48 89 45 e8          	mov    %rax,-0x18(%rbp)
  22:	31 c0                	xor    %eax,%eax
  24:	48 8b 55 d0          	mov    -0x30(%rbp),%rdx
  28:	48 8d 45 e7          	lea    -0x19(%rbp),%rax
  2c:	48 89 d6             	mov    %rdx,%rsi
  2f:	48 89 c7             	mov    %rax,%rdi
  32:	e8 00 00 00 00       	call   37 <_ZNSt6vectorIS_IiSaIiEESaIS1_EE17_S_check_init_lenEmRKS2_+0x37>
  37:	48 8d 45 e7          	lea    -0x19(%rbp),%rax
  3b:	48 89 c7             	mov    %rax,%rdi
  3e:	e8 00 00 00 00       	call   43 <_ZNSt6vectorIS_IiSaIiEESaIS1_EE17_S_check_init_lenEmRKS2_+0x43>
  43:	48 39 45 d8          	cmp    %rax,-0x28(%rbp)
  47:	0f 97 c3             	seta   %bl
  4a:	48 8d 45 e7          	lea    -0x19(%rbp),%rax
  4e:	48 89 c7             	mov    %rax,%rdi
  51:	e8 00 00 00 00       	call   56 <_ZNSt6vectorIS_IiSaIiEESaIS1_EE17_S_check_init_lenEmRKS2_+0x56>
  56:	84 db                	test   %bl,%bl
  58:	74 0f                	je     69 <_ZNSt6vectorIS_IiSaIiEESaIS1_EE17_S_check_init_lenEmRKS2_+0x69>
  5a:	48 8d 05 00 00 00 00 	lea    0x0(%rip),%rax        # 61 <_ZNSt6vectorIS_IiSaIiEESaIS1_EE17_S_check_init_lenEmRKS2_+0x61>
  61:	48 89 c7             	mov    %rax,%rdi
  64:	e8 00 00 00 00       	call   69 <_ZNSt6vectorIS_IiSaIiEESaIS1_EE17_S_check_init_lenEmRKS2_+0x69>
  69:	48 8b 45 d8          	mov    -0x28(%rbp),%rax
  6d:	48 8b 55 e8          	mov    -0x18(%rbp),%rdx
  71:	64 48 2b 14 25 28 00 	sub    %fs:0x28,%rdx
  78:	00 00 
  7a:	74 05                	je     81 <_ZNSt6vectorIS_IiSaIiEESaIS1_EE17_S_check_init_lenEmRKS2_+0x81>
  7c:	e8 00 00 00 00       	call   81 <_ZNSt6vectorIS_IiSaIiEESaIS1_EE17_S_check_init_lenEmRKS2_+0x81>
  81:	48 8b 5d f8          	mov    -0x8(%rbp),%rbx
  85:	c9                   	leave  
  86:	c3                   	ret    

Disassembly of section .text._ZNSt12_Vector_baseISt6vectorIiSaIiEESaIS2_EE11_M_allocateEm:

0000000000000000 <_ZNSt12_Vector_baseISt6vectorIiSaIiEESaIS2_EE11_M_allocateEm>:
   0:	f3 0f 1e fa          	endbr64 
   4:	55                   	push   %rbp
   5:	48 89 e5             	mov    %rsp,%rbp
   8:	48 83 ec 10          	sub    $0x10,%rsp
   c:	48 89 7d f8          	mov    %rdi,-0x8(%rbp)
  10:	48 89 75 f0          	mov    %rsi,-0x10(%rbp)
  14:	48 83 7d f0 00       	cmpq   $0x0,-0x10(%rbp)
  19:	74 15                	je     30 <_ZNSt12_Vector_baseISt6vectorIiSaIiEESaIS2_EE11_M_allocateEm+0x30>
  1b:	48 8b 45 f8          	mov    -0x8(%rbp),%rax
  1f:	48 8b 55 f0          	mov    -0x10(%rbp),%rdx
  23:	48 89 d6             	mov    %rdx,%rsi
  26:	48 89 c7             	mov    %rax,%rdi
  29:	e8 00 00 00 00       	call   2e <_ZNSt12_Vector_baseISt6vectorIiSaIiEESaIS2_EE11_M_allocateEm+0x2e>
  2e:	eb 05                	jmp    35 <_ZNSt12_Vector_baseISt6vectorIiSaIiEESaIS2_EE11_M_allocateEm+0x35>
  30:	b8 00 00 00 00       	mov    $0x0,%eax
  35:	c9                   	leave  
  36:	c3                   	ret    

Disassembly of section .text._ZSt22__uninitialized_copy_aIPKSt6vectorIiSaIiEEPS2_S2_ET0_T_S7_S6_RSaIT1_E:

0000000000000000 <_ZSt22__uninitialized_copy_aIPKSt6vectorIiSaIiEEPS2_S2_ET0_T_S7_S6_RSaIT1_E>:
   0:	f3 0f 1e fa          	endbr64 
   4:	55                   	push   %rbp
   5:	48 89 e5             	mov    %rsp,%rbp
   8:	48 83 ec 20          	sub    $0x20,%rsp
   c:	48 89 7d f8          	mov    %rdi,-0x8(%rbp)
  10:	48 89 75 f0          	mov    %rsi,-0x10(%rbp)
  14:	48 89 55 e8          	mov    %rdx,-0x18(%rbp)
  18:	48 89 4d e0          	mov    %rcx,-0x20(%rbp)
  1c:	48 8b 55 e8          	mov    -0x18(%rbp),%rdx
  20:	48 8b 4d f0          	mov    -0x10(%rbp),%rcx
  24:	48 8b 45 f8          	mov    -0x8(%rbp),%rax
  28:	48 89 ce             	mov    %rcx,%rsi
  2b:	48 89 c7             	mov    %rax,%rdi
  2e:	e8 00 00 00 00       	call   33 <_ZSt22__uninitialized_copy_aIPKSt6vectorIiSaIiEEPS2_S2_ET0_T_S7_S6_RSaIT1_E+0x33>
  33:	c9                   	leave  
  34:	c3                   	ret    

Disassembly of section .text._ZN9__gnu_cxx13new_allocatorIiE10deallocateEPim:

0000000000000000 <_ZN9__gnu_cxx13new_allocatorIiE10deallocateEPim>:
   0:	f3 0f 1e fa          	endbr64 
   4:	55                   	push   %rbp
   5:	48 89 e5             	mov    %rsp,%rbp
   8:	48 83 ec 20          	sub    $0x20,%rsp
   c:	48 89 7d f8          	mov    %rdi,-0x8(%rbp)
  10:	48 89 75 f0          	mov    %rsi,-0x10(%rbp)
  14:	48 89 55 e8          	mov    %rdx,-0x18(%rbp)
  18:	48 8b 45 e8          	mov    -0x18(%rbp),%rax
  1c:	48 8d 14 85 00 00 00 	lea    0x0(,%rax,4),%rdx
  23:	00 
  24:	48 8b 45 f0          	mov    -0x10(%rbp),%rax
  28:	48 89 d6             	mov    %rdx,%rsi
  2b:	48 89 c7             	mov    %rax,%rdi
  2e:	e8 00 00 00 00       	call   33 <_ZN9__gnu_cxx13new_allocatorIiE10deallocateEPim+0x33>
  33:	c9                   	leave  
  34:	c3                   	ret    

Disassembly of section .text._ZNSt12_Destroy_auxILb1EE9__destroyIPiEEvT_S3_:

0000000000000000 <_ZNSt12_Destroy_auxILb1EE9__destroyIPiEEvT_S3_>:
   0:	f3 0f 1e fa          	endbr64 
   4:	55                   	push   %rbp
   5:	48 89 e5             	mov    %rsp,%rbp
   8:	48 89 7d f8          	mov    %rdi,-0x8(%rbp)
   c:	48 89 75 f0          	mov    %rsi,-0x10(%rbp)
  10:	90                   	nop
  11:	5d                   	pop    %rbp
  12:	c3                   	ret    

Disassembly of section .text._ZNKSt6vectorIiSaIiEE8max_sizeEv:

0000000000000000 <_ZNKSt6vectorIiSaIiEE8max_sizeEv>:
   0:	f3 0f 1e fa          	endbr64 
   4:	55                   	push   %rbp
   5:	48 89 e5             	mov    %rsp,%rbp
   8:	48 83 ec 10          	sub    $0x10,%rsp
   c:	48 89 7d f8          	mov    %rdi,-0x8(%rbp)
  10:	48 8b 45 f8          	mov    -0x8(%rbp),%rax
  14:	48 89 c7             	mov    %rax,%rdi
  17:	e8 00 00 00 00       	call   1c <_ZNKSt6vectorIiSaIiEE8max_sizeEv+0x1c>
  1c:	48 89 c7             	mov    %rax,%rdi
  1f:	e8 00 00 00 00       	call   24 <_ZNKSt6vectorIiSaIiEE8max_sizeEv+0x24>
  24:	c9                   	leave  
  25:	c3                   	ret    

Disassembly of section .text._ZNSt16allocator_traitsISaIiEE8allocateERS0_m:

0000000000000000 <_ZNSt16allocator_traitsISaIiEE8allocateERS0_m>:
   0:	f3 0f 1e fa          	endbr64 
   4:	55                   	push   %rbp
   5:	48 89 e5             	mov    %rsp,%rbp
   8:	48 83 ec 10          	sub    $0x10,%rsp
   c:	48 89 7d f8          	mov    %rdi,-0x8(%rbp)
  10:	48 89 75 f0          	mov    %rsi,-0x10(%rbp)
  14:	48 8b 4d f0          	mov    -0x10(%rbp),%rcx
  18:	48 8b 45 f8          	mov    -0x8(%rbp),%rax
  1c:	ba 00 00 00 00       	mov    $0x0,%edx
  21:	48 89 ce             	mov    %rcx,%rsi
  24:	48 89 c7             	mov    %rax,%rdi
  27:	e8 00 00 00 00       	call   2c <_ZNSt16allocator_traitsISaIiEE8allocateERS0_m+0x2c>
  2c:	c9                   	leave  
  2d:	c3                   	ret    

Disassembly of section .text._ZNSt6vectorIiSaIiEE14_S_do_relocateEPiS2_S2_RS0_St17integral_constantIbLb1EE:

0000000000000000 <_ZNSt6vectorIiSaIiEE14_S_do_relocateEPiS2_S2_RS0_St17integral_constantIbLb1EE>:
   0:	f3 0f 1e fa          	endbr64 
   4:	55                   	push   %rbp
   5:	48 89 e5             	mov    %rsp,%rbp
   8:	48 83 ec 20          	sub    $0x20,%rsp
   c:	48 89 7d f8          	mov    %rdi,-0x8(%rbp)
  10:	48 89 75 f0          	mov    %rsi,-0x10(%rbp)
  14:	48 89 55 e8          	mov    %rdx,-0x18(%rbp)
  18:	48 89 4d e0          	mov    %rcx,-0x20(%rbp)
  1c:	48 8b 4d e0          	mov    -0x20(%rbp),%rcx
  20:	48 8b 55 e8          	mov    -0x18(%rbp),%rdx
  24:	48 8b 75 f0          	mov    -0x10(%rbp),%rsi
  28:	48 8b 45 f8          	mov    -0x8(%rbp),%rax
  2c:	48 89 c7             	mov    %rax,%rdi
  2f:	e8 00 00 00 00       	call   34 <_ZNSt6vectorIiSaIiEE14_S_do_relocateEPiS2_S2_RS0_St17integral_constantIbLb1EE+0x34>
  34:	c9                   	leave  
  35:	c3                   	ret    

Disassembly of section .text._ZN9__gnu_cxx13new_allocatorI4HeapE10deallocateEPS1_m:

0000000000000000 <_ZN9__gnu_cxx13new_allocatorI4HeapE10deallocateEPS1_m>:
   0:	f3 0f 1e fa          	endbr64 
   4:	55                   	push   %rbp
   5:	48 89 e5             	mov    %rsp,%rbp
   8:	48 83 ec 20          	sub    $0x20,%rsp
   c:	48 89 7d f8          	mov    %rdi,-0x8(%rbp)
  10:	48 89 75 f0          	mov    %rsi,-0x10(%rbp)
  14:	48 89 55 e8          	mov    %rdx,-0x18(%rbp)
  18:	48 8b 45 e8          	mov    -0x18(%rbp),%rax
  1c:	48 c1 e0 05          	shl    $0x5,%rax
  20:	48 89 c2             	mov    %rax,%rdx
  23:	48 8b 45 f0          	mov    -0x10(%rbp),%rax
  27:	48 89 d6             	mov    %rdx,%rsi
  2a:	48 89 c7             	mov    %rax,%rdi
  2d:	e8 00 00 00 00       	call   32 <_ZN9__gnu_cxx13new_allocatorI4HeapE10deallocateEPS1_m+0x32>
  32:	c9                   	leave  
  33:	c3                   	ret    

Disassembly of section .text._ZNSt12_Destroy_auxILb0EE9__destroyIP4HeapEEvT_S4_:

0000000000000000 <_ZNSt12_Destroy_auxILb0EE9__destroyIP4HeapEEvT_S4_>:
   0:	f3 0f 1e fa          	endbr64 
   4:	55                   	push   %rbp
   5:	48 89 e5             	mov    %rsp,%rbp
   8:	48 83 ec 10          	sub    $0x10,%rsp
   c:	48 89 7d f8          	mov    %rdi,-0x8(%rbp)
  10:	48 89 75 f0          	mov    %rsi,-0x10(%rbp)
  14:	eb 19                	jmp    2f <_ZNSt12_Destroy_auxILb0EE9__destroyIP4HeapEEvT_S4_+0x2f>
  16:	48 8b 45 f8          	mov    -0x8(%rbp),%rax
  1a:	48 89 c7             	mov    %rax,%rdi
  1d:	e8 00 00 00 00       	call   22 <_ZNSt12_Destroy_auxILb0EE9__destroyIP4HeapEEvT_S4_+0x22>
  22:	48 89 c7             	mov    %rax,%rdi
  25:	e8 00 00 00 00       	call   2a <_ZNSt12_Destroy_auxILb0EE9__destroyIP4HeapEEvT_S4_+0x2a>
  2a:	48 83 45 f8 20       	addq   $0x20,-0x8(%rbp)
  2f:	48 8b 45 f8          	mov    -0x8(%rbp),%rax
  33:	48 3b 45 f0          	cmp    -0x10(%rbp),%rax
  37:	75 dd                	jne    16 <_ZNSt12_Destroy_auxILb0EE9__destroyIP4HeapEEvT_S4_+0x16>
  39:	90                   	nop
  3a:	90                   	nop
  3b:	c9                   	leave  
  3c:	c3                   	ret    

Disassembly of section .text._ZNSt6vectorIiSaIiEEC2ERKS1_:

0000000000000000 <_ZNSt6vectorIiSaIiEEC1ERKS1_>:
   0:	f3 0f 1e fa          	endbr64 
   4:	55                   	push   %rbp
   5:	48 89 e5             	mov    %rsp,%rbp
   8:	41 55                	push   %r13
   a:	41 54                	push   %r12
   c:	53                   	push   %rbx
   d:	48 83 ec 28          	sub    $0x28,%rsp
  11:	48 89 7d c8          	mov    %rdi,-0x38(%rbp)
  15:	48 89 75 c0          	mov    %rsi,-0x40(%rbp)
  19:	64 48 8b 04 25 28 00 	mov    %fs:0x28,%rax
  20:	00 00 
  22:	48 89 45 d8          	mov    %rax,-0x28(%rbp)
  26:	31 c0                	xor    %eax,%eax
  28:	48 8b 5d c8          	mov    -0x38(%rbp),%rbx
  2c:	48 8b 45 c0          	mov    -0x40(%rbp),%rax
  30:	48 89 c7             	mov    %rax,%rdi
  33:	e8 00 00 00 00       	call   38 <_ZNSt6vectorIiSaIiEEC1ERKS1_+0x38>
  38:	48 89 c2             	mov    %rax,%rdx
  3b:	48 8d 45 d7          	lea    -0x29(%rbp),%rax
  3f:	48 89 d6             	mov    %rdx,%rsi
  42:	48 89 c7             	mov    %rax,%rdi
  45:	e8 00 00 00 00       	call   4a <_ZNSt6vectorIiSaIiEEC1ERKS1_+0x4a>
  4a:	48 8b 45 c0          	mov    -0x40(%rbp),%rax
  4e:	48 89 c7             	mov    %rax,%rdi
  51:	e8 00 00 00 00       	call   56 <_ZNSt6vectorIiSaIiEEC1ERKS1_+0x56>
  56:	48 89 c1             	mov    %rax,%rcx
  59:	48 8d 45 d7          	lea    -0x29(%rbp),%rax
  5d:	48 89 c2             	mov    %rax,%rdx
  60:	48 89 ce             	mov    %rcx,%rsi
  63:	48 89 df             	mov    %rbx,%rdi
  66:	e8 00 00 00 00       	call   6b <_ZNSt6vectorIiSaIiEEC1ERKS1_+0x6b>
  6b:	48 8d 45 d7          	lea    -0x29(%rbp),%rax
  6f:	48 89 c7             	mov    %rax,%rdi
  72:	e8 00 00 00 00       	call   77 <_ZNSt6vectorIiSaIiEEC1ERKS1_+0x77>
  77:	48 8b 45 c8          	mov    -0x38(%rbp),%rax
  7b:	48 89 c7             	mov    %rax,%rdi
  7e:	e8 00 00 00 00       	call   83 <_ZNSt6vectorIiSaIiEEC1ERKS1_+0x83>
  83:	49 89 c5             	mov    %rax,%r13
  86:	48 8b 45 c8          	mov    -0x38(%rbp),%rax
  8a:	48 8b 18             	mov    (%rax),%rbx
  8d:	48 8b 45 c0          	mov    -0x40(%rbp),%rax
  91:	48 89 c7             	mov    %rax,%rdi
  94:	e8 00 00 00 00       	call   99 <_ZNSt6vectorIiSaIiEEC1ERKS1_+0x99>
  99:	49 89 c4             	mov    %rax,%r12
  9c:	48 8b 45 c0          	mov    -0x40(%rbp),%rax
  a0:	48 89 c7             	mov    %rax,%rdi
  a3:	e8 00 00 00 00       	call   a8 <_ZNSt6vectorIiSaIiEEC1ERKS1_+0xa8>
  a8:	4c 89 e9             	mov    %r13,%rcx
  ab:	48 89 da             	mov    %rbx,%rdx
  ae:	4c 89 e6             	mov    %r12,%rsi
  b1:	48 89 c7             	mov    %rax,%rdi
  b4:	e8 00 00 00 00       	call   b9 <_ZNSt6vectorIiSaIiEEC1ERKS1_+0xb9>
  b9:	48 8b 55 c8          	mov    -0x38(%rbp),%rdx
  bd:	48 89 42 08          	mov    %rax,0x8(%rdx)
  c1:	90                   	nop
  c2:	48 8b 45 d8          	mov    -0x28(%rbp),%rax
  c6:	64 48 2b 04 25 28 00 	sub    %fs:0x28,%rax
  cd:	00 00 
  cf:	74 43                	je     114 <_ZNSt6vectorIiSaIiEEC1ERKS1_+0x114>
  d1:	eb 3c                	jmp    10f <_ZNSt6vectorIiSaIiEEC1ERKS1_+0x10f>
  d3:	f3 0f 1e fa          	endbr64 
  d7:	48 89 c3             	mov    %rax,%rbx
  da:	48 8d 45 d7          	lea    -0x29(%rbp),%rax
  de:	48 89 c7             	mov    %rax,%rdi
  e1:	e8 00 00 00 00       	call   e6 <_ZNSt6vectorIiSaIiEEC1ERKS1_+0xe6>
  e6:	48 89 d8             	mov    %rbx,%rax
  e9:	48 89 c7             	mov    %rax,%rdi
  ec:	e8 00 00 00 00       	call   f1 <_ZNSt6vectorIiSaIiEEC1ERKS1_+0xf1>
  f1:	f3 0f 1e fa          	endbr64 
  f5:	48 89 c3             	mov    %rax,%rbx
  f8:	48 8b 45 c8          	mov    -0x38(%rbp),%rax
  fc:	48 89 c7             	mov    %rax,%rdi
  ff:	e8 00 00 00 00       	call   104 <_ZNSt6vectorIiSaIiEEC1ERKS1_+0x104>
 104:	48 89 d8             	mov    %rbx,%rax
 107:	48 89 c7             	mov    %rax,%rdi
 10a:	e8 00 00 00 00       	call   10f <_ZNSt6vectorIiSaIiEEC1ERKS1_+0x10f>
 10f:	e8 00 00 00 00       	call   114 <_ZNSt6vectorIiSaIiEEC1ERKS1_+0x114>
 114:	48 83 c4 28          	add    $0x28,%rsp
 118:	5b                   	pop    %rbx
 119:	41 5c                	pop    %r12
 11b:	41 5d                	pop    %r13
 11d:	5d                   	pop    %rbp
 11e:	c3                   	ret    

Disassembly of section .text._ZNKSt6vectorI4HeapSaIS0_EE8max_sizeEv:

0000000000000000 <_ZNKSt6vectorI4HeapSaIS0_EE8max_sizeEv>:
   0:	f3 0f 1e fa          	endbr64 
   4:	55                   	push   %rbp
   5:	48 89 e5             	mov    %rsp,%rbp
   8:	48 83 ec 10          	sub    $0x10,%rsp
   c:	48 89 7d f8          	mov    %rdi,-0x8(%rbp)
  10:	48 8b 45 f8          	mov    -0x8(%rbp),%rax
  14:	48 89 c7             	mov    %rax,%rdi
  17:	e8 00 00 00 00       	call   1c <_ZNKSt6vectorI4HeapSaIS0_EE8max_sizeEv+0x1c>
  1c:	48 89 c7             	mov    %rax,%rdi
  1f:	e8 00 00 00 00       	call   24 <_ZNKSt6vectorI4HeapSaIS0_EE8max_sizeEv+0x24>
  24:	c9                   	leave  
  25:	c3                   	ret    

Disassembly of section .text._ZNSt16allocator_traitsISaI4HeapEE8allocateERS1_m:

0000000000000000 <_ZNSt16allocator_traitsISaI4HeapEE8allocateERS1_m>:
   0:	f3 0f 1e fa          	endbr64 
   4:	55                   	push   %rbp
   5:	48 89 e5             	mov    %rsp,%rbp
   8:	48 83 ec 10          	sub    $0x10,%rsp
   c:	48 89 7d f8          	mov    %rdi,-0x8(%rbp)
  10:	48 89 75 f0          	mov    %rsi,-0x10(%rbp)
  14:	48 8b 4d f0          	mov    -0x10(%rbp),%rcx
  18:	48 8b 45 f8          	mov    -0x8(%rbp),%rax
  1c:	ba 00 00 00 00       	mov    $0x0,%edx
  21:	48 89 ce             	mov    %rcx,%rsi
  24:	48 89 c7             	mov    %rax,%rdi
  27:	e8 00 00 00 00       	call   2c <_ZNSt16allocator_traitsISaI4HeapEE8allocateERS1_m+0x2c>
  2c:	c9                   	leave  
  2d:	c3                   	ret    

Disassembly of section .text._ZNSt6vectorI4HeapSaIS0_EE14_S_do_relocateEPS0_S3_S3_RS1_St17integral_constantIbLb1EE:

0000000000000000 <_ZNSt6vectorI4HeapSaIS0_EE14_S_do_relocateEPS0_S3_S3_RS1_St17integral_constantIbLb1EE>:
   0:	f3 0f 1e fa          	endbr64 
   4:	55                   	push   %rbp
   5:	48 89 e5             	mov    %rsp,%rbp
   8:	48 83 ec 20          	sub    $0x20,%rsp
   c:	48 89 7d f8          	mov    %rdi,-0x8(%rbp)
  10:	48 89 75 f0          	mov    %rsi,-0x10(%rbp)
  14:	48 89 55 e8          	mov    %rdx,-0x18(%rbp)
  18:	48 89 4d e0          	mov    %rcx,-0x20(%rbp)
  1c:	48 8b 4d e0          	mov    -0x20(%rbp),%rcx
  20:	48 8b 55 e8          	mov    -0x18(%rbp),%rdx
  24:	48 8b 75 f0          	mov    -0x10(%rbp),%rsi
  28:	48 8b 45 f8          	mov    -0x8(%rbp),%rax
  2c:	48 89 c7             	mov    %rax,%rdi
  2f:	e8 00 00 00 00       	call   34 <_ZNSt6vectorI4HeapSaIS0_EE14_S_do_relocateEPS0_S3_S3_RS1_St17integral_constantIbLb1EE+0x34>
  34:	c9                   	leave  
  35:	c3                   	ret    

Disassembly of section .text._ZN9__gnu_cxx13new_allocatorI4HeapE7destroyIS1_EEvPT_:

0000000000000000 <_ZN9__gnu_cxx13new_allocatorI4HeapE7destroyIS1_EEvPT_>:
   0:	f3 0f 1e fa          	endbr64 
   4:	55                   	push   %rbp
   5:	48 89 e5             	mov    %rsp,%rbp
   8:	48 83 ec 10          	sub    $0x10,%rsp
   c:	48 89 7d f8          	mov    %rdi,-0x8(%rbp)
  10:	48 89 75 f0          	mov    %rsi,-0x10(%rbp)
  14:	48 8b 45 f0          	mov    -0x10(%rbp),%rax
  18:	48 89 c7             	mov    %rax,%rdi
  1b:	e8 00 00 00 00       	call   20 <_ZN9__gnu_cxx13new_allocatorI4HeapE7destroyIS1_EEvPT_+0x20>
  20:	90                   	nop
  21:	c9                   	leave  
  22:	c3                   	ret    

Disassembly of section .text._ZN9__gnu_cxx13new_allocatorIiE9constructIiJiEEEvPT_DpOT0_:

0000000000000000 <_ZN9__gnu_cxx13new_allocatorIiE9constructIiJiEEEvPT_DpOT0_>:
   0:	f3 0f 1e fa          	endbr64 
   4:	55                   	push   %rbp
   5:	48 89 e5             	mov    %rsp,%rbp
   8:	53                   	push   %rbx
   9:	48 83 ec 28          	sub    $0x28,%rsp
   d:	48 89 7d e8          	mov    %rdi,-0x18(%rbp)
  11:	48 89 75 e0          	mov    %rsi,-0x20(%rbp)
  15:	48 89 55 d8          	mov    %rdx,-0x28(%rbp)
  19:	48 8b 45 d8          	mov    -0x28(%rbp),%rax
  1d:	48 89 c7             	mov    %rax,%rdi
  20:	e8 00 00 00 00       	call   25 <_ZN9__gnu_cxx13new_allocatorIiE9constructIiJiEEEvPT_DpOT0_+0x25>
  25:	8b 18                	mov    (%rax),%ebx
  27:	48 8b 45 e0          	mov    -0x20(%rbp),%rax
  2b:	48 89 c6             	mov    %rax,%rsi
  2e:	bf 04 00 00 00       	mov    $0x4,%edi
  33:	e8 00 00 00 00       	call   38 <_ZN9__gnu_cxx13new_allocatorIiE9constructIiJiEEEvPT_DpOT0_+0x38>
  38:	89 18                	mov    %ebx,(%rax)
  3a:	90                   	nop
  3b:	48 8b 5d f8          	mov    -0x8(%rbp),%rbx
  3f:	c9                   	leave  
  40:	c3                   	ret    

Disassembly of section .text._ZN9__gnu_cxx13new_allocatorISt6vectorIiSaIiEEE10deallocateEPS3_m:

0000000000000000 <_ZN9__gnu_cxx13new_allocatorISt6vectorIiSaIiEEE10deallocateEPS3_m>:
   0:	f3 0f 1e fa          	endbr64 
   4:	55                   	push   %rbp
   5:	48 89 e5             	mov    %rsp,%rbp
   8:	48 83 ec 20          	sub    $0x20,%rsp
   c:	48 89 7d f8          	mov    %rdi,-0x8(%rbp)
  10:	48 89 75 f0          	mov    %rsi,-0x10(%rbp)
  14:	48 89 55 e8          	mov    %rdx,-0x18(%rbp)
  18:	48 8b 55 e8          	mov    -0x18(%rbp),%rdx
  1c:	48 89 d0             	mov    %rdx,%rax
  1f:	48 01 c0             	add    %rax,%rax
  22:	48 01 d0             	add    %rdx,%rax
  25:	48 c1 e0 03          	shl    $0x3,%rax
  29:	48 89 c2             	mov    %rax,%rdx
  2c:	48 8b 45 f0          	mov    -0x10(%rbp),%rax
  30:	48 89 d6             	mov    %rdx,%rsi
  33:	48 89 c7             	mov    %rax,%rdi
  36:	e8 00 00 00 00       	call   3b <_ZN9__gnu_cxx13new_allocatorISt6vectorIiSaIiEEE10deallocateEPS3_m+0x3b>
  3b:	c9                   	leave  
  3c:	c3                   	ret    

Disassembly of section .text._ZNSt12_Destroy_auxILb0EE9__destroyIPSt6vectorIiSaIiEEEEvT_S6_:

0000000000000000 <_ZNSt12_Destroy_auxILb0EE9__destroyIPSt6vectorIiSaIiEEEEvT_S6_>:
   0:	f3 0f 1e fa          	endbr64 
   4:	55                   	push   %rbp
   5:	48 89 e5             	mov    %rsp,%rbp
   8:	48 83 ec 10          	sub    $0x10,%rsp
   c:	48 89 7d f8          	mov    %rdi,-0x8(%rbp)
  10:	48 89 75 f0          	mov    %rsi,-0x10(%rbp)
  14:	eb 19                	jmp    2f <_ZNSt12_Destroy_auxILb0EE9__destroyIPSt6vectorIiSaIiEEEEvT_S6_+0x2f>
  16:	48 8b 45 f8          	mov    -0x8(%rbp),%rax
  1a:	48 89 c7             	mov    %rax,%rdi
  1d:	e8 00 00 00 00       	call   22 <_ZNSt12_Destroy_auxILb0EE9__destroyIPSt6vectorIiSaIiEEEEvT_S6_+0x22>
  22:	48 89 c7             	mov    %rax,%rdi
  25:	e8 00 00 00 00       	call   2a <_ZNSt12_Destroy_auxILb0EE9__destroyIPSt6vectorIiSaIiEEEEvT_S6_+0x2a>
  2a:	48 83 45 f8 18       	addq   $0x18,-0x8(%rbp)
  2f:	48 8b 45 f8          	mov    -0x8(%rbp),%rax
  33:	48 3b 45 f0          	cmp    -0x10(%rbp),%rax
  37:	75 dd                	jne    16 <_ZNSt12_Destroy_auxILb0EE9__destroyIPSt6vectorIiSaIiEEEEvT_S6_+0x16>
  39:	90                   	nop
  3a:	90                   	nop
  3b:	c9                   	leave  
  3c:	c3                   	ret    

Disassembly of section .text._ZNSaIiEC2ERKS_:

0000000000000000 <_ZNSaIiEC1ERKS_>:
   0:	f3 0f 1e fa          	endbr64 
   4:	55                   	push   %rbp
   5:	48 89 e5             	mov    %rsp,%rbp
   8:	48 83 ec 10          	sub    $0x10,%rsp
   c:	48 89 7d f8          	mov    %rdi,-0x8(%rbp)
  10:	48 89 75 f0          	mov    %rsi,-0x10(%rbp)
  14:	48 8b 55 f0          	mov    -0x10(%rbp),%rdx
  18:	48 8b 45 f8          	mov    -0x8(%rbp),%rax
  1c:	48 89 d6             	mov    %rdx,%rsi
  1f:	48 89 c7             	mov    %rax,%rdi
  22:	e8 00 00 00 00       	call   27 <_ZNSaIiEC1ERKS_+0x27>
  27:	90                   	nop
  28:	c9                   	leave  
  29:	c3                   	ret    

Disassembly of section .text._ZNSt6vectorIiSaIiEE11_S_max_sizeERKS0_:

0000000000000000 <_ZNSt6vectorIiSaIiEE11_S_max_sizeERKS0_>:
   0:	f3 0f 1e fa          	endbr64 
   4:	55                   	push   %rbp
   5:	48 89 e5             	mov    %rsp,%rbp
   8:	48 83 ec 30          	sub    $0x30,%rsp
   c:	48 89 7d d8          	mov    %rdi,-0x28(%rbp)
  10:	64 48 8b 04 25 28 00 	mov    %fs:0x28,%rax
  17:	00 00 
  19:	48 89 45 f8          	mov    %rax,-0x8(%rbp)
  1d:	31 c0                	xor    %eax,%eax
  1f:	48 b8 ff ff ff ff ff 	movabs $0x1fffffffffffffff,%rax
  26:	ff ff 1f 
  29:	48 89 45 e8          	mov    %rax,-0x18(%rbp)
  2d:	48 8b 45 d8          	mov    -0x28(%rbp),%rax
  31:	48 89 c7             	mov    %rax,%rdi
  34:	e8 00 00 00 00       	call   39 <_ZNSt6vectorIiSaIiEE11_S_max_sizeERKS0_+0x39>
  39:	48 89 45 f0          	mov    %rax,-0x10(%rbp)
  3d:	48 8d 55 f0          	lea    -0x10(%rbp),%rdx
  41:	48 8d 45 e8          	lea    -0x18(%rbp),%rax
  45:	48 89 d6             	mov    %rdx,%rsi
  48:	48 89 c7             	mov    %rax,%rdi
  4b:	e8 00 00 00 00       	call   50 <_ZNSt6vectorIiSaIiEE11_S_max_sizeERKS0_+0x50>
  50:	48 8b 00             	mov    (%rax),%rax
  53:	48 8b 55 f8          	mov    -0x8(%rbp),%rdx
  57:	64 48 2b 14 25 28 00 	sub    %fs:0x28,%rdx
  5e:	00 00 
  60:	74 05                	je     67 <_ZNSt6vectorIiSaIiEE11_S_max_sizeERKS0_+0x67>
  62:	e8 00 00 00 00       	call   67 <_ZNSt6vectorIiSaIiEE11_S_max_sizeERKS0_+0x67>
  67:	c9                   	leave  
  68:	c3                   	ret    

Disassembly of section .text._ZSt18uninitialized_copyIPKiPiET0_T_S4_S3_:

0000000000000000 <_ZSt18uninitialized_copyIPKiPiET0_T_S4_S3_>:
   0:	f3 0f 1e fa          	endbr64 
   4:	55                   	push   %rbp
   5:	48 89 e5             	mov    %rsp,%rbp
   8:	48 83 ec 30          	sub    $0x30,%rsp
   c:	48 89 7d e8          	mov    %rdi,-0x18(%rbp)
  10:	48 89 75 e0          	mov    %rsi,-0x20(%rbp)
  14:	48 89 55 d8          	mov    %rdx,-0x28(%rbp)
  18:	c6 45 ff 01          	movb   $0x1,-0x1(%rbp)
  1c:	48 8b 55 d8          	mov    -0x28(%rbp),%rdx
  20:	48 8b 4d e0          	mov    -0x20(%rbp),%rcx
  24:	48 8b 45 e8          	mov    -0x18(%rbp),%rax
  28:	48 89 ce             	mov    %rcx,%rsi
  2b:	48 89 c7             	mov    %rax,%rdi
  2e:	e8 00 00 00 00       	call   33 <_ZSt18uninitialized_copyIPKiPiET0_T_S4_S3_+0x33>
  33:	c9                   	leave  
  34:	c3                   	ret    

Disassembly of section .text._ZNSt12_Vector_baseIiSaIiEEC2EOS1_:

0000000000000000 <_ZNSt12_Vector_baseIiSaIiEEC1EOS1_>:
   0:	f3 0f 1e fa          	endbr64 
   4:	55                   	push   %rbp
   5:	48 89 e5             	mov    %rsp,%rbp
   8:	48 83 ec 10          	sub    $0x10,%rsp
   c:	48 89 7d f8          	mov    %rdi,-0x8(%rbp)
  10:	48 89 75 f0          	mov    %rsi,-0x10(%rbp)
  14:	48 8b 45 f8          	mov    -0x8(%rbp),%rax
  18:	48 8b 55 f0          	mov    -0x10(%rbp),%rdx
  1c:	48 89 d6             	mov    %rdx,%rsi
  1f:	48 89 c7             	mov    %rax,%rdi
  22:	e8 00 00 00 00       	call   27 <_ZNSt12_Vector_baseIiSaIiEEC1EOS1_+0x27>
  27:	90                   	nop
  28:	c9                   	leave  
  29:	c3                   	ret    

Disassembly of section .text._ZNSt6vectorIiSaIiEEC2EOS1_:

0000000000000000 <_ZNSt6vectorIiSaIiEEC1EOS1_>:
   0:	f3 0f 1e fa          	endbr64 
   4:	55                   	push   %rbp
   5:	48 89 e5             	mov    %rsp,%rbp
   8:	48 83 ec 10          	sub    $0x10,%rsp
   c:	48 89 7d f8          	mov    %rdi,-0x8(%rbp)
  10:	48 89 75 f0          	mov    %rsi,-0x10(%rbp)
  14:	48 8b 45 f8          	mov    -0x8(%rbp),%rax
  18:	48 8b 55 f0          	mov    -0x10(%rbp),%rdx
  1c:	48 89 d6             	mov    %rdx,%rsi
  1f:	48 89 c7             	mov    %rax,%rdi
  22:	e8 00 00 00 00       	call   27 <_ZNSt6vectorIiSaIiEEC1EOS1_+0x27>
  27:	90                   	nop
  28:	c9                   	leave  
  29:	c3                   	ret    

Disassembly of section .text._ZN9__gnu_cxx13new_allocatorISt6vectorIiSaIiEEE9constructIS3_JS3_EEEvPT_DpOT0_:

0000000000000000 <_ZN9__gnu_cxx13new_allocatorISt6vectorIiSaIiEEE9constructIS3_JS3_EEEvPT_DpOT0_>:
   0:	f3 0f 1e fa          	endbr64 
   4:	55                   	push   %rbp
   5:	48 89 e5             	mov    %rsp,%rbp
   8:	53                   	push   %rbx
   9:	48 83 ec 28          	sub    $0x28,%rsp
   d:	48 89 7d e8          	mov    %rdi,-0x18(%rbp)
  11:	48 89 75 e0          	mov    %rsi,-0x20(%rbp)
  15:	48 89 55 d8          	mov    %rdx,-0x28(%rbp)
  19:	48 8b 45 d8          	mov    -0x28(%rbp),%rax
  1d:	48 89 c7             	mov    %rax,%rdi
  20:	e8 00 00 00 00       	call   25 <_ZN9__gnu_cxx13new_allocatorISt6vectorIiSaIiEEE9constructIS3_JS3_EEEvPT_DpOT0_+0x25>
  25:	48 89 c3             	mov    %rax,%rbx
  28:	48 8b 45 e0          	mov    -0x20(%rbp),%rax
  2c:	48 89 c6             	mov    %rax,%rsi
  2f:	bf 18 00 00 00       	mov    $0x18,%edi
  34:	e8 00 00 00 00       	call   39 <_ZN9__gnu_cxx13new_allocatorISt6vectorIiSaIiEEE9constructIS3_JS3_EEEvPT_DpOT0_+0x39>
  39:	48 89 de             	mov    %rbx,%rsi
  3c:	48 89 c7             	mov    %rax,%rdi
  3f:	e8 00 00 00 00       	call   44 <_ZN9__gnu_cxx13new_allocatorISt6vectorIiSaIiEEE9constructIS3_JS3_EEEvPT_DpOT0_+0x44>
  44:	90                   	nop
  45:	48 8b 5d f8          	mov    -0x8(%rbp),%rbx
  49:	c9                   	leave  
  4a:	c3                   	ret    

Disassembly of section .text._ZNKSt6vectorIS_IiSaIiEESaIS1_EE12_M_check_lenEmPKc:

0000000000000000 <_ZNKSt6vectorIS_IiSaIiEESaIS1_EE12_M_check_lenEmPKc>:
   0:	f3 0f 1e fa          	endbr64 
   4:	55                   	push   %rbp
   5:	48 89 e5             	mov    %rsp,%rbp
   8:	53                   	push   %rbx
   9:	48 83 ec 48          	sub    $0x48,%rsp
   d:	48 89 7d c8          	mov    %rdi,-0x38(%rbp)
  11:	48 89 75 c0          	mov    %rsi,-0x40(%rbp)
  15:	48 89 55 b8          	mov    %rdx,-0x48(%rbp)
  19:	64 48 8b 04 25 28 00 	mov    %fs:0x28,%rax
  20:	00 00 
  22:	48 89 45 e8          	mov    %rax,-0x18(%rbp)
  26:	31 c0                	xor    %eax,%eax
  28:	48 8b 45 c8          	mov    -0x38(%rbp),%rax
  2c:	48 89 c7             	mov    %rax,%rdi
  2f:	e8 00 00 00 00       	call   34 <_ZNKSt6vectorIS_IiSaIiEESaIS1_EE12_M_check_lenEmPKc+0x34>
  34:	48 89 c3             	mov    %rax,%rbx
  37:	48 8b 45 c8          	mov    -0x38(%rbp),%rax
  3b:	48 89 c7             	mov    %rax,%rdi
  3e:	e8 00 00 00 00       	call   43 <_ZNKSt6vectorIS_IiSaIiEESaIS1_EE12_M_check_lenEmPKc+0x43>
  43:	48 29 c3             	sub    %rax,%rbx
  46:	48 89 da             	mov    %rbx,%rdx
  49:	48 8b 45 c0          	mov    -0x40(%rbp),%rax
  4d:	48 39 c2             	cmp    %rax,%rdx
  50:	0f 92 c0             	setb   %al
  53:	84 c0                	test   %al,%al
  55:	74 0c                	je     63 <_ZNKSt6vectorIS_IiSaIiEESaIS1_EE12_M_check_lenEmPKc+0x63>
  57:	48 8b 45 b8          	mov    -0x48(%rbp),%rax
  5b:	48 89 c7             	mov    %rax,%rdi
  5e:	e8 00 00 00 00       	call   63 <_ZNKSt6vectorIS_IiSaIiEESaIS1_EE12_M_check_lenEmPKc+0x63>
  63:	48 8b 45 c8          	mov    -0x38(%rbp),%rax
  67:	48 89 c7             	mov    %rax,%rdi
  6a:	e8 00 00 00 00       	call   6f <_ZNKSt6vectorIS_IiSaIiEESaIS1_EE12_M_check_lenEmPKc+0x6f>
  6f:	48 89 c3             	mov    %rax,%rbx
  72:	48 8b 45 c8          	mov    -0x38(%rbp),%rax
  76:	48 89 c7             	mov    %rax,%rdi
  79:	e8 00 00 00 00       	call   7e <_ZNKSt6vectorIS_IiSaIiEESaIS1_EE12_M_check_lenEmPKc+0x7e>
  7e:	48 89 45 d8          	mov    %rax,-0x28(%rbp)
  82:	48 8d 55 c0          	lea    -0x40(%rbp),%rdx
  86:	48 8d 45 d8          	lea    -0x28(%rbp),%rax
  8a:	48 89 d6             	mov    %rdx,%rsi
  8d:	48 89 c7             	mov    %rax,%rdi
  90:	e8 00 00 00 00       	call   95 <_ZNKSt6vectorIS_IiSaIiEESaIS1_EE12_M_check_lenEmPKc+0x95>
  95:	48 8b 00             	mov    (%rax),%rax
  98:	48 01 d8             	add    %rbx,%rax
  9b:	48 89 45 e0          	mov    %rax,-0x20(%rbp)
  9f:	48 8b 45 c8          	mov    -0x38(%rbp),%rax
  a3:	48 89 c7             	mov    %rax,%rdi
  a6:	e8 00 00 00 00       	call   ab <_ZNKSt6vectorIS_IiSaIiEESaIS1_EE12_M_check_lenEmPKc+0xab>
  ab:	48 39 45 e0          	cmp    %rax,-0x20(%rbp)
  af:	72 12                	jb     c3 <_ZNKSt6vectorIS_IiSaIiEESaIS1_EE12_M_check_lenEmPKc+0xc3>
  b1:	48 8b 45 c8          	mov    -0x38(%rbp),%rax
  b5:	48 89 c7             	mov    %rax,%rdi
  b8:	e8 00 00 00 00       	call   bd <_ZNKSt6vectorIS_IiSaIiEESaIS1_EE12_M_check_lenEmPKc+0xbd>
  bd:	48 39 45 e0          	cmp    %rax,-0x20(%rbp)
  c1:	76 0e                	jbe    d1 <_ZNKSt6vectorIS_IiSaIiEESaIS1_EE12_M_check_lenEmPKc+0xd1>
  c3:	48 8b 45 c8          	mov    -0x38(%rbp),%rax
  c7:	48 89 c7             	mov    %rax,%rdi
  ca:	e8 00 00 00 00       	call   cf <_ZNKSt6vectorIS_IiSaIiEESaIS1_EE12_M_check_lenEmPKc+0xcf>
  cf:	eb 04                	jmp    d5 <_ZNKSt6vectorIS_IiSaIiEESaIS1_EE12_M_check_lenEmPKc+0xd5>
  d1:	48 8b 45 e0          	mov    -0x20(%rbp),%rax
  d5:	48 8b 55 e8          	mov    -0x18(%rbp),%rdx
  d9:	64 48 2b 14 25 28 00 	sub    %fs:0x28,%rdx
  e0:	00 00 
  e2:	74 05                	je     e9 <_ZNKSt6vectorIS_IiSaIiEESaIS1_EE12_M_check_lenEmPKc+0xe9>
  e4:	e8 00 00 00 00       	call   e9 <_ZNKSt6vectorIS_IiSaIiEESaIS1_EE12_M_check_lenEmPKc+0xe9>
  e9:	48 8b 5d f8          	mov    -0x8(%rbp),%rbx
  ed:	c9                   	leave  
  ee:	c3                   	ret    

Disassembly of section .text._ZN9__gnu_cxxmiIPSt6vectorIiSaIiEES1_IS3_SaIS3_EEEENS_17__normal_iteratorIT_T0_E15difference_typeERKSA_SD_:

0000000000000000 <_ZN9__gnu_cxxmiIPSt6vectorIiSaIiEES1_IS3_SaIS3_EEEENS_17__normal_iteratorIT_T0_E15difference_typeERKSA_SD_>:
   0:	f3 0f 1e fa          	endbr64 
   4:	55                   	push   %rbp
   5:	48 89 e5             	mov    %rsp,%rbp
   8:	53                   	push   %rbx
   9:	48 83 ec 18          	sub    $0x18,%rsp
   d:	48 89 7d e8          	mov    %rdi,-0x18(%rbp)
  11:	48 89 75 e0          	mov    %rsi,-0x20(%rbp)
  15:	48 8b 45 e8          	mov    -0x18(%rbp),%rax
  19:	48 89 c7             	mov    %rax,%rdi
  1c:	e8 00 00 00 00       	call   21 <_ZN9__gnu_cxxmiIPSt6vectorIiSaIiEES1_IS3_SaIS3_EEEENS_17__normal_iteratorIT_T0_E15difference_typeERKSA_SD_+0x21>
  21:	48 8b 18             	mov    (%rax),%rbx
  24:	48 8b 45 e0          	mov    -0x20(%rbp),%rax
  28:	48 89 c7             	mov    %rax,%rdi
  2b:	e8 00 00 00 00       	call   30 <_ZN9__gnu_cxxmiIPSt6vectorIiSaIiEES1_IS3_SaIS3_EEEENS_17__normal_iteratorIT_T0_E15difference_typeERKSA_SD_+0x30>
  30:	48 8b 10             	mov    (%rax),%rdx
  33:	48 89 d8             	mov    %rbx,%rax
  36:	48 29 d0             	sub    %rdx,%rax
  39:	48 c1 f8 03          	sar    $0x3,%rax
  3d:	48 89 c2             	mov    %rax,%rdx
  40:	48 b8 ab aa aa aa aa 	movabs $0xaaaaaaaaaaaaaaab,%rax
  47:	aa aa aa 
  4a:	48 0f af c2          	imul   %rdx,%rax
  4e:	48 8b 5d f8          	mov    -0x8(%rbp),%rbx
  52:	c9                   	leave  
  53:	c3                   	ret    

Disassembly of section .text._ZNSt6vectorIS_IiSaIiEESaIS1_EE11_S_relocateEPS1_S4_S4_RS2_:

0000000000000000 <_ZNSt6vectorIS_IiSaIiEESaIS1_EE11_S_relocateEPS1_S4_S4_RS2_>:
   0:	f3 0f 1e fa          	endbr64 
   4:	55                   	push   %rbp
   5:	48 89 e5             	mov    %rsp,%rbp
   8:	48 83 ec 20          	sub    $0x20,%rsp
   c:	48 89 7d f8          	mov    %rdi,-0x8(%rbp)
  10:	48 89 75 f0          	mov    %rsi,-0x10(%rbp)
  14:	48 89 55 e8          	mov    %rdx,-0x18(%rbp)
  18:	48 89 4d e0          	mov    %rcx,-0x20(%rbp)
  1c:	48 8b 4d e0          	mov    -0x20(%rbp),%rcx
  20:	48 8b 55 e8          	mov    -0x18(%rbp),%rdx
  24:	48 8b 75 f0          	mov    -0x10(%rbp),%rsi
  28:	48 8b 45 f8          	mov    -0x8(%rbp),%rax
  2c:	48 89 c7             	mov    %rax,%rdi
  2f:	e8 00 00 00 00       	call   34 <_ZNSt6vectorIS_IiSaIiEESaIS1_EE11_S_relocateEPS1_S4_S4_RS2_+0x34>
  34:	c9                   	leave  
  35:	c3                   	ret    

Disassembly of section .text._ZNSt16allocator_traitsISaISt6vectorIiSaIiEEEE7destroyIS2_EEvRS3_PT_:

0000000000000000 <_ZNSt16allocator_traitsISaISt6vectorIiSaIiEEEE7destroyIS2_EEvRS3_PT_>:
   0:	f3 0f 1e fa          	endbr64 
   4:	55                   	push   %rbp
   5:	48 89 e5             	mov    %rsp,%rbp
   8:	48 83 ec 10          	sub    $0x10,%rsp
   c:	48 89 7d f8          	mov    %rdi,-0x8(%rbp)
  10:	48 89 75 f0          	mov    %rsi,-0x10(%rbp)
  14:	48 8b 55 f0          	mov    -0x10(%rbp),%rdx
  18:	48 8b 45 f8          	mov    -0x8(%rbp),%rax
  1c:	48 89 d6             	mov    %rdx,%rsi
  1f:	48 89 c7             	mov    %rax,%rdi
  22:	e8 00 00 00 00       	call   27 <_ZNSt16allocator_traitsISaISt6vectorIiSaIiEEEE7destroyIS2_EEvRS3_PT_+0x27>
  27:	90                   	nop
  28:	c9                   	leave  
  29:	c3                   	ret    

Disassembly of section .text._ZNSt6vectorIS_IiSaIiEESaIS1_EE11_S_max_sizeERKS2_:

0000000000000000 <_ZNSt6vectorIS_IiSaIiEESaIS1_EE11_S_max_sizeERKS2_>:
   0:	f3 0f 1e fa          	endbr64 
   4:	55                   	push   %rbp
   5:	48 89 e5             	mov    %rsp,%rbp
   8:	48 83 ec 30          	sub    $0x30,%rsp
   c:	48 89 7d d8          	mov    %rdi,-0x28(%rbp)
  10:	64 48 8b 04 25 28 00 	mov    %fs:0x28,%rax
  17:	00 00 
  19:	48 89 45 f8          	mov    %rax,-0x8(%rbp)
  1d:	31 c0                	xor    %eax,%eax
  1f:	48 b8 55 55 55 55 55 	movabs $0x555555555555555,%rax
  26:	55 55 05 
  29:	48 89 45 e8          	mov    %rax,-0x18(%rbp)
  2d:	48 8b 45 d8          	mov    -0x28(%rbp),%rax
  31:	48 89 c7             	mov    %rax,%rdi
  34:	e8 00 00 00 00       	call   39 <_ZNSt6vectorIS_IiSaIiEESaIS1_EE11_S_max_sizeERKS2_+0x39>
  39:	48 89 45 f0          	mov    %rax,-0x10(%rbp)
  3d:	48 8d 55 f0          	lea    -0x10(%rbp),%rdx
  41:	48 8d 45 e8          	lea    -0x18(%rbp),%rax
  45:	48 89 d6             	mov    %rdx,%rsi
  48:	48 89 c7             	mov    %rax,%rdi
  4b:	e8 00 00 00 00       	call   50 <_ZNSt6vectorIS_IiSaIiEESaIS1_EE11_S_max_sizeERKS2_+0x50>
  50:	48 8b 00             	mov    (%rax),%rax
  53:	48 8b 55 f8          	mov    -0x8(%rbp),%rdx
  57:	64 48 2b 14 25 28 00 	sub    %fs:0x28,%rdx
  5e:	00 00 
  60:	74 05                	je     67 <_ZNSt6vectorIS_IiSaIiEESaIS1_EE11_S_max_sizeERKS2_+0x67>
  62:	e8 00 00 00 00       	call   67 <_ZNSt6vectorIS_IiSaIiEESaIS1_EE11_S_max_sizeERKS2_+0x67>
  67:	c9                   	leave  
  68:	c3                   	ret    

Disassembly of section .text._ZNSt16allocator_traitsISaISt6vectorIiSaIiEEEE8allocateERS3_m:

0000000000000000 <_ZNSt16allocator_traitsISaISt6vectorIiSaIiEEEE8allocateERS3_m>:
   0:	f3 0f 1e fa          	endbr64 
   4:	55                   	push   %rbp
   5:	48 89 e5             	mov    %rsp,%rbp
   8:	48 83 ec 10          	sub    $0x10,%rsp
   c:	48 89 7d f8          	mov    %rdi,-0x8(%rbp)
  10:	48 89 75 f0          	mov    %rsi,-0x10(%rbp)
  14:	48 8b 4d f0          	mov    -0x10(%rbp),%rcx
  18:	48 8b 45 f8          	mov    -0x8(%rbp),%rax
  1c:	ba 00 00 00 00       	mov    $0x0,%edx
  21:	48 89 ce             	mov    %rcx,%rsi
  24:	48 89 c7             	mov    %rax,%rdi
  27:	e8 00 00 00 00       	call   2c <_ZNSt16allocator_traitsISaISt6vectorIiSaIiEEEE8allocateERS3_m+0x2c>
  2c:	c9                   	leave  
  2d:	c3                   	ret    

Disassembly of section .text._ZSt18uninitialized_copyIPKSt6vectorIiSaIiEEPS2_ET0_T_S7_S6_:

0000000000000000 <_ZSt18uninitialized_copyIPKSt6vectorIiSaIiEEPS2_ET0_T_S7_S6_>:
   0:	f3 0f 1e fa          	endbr64 
   4:	55                   	push   %rbp
   5:	48 89 e5             	mov    %rsp,%rbp
   8:	48 83 ec 30          	sub    $0x30,%rsp
   c:	48 89 7d e8          	mov    %rdi,-0x18(%rbp)
  10:	48 89 75 e0          	mov    %rsi,-0x20(%rbp)
  14:	48 89 55 d8          	mov    %rdx,-0x28(%rbp)
  18:	c6 45 ff 01          	movb   $0x1,-0x1(%rbp)
  1c:	48 8b 55 d8          	mov    -0x28(%rbp),%rdx
  20:	48 8b 4d e0          	mov    -0x20(%rbp),%rcx
  24:	48 8b 45 e8          	mov    -0x18(%rbp),%rax
  28:	48 89 ce             	mov    %rcx,%rsi
  2b:	48 89 c7             	mov    %rax,%rdi
  2e:	e8 00 00 00 00       	call   33 <_ZSt18uninitialized_copyIPKSt6vectorIiSaIiEEPS2_ET0_T_S7_S6_+0x33>
  33:	c9                   	leave  
  34:	c3                   	ret    

Disassembly of section .text._ZNKSt12_Vector_baseIiSaIiEE19_M_get_Tp_allocatorEv:

0000000000000000 <_ZNKSt12_Vector_baseIiSaIiEE19_M_get_Tp_allocatorEv>:
   0:	f3 0f 1e fa          	endbr64 
   4:	55                   	push   %rbp
   5:	48 89 e5             	mov    %rsp,%rbp
   8:	48 89 7d f8          	mov    %rdi,-0x8(%rbp)
   c:	48 8b 45 f8          	mov    -0x8(%rbp),%rax
  10:	5d                   	pop    %rbp
  11:	c3                   	ret    

Disassembly of section .text._ZNK9__gnu_cxx13new_allocatorIiE11_M_max_sizeEv:

0000000000000000 <_ZNK9__gnu_cxx13new_allocatorIiE11_M_max_sizeEv>:
   0:	f3 0f 1e fa          	endbr64 
   4:	55                   	push   %rbp
   5:	48 89 e5             	mov    %rsp,%rbp
   8:	48 89 7d f8          	mov    %rdi,-0x8(%rbp)
   c:	48 b8 ff ff ff ff ff 	movabs $0x1fffffffffffffff,%rax
  13:	ff ff 1f 
  16:	5d                   	pop    %rbp
  17:	c3                   	ret    

Disassembly of section .text._ZN9__gnu_cxx13new_allocatorIiE8allocateEmPKv:

0000000000000000 <_ZN9__gnu_cxx13new_allocatorIiE8allocateEmPKv>:
   0:	f3 0f 1e fa          	endbr64 
   4:	55                   	push   %rbp
   5:	48 89 e5             	mov    %rsp,%rbp
   8:	48 83 ec 20          	sub    $0x20,%rsp
   c:	48 89 7d f8          	mov    %rdi,-0x8(%rbp)
  10:	48 89 75 f0          	mov    %rsi,-0x10(%rbp)
  14:	48 89 55 e8          	mov    %rdx,-0x18(%rbp)
  18:	48 8b 45 f8          	mov    -0x8(%rbp),%rax
  1c:	48 89 c7             	mov    %rax,%rdi
  1f:	e8 00 00 00 00       	call   24 <_ZN9__gnu_cxx13new_allocatorIiE8allocateEmPKv+0x24>
  24:	48 39 45 f0          	cmp    %rax,-0x10(%rbp)
  28:	0f 97 c0             	seta   %al
  2b:	0f b6 c0             	movzbl %al,%eax
  2e:	48 85 c0             	test   %rax,%rax
  31:	0f 95 c0             	setne  %al
  34:	84 c0                	test   %al,%al
  36:	74 1a                	je     52 <_ZN9__gnu_cxx13new_allocatorIiE8allocateEmPKv+0x52>
  38:	48 b8 ff ff ff ff ff 	movabs $0x3fffffffffffffff,%rax
  3f:	ff ff 3f 
  42:	48 39 45 f0          	cmp    %rax,-0x10(%rbp)
  46:	76 05                	jbe    4d <_ZN9__gnu_cxx13new_allocatorIiE8allocateEmPKv+0x4d>
  48:	e8 00 00 00 00       	call   4d <_ZN9__gnu_cxx13new_allocatorIiE8allocateEmPKv+0x4d>
  4d:	e8 00 00 00 00       	call   52 <_ZN9__gnu_cxx13new_allocatorIiE8allocateEmPKv+0x52>
  52:	48 8b 45 f0          	mov    -0x10(%rbp),%rax
  56:	48 c1 e0 02          	shl    $0x2,%rax
  5a:	48 89 c7             	mov    %rax,%rdi
  5d:	e8 00 00 00 00       	call   62 <_ZN9__gnu_cxx13new_allocatorIiE8allocateEmPKv+0x62>
  62:	90                   	nop
  63:	c9                   	leave  
  64:	c3                   	ret    

Disassembly of section .text._ZSt12__relocate_aIPiS0_SaIiEET0_T_S3_S2_RT1_:

0000000000000000 <_ZSt12__relocate_aIPiS0_SaIiEET0_T_S3_S2_RT1_>:
   0:	f3 0f 1e fa          	endbr64 
   4:	55                   	push   %rbp
   5:	48 89 e5             	mov    %rsp,%rbp
   8:	41 54                	push   %r12
   a:	53                   	push   %rbx
   b:	48 83 ec 20          	sub    $0x20,%rsp
   f:	48 89 7d e8          	mov    %rdi,-0x18(%rbp)
  13:	48 89 75 e0          	mov    %rsi,-0x20(%rbp)
  17:	48 89 55 d8          	mov    %rdx,-0x28(%rbp)
  1b:	48 89 4d d0          	mov    %rcx,-0x30(%rbp)
  1f:	48 8b 45 d8          	mov    -0x28(%rbp),%rax
  23:	48 89 c7             	mov    %rax,%rdi
  26:	e8 00 00 00 00       	call   2b <_ZSt12__relocate_aIPiS0_SaIiEET0_T_S3_S2_RT1_+0x2b>
  2b:	49 89 c4             	mov    %rax,%r12
  2e:	48 8b 45 e0          	mov    -0x20(%rbp),%rax
  32:	48 89 c7             	mov    %rax,%rdi
  35:	e8 00 00 00 00       	call   3a <_ZSt12__relocate_aIPiS0_SaIiEET0_T_S3_S2_RT1_+0x3a>
  3a:	48 89 c3             	mov    %rax,%rbx
  3d:	48 8b 45 e8          	mov    -0x18(%rbp),%rax
  41:	48 89 c7             	mov    %rax,%rdi
  44:	e8 00 00 00 00       	call   49 <_ZSt12__relocate_aIPiS0_SaIiEET0_T_S3_S2_RT1_+0x49>
  49:	48 89 c7             	mov    %rax,%rdi
  4c:	48 8b 45 d0          	mov    -0x30(%rbp),%rax
  50:	48 89 c1             	mov    %rax,%rcx
  53:	4c 89 e2             	mov    %r12,%rdx
  56:	48 89 de             	mov    %rbx,%rsi
  59:	e8 00 00 00 00       	call   5e <_ZSt12__relocate_aIPiS0_SaIiEET0_T_S3_S2_RT1_+0x5e>
  5e:	48 83 c4 20          	add    $0x20,%rsp
  62:	5b                   	pop    %rbx
  63:	41 5c                	pop    %r12
  65:	5d                   	pop    %rbp
  66:	c3                   	ret    

Disassembly of section .text._ZSt11__addressofI4HeapEPT_RS1_:

0000000000000000 <_ZSt11__addressofI4HeapEPT_RS1_>:
   0:	f3 0f 1e fa          	endbr64 
   4:	55                   	push   %rbp
   5:	48 89 e5             	mov    %rsp,%rbp
   8:	48 89 7d f8          	mov    %rdi,-0x8(%rbp)
   c:	48 8b 45 f8          	mov    -0x8(%rbp),%rax
  10:	5d                   	pop    %rbp
  11:	c3                   	ret    

Disassembly of section .text._ZSt8_DestroyI4HeapEvPT_:

0000000000000000 <_ZSt8_DestroyI4HeapEvPT_>:
   0:	f3 0f 1e fa          	endbr64 
   4:	55                   	push   %rbp
   5:	48 89 e5             	mov    %rsp,%rbp
   8:	48 83 ec 10          	sub    $0x10,%rsp
   c:	48 89 7d f8          	mov    %rdi,-0x8(%rbp)
  10:	48 8b 45 f8          	mov    -0x8(%rbp),%rax
  14:	48 89 c7             	mov    %rax,%rdi
  17:	e8 00 00 00 00       	call   1c <_ZSt8_DestroyI4HeapEvPT_+0x1c>
  1c:	90                   	nop
  1d:	c9                   	leave  
  1e:	c3                   	ret    

Disassembly of section .text._ZN9__gnu_cxx14__alloc_traitsISaIiEiE17_S_select_on_copyERKS1_:

0000000000000000 <_ZN9__gnu_cxx14__alloc_traitsISaIiEiE17_S_select_on_copyERKS1_>:
   0:	f3 0f 1e fa          	endbr64 
   4:	55                   	push   %rbp
   5:	48 89 e5             	mov    %rsp,%rbp
   8:	48 83 ec 20          	sub    $0x20,%rsp
   c:	48 89 7d e8          	mov    %rdi,-0x18(%rbp)
  10:	48 89 75 e0          	mov    %rsi,-0x20(%rbp)
  14:	64 48 8b 04 25 28 00 	mov    %fs:0x28,%rax
  1b:	00 00 
  1d:	48 89 45 f8          	mov    %rax,-0x8(%rbp)
  21:	31 c0                	xor    %eax,%eax
  23:	48 8b 45 e8          	mov    -0x18(%rbp),%rax
  27:	48 8b 55 e0          	mov    -0x20(%rbp),%rdx
  2b:	48 89 d6             	mov    %rdx,%rsi
  2e:	48 89 c7             	mov    %rax,%rdi
  31:	e8 00 00 00 00       	call   36 <_ZN9__gnu_cxx14__alloc_traitsISaIiEiE17_S_select_on_copyERKS1_+0x36>
  36:	48 8b 45 f8          	mov    -0x8(%rbp),%rax
  3a:	64 48 2b 04 25 28 00 	sub    %fs:0x28,%rax
  41:	00 00 
  43:	74 05                	je     4a <_ZN9__gnu_cxx14__alloc_traitsISaIiEiE17_S_select_on_copyERKS1_+0x4a>
  45:	e8 00 00 00 00       	call   4a <_ZN9__gnu_cxx14__alloc_traitsISaIiEiE17_S_select_on_copyERKS1_+0x4a>
  4a:	48 8b 45 e8          	mov    -0x18(%rbp),%rax
  4e:	c9                   	leave  
  4f:	c3                   	ret    

Disassembly of section .text._ZNSt12_Vector_baseIiSaIiEEC2EmRKS0_:

0000000000000000 <_ZNSt12_Vector_baseIiSaIiEEC1EmRKS0_>:
   0:	f3 0f 1e fa          	endbr64 
   4:	55                   	push   %rbp
   5:	48 89 e5             	mov    %rsp,%rbp
   8:	53                   	push   %rbx
   9:	48 83 ec 28          	sub    $0x28,%rsp
   d:	48 89 7d e8          	mov    %rdi,-0x18(%rbp)
  11:	48 89 75 e0          	mov    %rsi,-0x20(%rbp)
  15:	48 89 55 d8          	mov    %rdx,-0x28(%rbp)
  19:	48 8b 45 e8          	mov    -0x18(%rbp),%rax
  1d:	48 8b 55 d8          	mov    -0x28(%rbp),%rdx
  21:	48 89 d6             	mov    %rdx,%rsi
  24:	48 89 c7             	mov    %rax,%rdi
  27:	e8 00 00 00 00       	call   2c <_ZNSt12_Vector_baseIiSaIiEEC1EmRKS0_+0x2c>
  2c:	48 8b 55 e0          	mov    -0x20(%rbp),%rdx
  30:	48 8b 45 e8          	mov    -0x18(%rbp),%rax
  34:	48 89 d6             	mov    %rdx,%rsi
  37:	48 89 c7             	mov    %rax,%rdi
  3a:	e8 00 00 00 00       	call   3f <_ZNSt12_Vector_baseIiSaIiEEC1EmRKS0_+0x3f>
  3f:	eb 1e                	jmp    5f <_ZNSt12_Vector_baseIiSaIiEEC1EmRKS0_+0x5f>
  41:	f3 0f 1e fa          	endbr64 
  45:	48 89 c3             	mov    %rax,%rbx
  48:	48 8b 45 e8          	mov    -0x18(%rbp),%rax
  4c:	48 89 c7             	mov    %rax,%rdi
  4f:	e8 00 00 00 00       	call   54 <_ZNSt12_Vector_baseIiSaIiEEC1EmRKS0_+0x54>
  54:	48 89 d8             	mov    %rbx,%rax
  57:	48 89 c7             	mov    %rax,%rdi
  5a:	e8 00 00 00 00       	call   5f <_ZNSt12_Vector_baseIiSaIiEEC1EmRKS0_+0x5f>
  5f:	48 8b 5d f8          	mov    -0x8(%rbp),%rbx
  63:	c9                   	leave  
  64:	c3                   	ret    

Disassembly of section .text._ZNKSt6vectorIiSaIiEE5beginEv:

0000000000000000 <_ZNKSt6vectorIiSaIiEE5beginEv>:
   0:	f3 0f 1e fa          	endbr64 
   4:	55                   	push   %rbp
   5:	48 89 e5             	mov    %rsp,%rbp
   8:	48 83 ec 20          	sub    $0x20,%rsp
   c:	48 89 7d e8          	mov    %rdi,-0x18(%rbp)
  10:	64 48 8b 04 25 28 00 	mov    %fs:0x28,%rax
  17:	00 00 
  19:	48 89 45 f8          	mov    %rax,-0x8(%rbp)
  1d:	31 c0                	xor    %eax,%eax
  1f:	48 8b 55 e8          	mov    -0x18(%rbp),%rdx
  23:	48 8d 45 f0          	lea    -0x10(%rbp),%rax
  27:	48 89 d6             	mov    %rdx,%rsi
  2a:	48 89 c7             	mov    %rax,%rdi
  2d:	e8 00 00 00 00       	call   32 <_ZNKSt6vectorIiSaIiEE5beginEv+0x32>
  32:	48 8b 45 f0          	mov    -0x10(%rbp),%rax
  36:	48 8b 55 f8          	mov    -0x8(%rbp),%rdx
  3a:	64 48 2b 14 25 28 00 	sub    %fs:0x28,%rdx
  41:	00 00 
  43:	74 05                	je     4a <_ZNKSt6vectorIiSaIiEE5beginEv+0x4a>
  45:	e8 00 00 00 00       	call   4a <_ZNKSt6vectorIiSaIiEE5beginEv+0x4a>
  4a:	c9                   	leave  
  4b:	c3                   	ret    

Disassembly of section .text._ZNKSt6vectorIiSaIiEE3endEv:

0000000000000000 <_ZNKSt6vectorIiSaIiEE3endEv>:
   0:	f3 0f 1e fa          	endbr64 
   4:	55                   	push   %rbp
   5:	48 89 e5             	mov    %rsp,%rbp
   8:	48 83 ec 20          	sub    $0x20,%rsp
   c:	48 89 7d e8          	mov    %rdi,-0x18(%rbp)
  10:	64 48 8b 04 25 28 00 	mov    %fs:0x28,%rax
  17:	00 00 
  19:	48 89 45 f8          	mov    %rax,-0x8(%rbp)
  1d:	31 c0                	xor    %eax,%eax
  1f:	48 8b 45 e8          	mov    -0x18(%rbp),%rax
  23:	48 8d 50 08          	lea    0x8(%rax),%rdx
  27:	48 8d 45 f0          	lea    -0x10(%rbp),%rax
  2b:	48 89 d6             	mov    %rdx,%rsi
  2e:	48 89 c7             	mov    %rax,%rdi
  31:	e8 00 00 00 00       	call   36 <_ZNKSt6vectorIiSaIiEE3endEv+0x36>
  36:	48 8b 45 f0          	mov    -0x10(%rbp),%rax
  3a:	48 8b 55 f8          	mov    -0x8(%rbp),%rdx
  3e:	64 48 2b 14 25 28 00 	sub    %fs:0x28,%rdx
  45:	00 00 
  47:	74 05                	je     4e <_ZNKSt6vectorIiSaIiEE3endEv+0x4e>
  49:	e8 00 00 00 00       	call   4e <_ZNKSt6vectorIiSaIiEE3endEv+0x4e>
  4e:	c9                   	leave  
  4f:	c3                   	ret    

Disassembly of section .text._ZSt22__uninitialized_copy_aIN9__gnu_cxx17__normal_iteratorIPKiSt6vectorIiSaIiEEEEPiiET0_T_SA_S9_RSaIT1_E:

0000000000000000 <_ZSt22__uninitialized_copy_aIN9__gnu_cxx17__normal_iteratorIPKiSt6vectorIiSaIiEEEEPiiET0_T_SA_S9_RSaIT1_E>:
   0:	f3 0f 1e fa          	endbr64 
   4:	55                   	push   %rbp
   5:	48 89 e5             	mov    %rsp,%rbp
   8:	48 83 ec 20          	sub    $0x20,%rsp
   c:	48 89 7d f8          	mov    %rdi,-0x8(%rbp)
  10:	48 89 75 f0          	mov    %rsi,-0x10(%rbp)
  14:	48 89 55 e8          	mov    %rdx,-0x18(%rbp)
  18:	48 89 4d e0          	mov    %rcx,-0x20(%rbp)
  1c:	48 8b 55 e8          	mov    -0x18(%rbp),%rdx
  20:	48 8b 4d f0          	mov    -0x10(%rbp),%rcx
  24:	48 8b 45 f8          	mov    -0x8(%rbp),%rax
  28:	48 89 ce             	mov    %rcx,%rsi
  2b:	48 89 c7             	mov    %rax,%rdi
  2e:	e8 00 00 00 00       	call   33 <_ZSt22__uninitialized_copy_aIN9__gnu_cxx17__normal_iteratorIPKiSt6vectorIiSaIiEEEEPiiET0_T_SA_S9_RSaIT1_E+0x33>
  33:	c9                   	leave  
  34:	c3                   	ret    

Disassembly of section .text._ZNSt6vectorI4HeapSaIS0_EE11_S_max_sizeERKS1_:

0000000000000000 <_ZNSt6vectorI4HeapSaIS0_EE11_S_max_sizeERKS1_>:
   0:	f3 0f 1e fa          	endbr64 
   4:	55                   	push   %rbp
   5:	48 89 e5             	mov    %rsp,%rbp
   8:	48 83 ec 30          	sub    $0x30,%rsp
   c:	48 89 7d d8          	mov    %rdi,-0x28(%rbp)
  10:	64 48 8b 04 25 28 00 	mov    %fs:0x28,%rax
  17:	00 00 
  19:	48 89 45 f8          	mov    %rax,-0x8(%rbp)
  1d:	31 c0                	xor    %eax,%eax
  1f:	48 b8 ff ff ff ff ff 	movabs $0x3ffffffffffffff,%rax
  26:	ff ff 03 
  29:	48 89 45 e8          	mov    %rax,-0x18(%rbp)
  2d:	48 8b 45 d8          	mov    -0x28(%rbp),%rax
  31:	48 89 c7             	mov    %rax,%rdi
  34:	e8 00 00 00 00       	call   39 <_ZNSt6vectorI4HeapSaIS0_EE11_S_max_sizeERKS1_+0x39>
  39:	48 89 45 f0          	mov    %rax,-0x10(%rbp)
  3d:	48 8d 55 f0          	lea    -0x10(%rbp),%rdx
  41:	48 8d 45 e8          	lea    -0x18(%rbp),%rax
  45:	48 89 d6             	mov    %rdx,%rsi
  48:	48 89 c7             	mov    %rax,%rdi
  4b:	e8 00 00 00 00       	call   50 <_ZNSt6vectorI4HeapSaIS0_EE11_S_max_sizeERKS1_+0x50>
  50:	48 8b 00             	mov    (%rax),%rax
  53:	48 8b 55 f8          	mov    -0x8(%rbp),%rdx
  57:	64 48 2b 14 25 28 00 	sub    %fs:0x28,%rdx
  5e:	00 00 
  60:	74 05                	je     67 <_ZNSt6vectorI4HeapSaIS0_EE11_S_max_sizeERKS1_+0x67>
  62:	e8 00 00 00 00       	call   67 <_ZNSt6vectorI4HeapSaIS0_EE11_S_max_sizeERKS1_+0x67>
  67:	c9                   	leave  
  68:	c3                   	ret    

Disassembly of section .text._ZNKSt12_Vector_baseI4HeapSaIS0_EE19_M_get_Tp_allocatorEv:

0000000000000000 <_ZNKSt12_Vector_baseI4HeapSaIS0_EE19_M_get_Tp_allocatorEv>:
   0:	f3 0f 1e fa          	endbr64 
   4:	55                   	push   %rbp
   5:	48 89 e5             	mov    %rsp,%rbp
   8:	48 89 7d f8          	mov    %rdi,-0x8(%rbp)
   c:	48 8b 45 f8          	mov    -0x8(%rbp),%rax
  10:	5d                   	pop    %rbp
  11:	c3                   	ret    

Disassembly of section .text._ZNK9__gnu_cxx13new_allocatorI4HeapE11_M_max_sizeEv:

0000000000000000 <_ZNK9__gnu_cxx13new_allocatorI4HeapE11_M_max_sizeEv>:
   0:	f3 0f 1e fa          	endbr64 
   4:	55                   	push   %rbp
   5:	48 89 e5             	mov    %rsp,%rbp
   8:	48 89 7d f8          	mov    %rdi,-0x8(%rbp)
   c:	48 b8 ff ff ff ff ff 	movabs $0x3ffffffffffffff,%rax
  13:	ff ff 03 
  16:	5d                   	pop    %rbp
  17:	c3                   	ret    

Disassembly of section .text._ZN9__gnu_cxx13new_allocatorI4HeapE8allocateEmPKv:

0000000000000000 <_ZN9__gnu_cxx13new_allocatorI4HeapE8allocateEmPKv>:
   0:	f3 0f 1e fa          	endbr64 
   4:	55                   	push   %rbp
   5:	48 89 e5             	mov    %rsp,%rbp
   8:	48 83 ec 20          	sub    $0x20,%rsp
   c:	48 89 7d f8          	mov    %rdi,-0x8(%rbp)
  10:	48 89 75 f0          	mov    %rsi,-0x10(%rbp)
  14:	48 89 55 e8          	mov    %rdx,-0x18(%rbp)
  18:	48 8b 45 f8          	mov    -0x8(%rbp),%rax
  1c:	48 89 c7             	mov    %rax,%rdi
  1f:	e8 00 00 00 00       	call   24 <_ZN9__gnu_cxx13new_allocatorI4HeapE8allocateEmPKv+0x24>
  24:	48 39 45 f0          	cmp    %rax,-0x10(%rbp)
  28:	0f 97 c0             	seta   %al
  2b:	0f b6 c0             	movzbl %al,%eax
  2e:	48 85 c0             	test   %rax,%rax
  31:	0f 95 c0             	setne  %al
  34:	84 c0                	test   %al,%al
  36:	74 1a                	je     52 <_ZN9__gnu_cxx13new_allocatorI4HeapE8allocateEmPKv+0x52>
  38:	48 b8 ff ff ff ff ff 	movabs $0x7ffffffffffffff,%rax
  3f:	ff ff 07 
  42:	48 39 45 f0          	cmp    %rax,-0x10(%rbp)
  46:	76 05                	jbe    4d <_ZN9__gnu_cxx13new_allocatorI4HeapE8allocateEmPKv+0x4d>
  48:	e8 00 00 00 00       	call   4d <_ZN9__gnu_cxx13new_allocatorI4HeapE8allocateEmPKv+0x4d>
  4d:	e8 00 00 00 00       	call   52 <_ZN9__gnu_cxx13new_allocatorI4HeapE8allocateEmPKv+0x52>
  52:	48 8b 45 f0          	mov    -0x10(%rbp),%rax
  56:	48 c1 e0 05          	shl    $0x5,%rax
  5a:	48 89 c7             	mov    %rax,%rdi
  5d:	e8 00 00 00 00       	call   62 <_ZN9__gnu_cxx13new_allocatorI4HeapE8allocateEmPKv+0x62>
  62:	90                   	nop
  63:	c9                   	leave  
  64:	c3                   	ret    

Disassembly of section .text._ZSt12__relocate_aIP4HeapS1_SaIS0_EET0_T_S4_S3_RT1_:

0000000000000000 <_ZSt12__relocate_aIP4HeapS1_SaIS0_EET0_T_S4_S3_RT1_>:
   0:	f3 0f 1e fa          	endbr64 
   4:	55                   	push   %rbp
   5:	48 89 e5             	mov    %rsp,%rbp
   8:	41 54                	push   %r12
   a:	53                   	push   %rbx
   b:	48 83 ec 20          	sub    $0x20,%rsp
   f:	48 89 7d e8          	mov    %rdi,-0x18(%rbp)
  13:	48 89 75 e0          	mov    %rsi,-0x20(%rbp)
  17:	48 89 55 d8          	mov    %rdx,-0x28(%rbp)
  1b:	48 89 4d d0          	mov    %rcx,-0x30(%rbp)
  1f:	48 8b 45 d8          	mov    -0x28(%rbp),%rax
  23:	48 89 c7             	mov    %rax,%rdi
  26:	e8 00 00 00 00       	call   2b <_ZSt12__relocate_aIP4HeapS1_SaIS0_EET0_T_S4_S3_RT1_+0x2b>
  2b:	49 89 c4             	mov    %rax,%r12
  2e:	48 8b 45 e0          	mov    -0x20(%rbp),%rax
  32:	48 89 c7             	mov    %rax,%rdi
  35:	e8 00 00 00 00       	call   3a <_ZSt12__relocate_aIP4HeapS1_SaIS0_EET0_T_S4_S3_RT1_+0x3a>
  3a:	48 89 c3             	mov    %rax,%rbx
  3d:	48 8b 45 e8          	mov    -0x18(%rbp),%rax
  41:	48 89 c7             	mov    %rax,%rdi
  44:	e8 00 00 00 00       	call   49 <_ZSt12__relocate_aIP4HeapS1_SaIS0_EET0_T_S4_S3_RT1_+0x49>
  49:	48 89 c7             	mov    %rax,%rdi
  4c:	48 8b 45 d0          	mov    -0x30(%rbp),%rax
  50:	48 89 c1             	mov    %rax,%rcx
  53:	4c 89 e2             	mov    %r12,%rdx
  56:	48 89 de             	mov    %rbx,%rsi
  59:	e8 00 00 00 00       	call   5e <_ZSt12__relocate_aIP4HeapS1_SaIS0_EET0_T_S4_S3_RT1_+0x5e>
  5e:	48 83 c4 20          	add    $0x20,%rsp
  62:	5b                   	pop    %rbx
  63:	41 5c                	pop    %r12
  65:	5d                   	pop    %rbp
  66:	c3                   	ret    

Disassembly of section .text._ZSt11__addressofISt6vectorIiSaIiEEEPT_RS3_:

0000000000000000 <_ZSt11__addressofISt6vectorIiSaIiEEEPT_RS3_>:
   0:	f3 0f 1e fa          	endbr64 
   4:	55                   	push   %rbp
   5:	48 89 e5             	mov    %rsp,%rbp
   8:	48 89 7d f8          	mov    %rdi,-0x8(%rbp)
   c:	48 8b 45 f8          	mov    -0x8(%rbp),%rax
  10:	5d                   	pop    %rbp
  11:	c3                   	ret    

Disassembly of section .text._ZSt8_DestroyISt6vectorIiSaIiEEEvPT_:

0000000000000000 <_ZSt8_DestroyISt6vectorIiSaIiEEEvPT_>:
   0:	f3 0f 1e fa          	endbr64 
   4:	55                   	push   %rbp
   5:	48 89 e5             	mov    %rsp,%rbp
   8:	48 83 ec 10          	sub    $0x10,%rsp
   c:	48 89 7d f8          	mov    %rdi,-0x8(%rbp)
  10:	48 8b 45 f8          	mov    -0x8(%rbp),%rax
  14:	48 89 c7             	mov    %rax,%rdi
  17:	e8 00 00 00 00       	call   1c <_ZSt8_DestroyISt6vectorIiSaIiEEEvPT_+0x1c>
  1c:	90                   	nop
  1d:	c9                   	leave  
  1e:	c3                   	ret    

Disassembly of section .text._ZN9__gnu_cxx13new_allocatorIiEC2ERKS1_:

0000000000000000 <_ZN9__gnu_cxx13new_allocatorIiEC1ERKS1_>:
   0:	f3 0f 1e fa          	endbr64 
   4:	55                   	push   %rbp
   5:	48 89 e5             	mov    %rsp,%rbp
   8:	48 89 7d f8          	mov    %rdi,-0x8(%rbp)
   c:	48 89 75 f0          	mov    %rsi,-0x10(%rbp)
  10:	90                   	nop
  11:	5d                   	pop    %rbp
  12:	c3                   	ret    

Disassembly of section .text._ZNSt16allocator_traitsISaIiEE8max_sizeERKS0_:

0000000000000000 <_ZNSt16allocator_traitsISaIiEE8max_sizeERKS0_>:
   0:	f3 0f 1e fa          	endbr64 
   4:	55                   	push   %rbp
   5:	48 89 e5             	mov    %rsp,%rbp
   8:	48 83 ec 10          	sub    $0x10,%rsp
   c:	48 89 7d f8          	mov    %rdi,-0x8(%rbp)
  10:	48 8b 45 f8          	mov    -0x8(%rbp),%rax
  14:	48 89 c7             	mov    %rax,%rdi
  17:	e8 00 00 00 00       	call   1c <_ZNSt16allocator_traitsISaIiEE8max_sizeERKS0_+0x1c>
  1c:	c9                   	leave  
  1d:	c3                   	ret    

Disassembly of section .text._ZNSt20__uninitialized_copyILb1EE13__uninit_copyIPKiPiEET0_T_S6_S5_:

0000000000000000 <_ZNSt20__uninitialized_copyILb1EE13__uninit_copyIPKiPiEET0_T_S6_S5_>:
   0:	f3 0f 1e fa          	endbr64 
   4:	55                   	push   %rbp
   5:	48 89 e5             	mov    %rsp,%rbp
   8:	48 83 ec 20          	sub    $0x20,%rsp
   c:	48 89 7d f8          	mov    %rdi,-0x8(%rbp)
  10:	48 89 75 f0          	mov    %rsi,-0x10(%rbp)
  14:	48 89 55 e8          	mov    %rdx,-0x18(%rbp)
  18:	48 8b 55 e8          	mov    -0x18(%rbp),%rdx
  1c:	48 8b 4d f0          	mov    -0x10(%rbp),%rcx
  20:	48 8b 45 f8          	mov    -0x8(%rbp),%rax
  24:	48 89 ce             	mov    %rcx,%rsi
  27:	48 89 c7             	mov    %rax,%rdi
  2a:	e8 00 00 00 00       	call   2f <_ZNSt20__uninitialized_copyILb1EE13__uninit_copyIPKiPiEET0_T_S6_S5_+0x2f>
  2f:	c9                   	leave  
  30:	c3                   	ret    

Disassembly of section .text._ZNSt12_Vector_baseIiSaIiEE12_Vector_implC2EOS2_:

0000000000000000 <_ZNSt12_Vector_baseIiSaIiEE12_Vector_implC1EOS2_>:
   0:	f3 0f 1e fa          	endbr64 
   4:	55                   	push   %rbp
   5:	48 89 e5             	mov    %rsp,%rbp
   8:	53                   	push   %rbx
   9:	48 83 ec 18          	sub    $0x18,%rsp
   d:	48 89 7d e8          	mov    %rdi,-0x18(%rbp)
  11:	48 89 75 e0          	mov    %rsi,-0x20(%rbp)
  15:	48 8b 45 e0          	mov    -0x20(%rbp),%rax
  19:	48 89 c7             	mov    %rax,%rdi
  1c:	e8 00 00 00 00       	call   21 <_ZNSt12_Vector_baseIiSaIiEE12_Vector_implC1EOS2_+0x21>
  21:	48 89 c2             	mov    %rax,%rdx
  24:	48 8b 45 e8          	mov    -0x18(%rbp),%rax
  28:	48 89 d6             	mov    %rdx,%rsi
  2b:	48 89 c7             	mov    %rax,%rdi
  2e:	e8 00 00 00 00       	call   33 <_ZNSt12_Vector_baseIiSaIiEE12_Vector_implC1EOS2_+0x33>
  33:	48 8b 5d e8          	mov    -0x18(%rbp),%rbx
  37:	48 8b 45 e0          	mov    -0x20(%rbp),%rax
  3b:	48 89 c7             	mov    %rax,%rdi
  3e:	e8 00 00 00 00       	call   43 <_ZNSt12_Vector_baseIiSaIiEE12_Vector_implC1EOS2_+0x43>
  43:	48 89 c6             	mov    %rax,%rsi
  46:	48 89 df             	mov    %rbx,%rdi
  49:	e8 00 00 00 00       	call   4e <_ZNSt12_Vector_baseIiSaIiEE12_Vector_implC1EOS2_+0x4e>
  4e:	90                   	nop
  4f:	48 8b 5d f8          	mov    -0x8(%rbp),%rbx
  53:	c9                   	leave  
  54:	c3                   	ret    

Disassembly of section .text._ZNKSt6vectorIS_IiSaIiEESaIS1_EE8max_sizeEv:

0000000000000000 <_ZNKSt6vectorIS_IiSaIiEESaIS1_EE8max_sizeEv>:
   0:	f3 0f 1e fa          	endbr64 
   4:	55                   	push   %rbp
   5:	48 89 e5             	mov    %rsp,%rbp
   8:	48 83 ec 10          	sub    $0x10,%rsp
   c:	48 89 7d f8          	mov    %rdi,-0x8(%rbp)
  10:	48 8b 45 f8          	mov    -0x8(%rbp),%rax
  14:	48 89 c7             	mov    %rax,%rdi
  17:	e8 00 00 00 00       	call   1c <_ZNKSt6vectorIS_IiSaIiEESaIS1_EE8max_sizeEv+0x1c>
  1c:	48 89 c7             	mov    %rax,%rdi
  1f:	e8 00 00 00 00       	call   24 <_ZNKSt6vectorIS_IiSaIiEESaIS1_EE8max_sizeEv+0x24>
  24:	c9                   	leave  
  25:	c3                   	ret    

Disassembly of section .text._ZNSt6vectorIS_IiSaIiEESaIS1_EE14_S_do_relocateEPS1_S4_S4_RS2_St17integral_constantIbLb1EE:

0000000000000000 <_ZNSt6vectorIS_IiSaIiEESaIS1_EE14_S_do_relocateEPS1_S4_S4_RS2_St17integral_constantIbLb1EE>:
   0:	f3 0f 1e fa          	endbr64 
   4:	55                   	push   %rbp
   5:	48 89 e5             	mov    %rsp,%rbp
   8:	48 83 ec 20          	sub    $0x20,%rsp
   c:	48 89 7d f8          	mov    %rdi,-0x8(%rbp)
  10:	48 89 75 f0          	mov    %rsi,-0x10(%rbp)
  14:	48 89 55 e8          	mov    %rdx,-0x18(%rbp)
  18:	48 89 4d e0          	mov    %rcx,-0x20(%rbp)
  1c:	48 8b 4d e0          	mov    -0x20(%rbp),%rcx
  20:	48 8b 55 e8          	mov    -0x18(%rbp),%rdx
  24:	48 8b 75 f0          	mov    -0x10(%rbp),%rsi
  28:	48 8b 45 f8          	mov    -0x8(%rbp),%rax
  2c:	48 89 c7             	mov    %rax,%rdi
  2f:	e8 00 00 00 00       	call   34 <_ZNSt6vectorIS_IiSaIiEESaIS1_EE14_S_do_relocateEPS1_S4_S4_RS2_St17integral_constantIbLb1EE+0x34>
  34:	c9                   	leave  
  35:	c3                   	ret    

Disassembly of section .text._ZN9__gnu_cxx13new_allocatorISt6vectorIiSaIiEEE7destroyIS3_EEvPT_:

0000000000000000 <_ZN9__gnu_cxx13new_allocatorISt6vectorIiSaIiEEE7destroyIS3_EEvPT_>:
   0:	f3 0f 1e fa          	endbr64 
   4:	55                   	push   %rbp
   5:	48 89 e5             	mov    %rsp,%rbp
   8:	48 83 ec 10          	sub    $0x10,%rsp
   c:	48 89 7d f8          	mov    %rdi,-0x8(%rbp)
  10:	48 89 75 f0          	mov    %rsi,-0x10(%rbp)
  14:	48 8b 45 f0          	mov    -0x10(%rbp),%rax
  18:	48 89 c7             	mov    %rax,%rdi
  1b:	e8 00 00 00 00       	call   20 <_ZN9__gnu_cxx13new_allocatorISt6vectorIiSaIiEEE7destroyIS3_EEvPT_+0x20>
  20:	90                   	nop
  21:	c9                   	leave  
  22:	c3                   	ret    

Disassembly of section .text._ZNSt16allocator_traitsISaISt6vectorIiSaIiEEEE8max_sizeERKS3_:

0000000000000000 <_ZNSt16allocator_traitsISaISt6vectorIiSaIiEEEE8max_sizeERKS3_>:
   0:	f3 0f 1e fa          	endbr64 
   4:	55                   	push   %rbp
   5:	48 89 e5             	mov    %rsp,%rbp
   8:	48 83 ec 10          	sub    $0x10,%rsp
   c:	48 89 7d f8          	mov    %rdi,-0x8(%rbp)
  10:	48 8b 45 f8          	mov    -0x8(%rbp),%rax
  14:	48 89 c7             	mov    %rax,%rdi
  17:	e8 00 00 00 00       	call   1c <_ZNSt16allocator_traitsISaISt6vectorIiSaIiEEEE8max_sizeERKS3_+0x1c>
  1c:	c9                   	leave  
  1d:	c3                   	ret    

Disassembly of section .text._ZNK9__gnu_cxx13new_allocatorISt6vectorIiSaIiEEE11_M_max_sizeEv:

0000000000000000 <_ZNK9__gnu_cxx13new_allocatorISt6vectorIiSaIiEEE11_M_max_sizeEv>:
   0:	f3 0f 1e fa          	endbr64 
   4:	55                   	push   %rbp
   5:	48 89 e5             	mov    %rsp,%rbp
   8:	48 89 7d f8          	mov    %rdi,-0x8(%rbp)
   c:	48 b8 55 55 55 55 55 	movabs $0x555555555555555,%rax
  13:	55 55 05 
  16:	5d                   	pop    %rbp
  17:	c3                   	ret    

Disassembly of section .text._ZN9__gnu_cxx13new_allocatorISt6vectorIiSaIiEEE8allocateEmPKv:

0000000000000000 <_ZN9__gnu_cxx13new_allocatorISt6vectorIiSaIiEEE8allocateEmPKv>:
   0:	f3 0f 1e fa          	endbr64 
   4:	55                   	push   %rbp
   5:	48 89 e5             	mov    %rsp,%rbp
   8:	48 83 ec 20          	sub    $0x20,%rsp
   c:	48 89 7d f8          	mov    %rdi,-0x8(%rbp)
  10:	48 89 75 f0          	mov    %rsi,-0x10(%rbp)
  14:	48 89 55 e8          	mov    %rdx,-0x18(%rbp)
  18:	48 8b 45 f8          	mov    -0x8(%rbp),%rax
  1c:	48 89 c7             	mov    %rax,%rdi
  1f:	e8 00 00 00 00       	call   24 <_ZN9__gnu_cxx13new_allocatorISt6vectorIiSaIiEEE8allocateEmPKv+0x24>
  24:	48 39 45 f0          	cmp    %rax,-0x10(%rbp)
  28:	0f 97 c0             	seta   %al
  2b:	0f b6 c0             	movzbl %al,%eax
  2e:	48 85 c0             	test   %rax,%rax
  31:	0f 95 c0             	setne  %al
  34:	84 c0                	test   %al,%al
  36:	74 1a                	je     52 <_ZN9__gnu_cxx13new_allocatorISt6vectorIiSaIiEEE8allocateEmPKv+0x52>
  38:	48 b8 aa aa aa aa aa 	movabs $0xaaaaaaaaaaaaaaa,%rax
  3f:	aa aa 0a 
  42:	48 39 45 f0          	cmp    %rax,-0x10(%rbp)
  46:	76 05                	jbe    4d <_ZN9__gnu_cxx13new_allocatorISt6vectorIiSaIiEEE8allocateEmPKv+0x4d>
  48:	e8 00 00 00 00       	call   4d <_ZN9__gnu_cxx13new_allocatorISt6vectorIiSaIiEEE8allocateEmPKv+0x4d>
  4d:	e8 00 00 00 00       	call   52 <_ZN9__gnu_cxx13new_allocatorISt6vectorIiSaIiEEE8allocateEmPKv+0x52>
  52:	48 8b 55 f0          	mov    -0x10(%rbp),%rdx
  56:	48 89 d0             	mov    %rdx,%rax
  59:	48 01 c0             	add    %rax,%rax
  5c:	48 01 d0             	add    %rdx,%rax
  5f:	48 c1 e0 03          	shl    $0x3,%rax
  63:	48 89 c7             	mov    %rax,%rdi
  66:	e8 00 00 00 00       	call   6b <_ZN9__gnu_cxx13new_allocatorISt6vectorIiSaIiEEE8allocateEmPKv+0x6b>
  6b:	90                   	nop
  6c:	c9                   	leave  
  6d:	c3                   	ret    

Disassembly of section .text._ZNSt20__uninitialized_copyILb0EE13__uninit_copyIPKSt6vectorIiSaIiEEPS4_EET0_T_S9_S8_:

0000000000000000 <_ZNSt20__uninitialized_copyILb0EE13__uninit_copyIPKSt6vectorIiSaIiEEPS4_EET0_T_S9_S8_>:
   0:	f3 0f 1e fa          	endbr64 
   4:	55                   	push   %rbp
   5:	48 89 e5             	mov    %rsp,%rbp
   8:	53                   	push   %rbx
   9:	48 83 ec 38          	sub    $0x38,%rsp
   d:	48 89 7d d8          	mov    %rdi,-0x28(%rbp)
  11:	48 89 75 d0          	mov    %rsi,-0x30(%rbp)
  15:	48 89 55 c8          	mov    %rdx,-0x38(%rbp)
  19:	48 8b 45 c8          	mov    -0x38(%rbp),%rax
  1d:	48 89 45 e8          	mov    %rax,-0x18(%rbp)
  21:	eb 28                	jmp    4b <_ZNSt20__uninitialized_copyILb0EE13__uninit_copyIPKSt6vectorIiSaIiEEPS4_EET0_T_S9_S8_+0x4b>
  23:	48 8b 45 e8          	mov    -0x18(%rbp),%rax
  27:	48 89 c7             	mov    %rax,%rdi
  2a:	e8 00 00 00 00       	call   2f <_ZNSt20__uninitialized_copyILb0EE13__uninit_copyIPKSt6vectorIiSaIiEEPS4_EET0_T_S9_S8_+0x2f>
  2f:	48 89 c2             	mov    %rax,%rdx
  32:	48 8b 45 d8          	mov    -0x28(%rbp),%rax
  36:	48 89 c6             	mov    %rax,%rsi
  39:	48 89 d7             	mov    %rdx,%rdi
  3c:	e8 00 00 00 00       	call   41 <_ZNSt20__uninitialized_copyILb0EE13__uninit_copyIPKSt6vectorIiSaIiEEPS4_EET0_T_S9_S8_+0x41>
  41:	48 83 45 d8 18       	addq   $0x18,-0x28(%rbp)
  46:	48 83 45 e8 18       	addq   $0x18,-0x18(%rbp)
  4b:	48 8b 45 d8          	mov    -0x28(%rbp),%rax
  4f:	48 3b 45 d0          	cmp    -0x30(%rbp),%rax
  53:	75 ce                	jne    23 <_ZNSt20__uninitialized_copyILb0EE13__uninit_copyIPKSt6vectorIiSaIiEEPS4_EET0_T_S9_S8_+0x23>
  55:	48 8b 45 e8          	mov    -0x18(%rbp),%rax
  59:	eb 3b                	jmp    96 <_ZNSt20__uninitialized_copyILb0EE13__uninit_copyIPKSt6vectorIiSaIiEEPS4_EET0_T_S9_S8_+0x96>
  5b:	f3 0f 1e fa          	endbr64 
  5f:	48 89 c7             	mov    %rax,%rdi
  62:	e8 00 00 00 00       	call   67 <_ZNSt20__uninitialized_copyILb0EE13__uninit_copyIPKSt6vectorIiSaIiEEPS4_EET0_T_S9_S8_+0x67>
  67:	48 8b 55 e8          	mov    -0x18(%rbp),%rdx
  6b:	48 8b 45 c8          	mov    -0x38(%rbp),%rax
  6f:	48 89 d6             	mov    %rdx,%rsi
  72:	48 89 c7             	mov    %rax,%rdi
  75:	e8 00 00 00 00       	call   7a <_ZNSt20__uninitialized_copyILb0EE13__uninit_copyIPKSt6vectorIiSaIiEEPS4_EET0_T_S9_S8_+0x7a>
  7a:	e8 00 00 00 00       	call   7f <_ZNSt20__uninitialized_copyILb0EE13__uninit_copyIPKSt6vectorIiSaIiEEPS4_EET0_T_S9_S8_+0x7f>
  7f:	f3 0f 1e fa          	endbr64 
  83:	48 89 c3             	mov    %rax,%rbx
  86:	e8 00 00 00 00       	call   8b <_ZNSt20__uninitialized_copyILb0EE13__uninit_copyIPKSt6vectorIiSaIiEEPS4_EET0_T_S9_S8_+0x8b>
  8b:	48 89 d8             	mov    %rbx,%rax
  8e:	48 89 c7             	mov    %rax,%rdi
  91:	e8 00 00 00 00       	call   96 <_ZNSt20__uninitialized_copyILb0EE13__uninit_copyIPKSt6vectorIiSaIiEEPS4_EET0_T_S9_S8_+0x96>
  96:	48 8b 5d f8          	mov    -0x8(%rbp),%rbx
  9a:	c9                   	leave  
  9b:	c3                   	ret    

Disassembly of section .text._ZSt12__niter_baseIPiET_S1_:

0000000000000000 <_ZSt12__niter_baseIPiET_S1_>:
   0:	f3 0f 1e fa          	endbr64 
   4:	55                   	push   %rbp
   5:	48 89 e5             	mov    %rsp,%rbp
   8:	48 89 7d f8          	mov    %rdi,-0x8(%rbp)
   c:	48 8b 45 f8          	mov    -0x8(%rbp),%rax
  10:	5d                   	pop    %rbp
  11:	c3                   	ret    

Disassembly of section .text._ZSt14__relocate_a_1IiiENSt9enable_ifIXsrSt24__is_bitwise_relocatableIT_vE5valueEPS2_E4typeES4_S4_S4_RSaIT0_E:

0000000000000000 <_ZSt14__relocate_a_1IiiENSt9enable_ifIXsrSt24__is_bitwise_relocatableIT_vE5valueEPS2_E4typeES4_S4_S4_RSaIT0_E>:
   0:	f3 0f 1e fa          	endbr64 
   4:	55                   	push   %rbp
   5:	48 89 e5             	mov    %rsp,%rbp
   8:	48 83 ec 30          	sub    $0x30,%rsp
   c:	48 89 7d e8          	mov    %rdi,-0x18(%rbp)
  10:	48 89 75 e0          	mov    %rsi,-0x20(%rbp)
  14:	48 89 55 d8          	mov    %rdx,-0x28(%rbp)
  18:	48 89 4d d0          	mov    %rcx,-0x30(%rbp)
  1c:	48 8b 45 e0          	mov    -0x20(%rbp),%rax
  20:	48 2b 45 e8          	sub    -0x18(%rbp),%rax
  24:	48 c1 f8 02          	sar    $0x2,%rax
  28:	48 89 45 f8          	mov    %rax,-0x8(%rbp)
  2c:	48 83 7d f8 00       	cmpq   $0x0,-0x8(%rbp)
  31:	7e 1f                	jle    52 <_ZSt14__relocate_a_1IiiENSt9enable_ifIXsrSt24__is_bitwise_relocatableIT_vE5valueEPS2_E4typeES4_S4_S4_RSaIT0_E+0x52>
  33:	48 8b 45 f8          	mov    -0x8(%rbp),%rax
  37:	48 8d 14 85 00 00 00 	lea    0x0(,%rax,4),%rdx
  3e:	00 
  3f:	48 8b 4d e8          	mov    -0x18(%rbp),%rcx
  43:	48 8b 45 d8          	mov    -0x28(%rbp),%rax
  47:	48 89 ce             	mov    %rcx,%rsi
  4a:	48 89 c7             	mov    %rax,%rdi
  4d:	e8 00 00 00 00       	call   52 <_ZSt14__relocate_a_1IiiENSt9enable_ifIXsrSt24__is_bitwise_relocatableIT_vE5valueEPS2_E4typeES4_S4_S4_RSaIT0_E+0x52>
  52:	48 8b 45 f8          	mov    -0x8(%rbp),%rax
  56:	48 8d 14 85 00 00 00 	lea    0x0(,%rax,4),%rdx
  5d:	00 
  5e:	48 8b 45 d8          	mov    -0x28(%rbp),%rax
  62:	48 01 d0             	add    %rdx,%rax
  65:	c9                   	leave  
  66:	c3                   	ret    

Disassembly of section .text._ZNSt16allocator_traitsISaIiEE37select_on_container_copy_constructionERKS0_:

0000000000000000 <_ZNSt16allocator_traitsISaIiEE37select_on_container_copy_constructionERKS0_>:
   0:	f3 0f 1e fa          	endbr64 
   4:	55                   	push   %rbp
   5:	48 89 e5             	mov    %rsp,%rbp
   8:	48 83 ec 10          	sub    $0x10,%rsp
   c:	48 89 7d f8          	mov    %rdi,-0x8(%rbp)
  10:	48 89 75 f0          	mov    %rsi,-0x10(%rbp)
  14:	48 8b 55 f0          	mov    -0x10(%rbp),%rdx
  18:	48 8b 45 f8          	mov    -0x8(%rbp),%rax
  1c:	48 89 d6             	mov    %rdx,%rsi
  1f:	48 89 c7             	mov    %rax,%rdi
  22:	e8 00 00 00 00       	call   27 <_ZNSt16allocator_traitsISaIiEE37select_on_container_copy_constructionERKS0_+0x27>
  27:	48 8b 45 f8          	mov    -0x8(%rbp),%rax
  2b:	c9                   	leave  
  2c:	c3                   	ret    

Disassembly of section .text._ZNSt12_Vector_baseIiSaIiEE17_M_create_storageEm:

0000000000000000 <_ZNSt12_Vector_baseIiSaIiEE17_M_create_storageEm>:
   0:	f3 0f 1e fa          	endbr64 
   4:	55                   	push   %rbp
   5:	48 89 e5             	mov    %rsp,%rbp
   8:	48 83 ec 10          	sub    $0x10,%rsp
   c:	48 89 7d f8          	mov    %rdi,-0x8(%rbp)
  10:	48 89 75 f0          	mov    %rsi,-0x10(%rbp)
  14:	48 8b 55 f0          	mov    -0x10(%rbp),%rdx
  18:	48 8b 45 f8          	mov    -0x8(%rbp),%rax
  1c:	48 89 d6             	mov    %rdx,%rsi
  1f:	48 89 c7             	mov    %rax,%rdi
  22:	e8 00 00 00 00       	call   27 <_ZNSt12_Vector_baseIiSaIiEE17_M_create_storageEm+0x27>
  27:	48 8b 55 f8          	mov    -0x8(%rbp),%rdx
  2b:	48 89 02             	mov    %rax,(%rdx)
  2e:	48 8b 45 f8          	mov    -0x8(%rbp),%rax
  32:	48 8b 10             	mov    (%rax),%rdx
  35:	48 8b 45 f8          	mov    -0x8(%rbp),%rax
  39:	48 89 50 08          	mov    %rdx,0x8(%rax)
  3d:	48 8b 45 f8          	mov    -0x8(%rbp),%rax
  41:	48 8b 10             	mov    (%rax),%rdx
  44:	48 8b 45 f0          	mov    -0x10(%rbp),%rax
  48:	48 c1 e0 02          	shl    $0x2,%rax
  4c:	48 01 c2             	add    %rax,%rdx
  4f:	48 8b 45 f8          	mov    -0x8(%rbp),%rax
  53:	48 89 50 10          	mov    %rdx,0x10(%rax)
  57:	90                   	nop
  58:	c9                   	leave  
  59:	c3                   	ret    

Disassembly of section .text._ZN9__gnu_cxx17__normal_iteratorIPKiSt6vectorIiSaIiEEEC2ERKS2_:

0000000000000000 <_ZN9__gnu_cxx17__normal_iteratorIPKiSt6vectorIiSaIiEEEC1ERKS2_>:
   0:	f3 0f 1e fa          	endbr64 
   4:	55                   	push   %rbp
   5:	48 89 e5             	mov    %rsp,%rbp
   8:	48 89 7d f8          	mov    %rdi,-0x8(%rbp)
   c:	48 89 75 f0          	mov    %rsi,-0x10(%rbp)
  10:	48 8b 45 f0          	mov    -0x10(%rbp),%rax
  14:	48 8b 10             	mov    (%rax),%rdx
  17:	48 8b 45 f8          	mov    -0x8(%rbp),%rax
  1b:	48 89 10             	mov    %rdx,(%rax)
  1e:	90                   	nop
  1f:	5d                   	pop    %rbp
  20:	c3                   	ret    

Disassembly of section .text._ZSt18uninitialized_copyIN9__gnu_cxx17__normal_iteratorIPKiSt6vectorIiSaIiEEEEPiET0_T_SA_S9_:

0000000000000000 <_ZSt18uninitialized_copyIN9__gnu_cxx17__normal_iteratorIPKiSt6vectorIiSaIiEEEEPiET0_T_SA_S9_>:
   0:	f3 0f 1e fa          	endbr64 
   4:	55                   	push   %rbp
   5:	48 89 e5             	mov    %rsp,%rbp
   8:	48 83 ec 30          	sub    $0x30,%rsp
   c:	48 89 7d e8          	mov    %rdi,-0x18(%rbp)
  10:	48 89 75 e0          	mov    %rsi,-0x20(%rbp)
  14:	48 89 55 d8          	mov    %rdx,-0x28(%rbp)
  18:	c6 45 ff 01          	movb   $0x1,-0x1(%rbp)
  1c:	48 8b 55 d8          	mov    -0x28(%rbp),%rdx
  20:	48 8b 4d e0          	mov    -0x20(%rbp),%rcx
  24:	48 8b 45 e8          	mov    -0x18(%rbp),%rax
  28:	48 89 ce             	mov    %rcx,%rsi
  2b:	48 89 c7             	mov    %rax,%rdi
  2e:	e8 00 00 00 00       	call   33 <_ZSt18uninitialized_copyIN9__gnu_cxx17__normal_iteratorIPKiSt6vectorIiSaIiEEEEPiET0_T_SA_S9_+0x33>
  33:	c9                   	leave  
  34:	c3                   	ret    

Disassembly of section .text._ZNSt16allocator_traitsISaI4HeapEE8max_sizeERKS1_:

0000000000000000 <_ZNSt16allocator_traitsISaI4HeapEE8max_sizeERKS1_>:
   0:	f3 0f 1e fa          	endbr64 
   4:	55                   	push   %rbp
   5:	48 89 e5             	mov    %rsp,%rbp
   8:	48 83 ec 10          	sub    $0x10,%rsp
   c:	48 89 7d f8          	mov    %rdi,-0x8(%rbp)
  10:	48 8b 45 f8          	mov    -0x8(%rbp),%rax
  14:	48 89 c7             	mov    %rax,%rdi
  17:	e8 00 00 00 00       	call   1c <_ZNSt16allocator_traitsISaI4HeapEE8max_sizeERKS1_+0x1c>
  1c:	c9                   	leave  
  1d:	c3                   	ret    

Disassembly of section .text._ZSt12__niter_baseIP4HeapET_S2_:

0000000000000000 <_ZSt12__niter_baseIP4HeapET_S2_>:
   0:	f3 0f 1e fa          	endbr64 
   4:	55                   	push   %rbp
   5:	48 89 e5             	mov    %rsp,%rbp
   8:	48 89 7d f8          	mov    %rdi,-0x8(%rbp)
   c:	48 8b 45 f8          	mov    -0x8(%rbp),%rax
  10:	5d                   	pop    %rbp
  11:	c3                   	ret    

Disassembly of section .text._ZSt14__relocate_a_1IP4HeapS1_SaIS0_EET0_T_S4_S3_RT1_:

0000000000000000 <_ZSt14__relocate_a_1IP4HeapS1_SaIS0_EET0_T_S4_S3_RT1_>:
   0:	f3 0f 1e fa          	endbr64 
   4:	55                   	push   %rbp
   5:	48 89 e5             	mov    %rsp,%rbp
   8:	53                   	push   %rbx
   9:	48 83 ec 38          	sub    $0x38,%rsp
   d:	48 89 7d d8          	mov    %rdi,-0x28(%rbp)
  11:	48 89 75 d0          	mov    %rsi,-0x30(%rbp)
  15:	48 89 55 c8          	mov    %rdx,-0x38(%rbp)
  19:	48 89 4d c0          	mov    %rcx,-0x40(%rbp)
  1d:	48 8b 45 c8          	mov    -0x38(%rbp),%rax
  21:	48 89 45 e8          	mov    %rax,-0x18(%rbp)
  25:	eb 3a                	jmp    61 <_ZSt14__relocate_a_1IP4HeapS1_SaIS0_EET0_T_S4_S3_RT1_+0x61>
  27:	48 8b 45 d8          	mov    -0x28(%rbp),%rax
  2b:	48 89 c7             	mov    %rax,%rdi
  2e:	e8 00 00 00 00       	call   33 <_ZSt14__relocate_a_1IP4HeapS1_SaIS0_EET0_T_S4_S3_RT1_+0x33>
  33:	48 89 c3             	mov    %rax,%rbx
  36:	48 8b 45 e8          	mov    -0x18(%rbp),%rax
  3a:	48 89 c7             	mov    %rax,%rdi
  3d:	e8 00 00 00 00       	call   42 <_ZSt14__relocate_a_1IP4HeapS1_SaIS0_EET0_T_S4_S3_RT1_+0x42>
  42:	48 89 c1             	mov    %rax,%rcx
  45:	48 8b 45 c0          	mov    -0x40(%rbp),%rax
  49:	48 89 c2             	mov    %rax,%rdx
  4c:	48 89 de             	mov    %rbx,%rsi
  4f:	48 89 cf             	mov    %rcx,%rdi
  52:	e8 00 00 00 00       	call   57 <_ZSt14__relocate_a_1IP4HeapS1_SaIS0_EET0_T_S4_S3_RT1_+0x57>
  57:	48 83 45 d8 20       	addq   $0x20,-0x28(%rbp)
  5c:	48 83 45 e8 20       	addq   $0x20,-0x18(%rbp)
  61:	48 8b 45 d8          	mov    -0x28(%rbp),%rax
  65:	48 3b 45 d0          	cmp    -0x30(%rbp),%rax
  69:	75 bc                	jne    27 <_ZSt14__relocate_a_1IP4HeapS1_SaIS0_EET0_T_S4_S3_RT1_+0x27>
  6b:	48 8b 45 e8          	mov    -0x18(%rbp),%rax
  6f:	48 8b 5d f8          	mov    -0x8(%rbp),%rbx
  73:	c9                   	leave  
  74:	c3                   	ret    

Disassembly of section .text._ZNK9__gnu_cxx13new_allocatorIiE8max_sizeEv:

0000000000000000 <_ZNK9__gnu_cxx13new_allocatorIiE8max_sizeEv>:
   0:	f3 0f 1e fa          	endbr64 
   4:	55                   	push   %rbp
   5:	48 89 e5             	mov    %rsp,%rbp
   8:	48 83 ec 10          	sub    $0x10,%rsp
   c:	48 89 7d f8          	mov    %rdi,-0x8(%rbp)
  10:	48 8b 45 f8          	mov    -0x8(%rbp),%rax
  14:	48 89 c7             	mov    %rax,%rdi
  17:	e8 00 00 00 00       	call   1c <_ZNK9__gnu_cxx13new_allocatorIiE8max_sizeEv+0x1c>
  1c:	c9                   	leave  
  1d:	c3                   	ret    

Disassembly of section .text._ZSt4copyIPKiPiET0_T_S4_S3_:

0000000000000000 <_ZSt4copyIPKiPiET0_T_S4_S3_>:
   0:	f3 0f 1e fa          	endbr64 
   4:	55                   	push   %rbp
   5:	48 89 e5             	mov    %rsp,%rbp
   8:	53                   	push   %rbx
   9:	48 83 ec 28          	sub    $0x28,%rsp
   d:	48 89 7d e8          	mov    %rdi,-0x18(%rbp)
  11:	48 89 75 e0          	mov    %rsi,-0x20(%rbp)
  15:	48 89 55 d8          	mov    %rdx,-0x28(%rbp)
  19:	48 8b 45 e0          	mov    -0x20(%rbp),%rax
  1d:	48 89 c7             	mov    %rax,%rdi
  20:	e8 00 00 00 00       	call   25 <_ZSt4copyIPKiPiET0_T_S4_S3_+0x25>
  25:	48 89 c3             	mov    %rax,%rbx
  28:	48 8b 45 e8          	mov    -0x18(%rbp),%rax
  2c:	48 89 c7             	mov    %rax,%rdi
  2f:	e8 00 00 00 00       	call   34 <_ZSt4copyIPKiPiET0_T_S4_S3_+0x34>
  34:	48 89 c1             	mov    %rax,%rcx
  37:	48 8b 45 d8          	mov    -0x28(%rbp),%rax
  3b:	48 89 c2             	mov    %rax,%rdx
  3e:	48 89 de             	mov    %rbx,%rsi
  41:	48 89 cf             	mov    %rcx,%rdi
  44:	e8 00 00 00 00       	call   49 <_ZSt4copyIPKiPiET0_T_S4_S3_+0x49>
  49:	48 8b 5d f8          	mov    -0x8(%rbp),%rbx
  4d:	c9                   	leave  
  4e:	c3                   	ret    

Disassembly of section .text._ZSt4moveIRNSt12_Vector_baseIiSaIiEE12_Vector_implEEONSt16remove_referenceIT_E4typeEOS6_:

0000000000000000 <_ZSt4moveIRNSt12_Vector_baseIiSaIiEE12_Vector_implEEONSt16remove_referenceIT_E4typeEOS6_>:
   0:	f3 0f 1e fa          	endbr64 
   4:	55                   	push   %rbp
   5:	48 89 e5             	mov    %rsp,%rbp
   8:	48 89 7d f8          	mov    %rdi,-0x8(%rbp)
   c:	48 8b 45 f8          	mov    -0x8(%rbp),%rax
  10:	5d                   	pop    %rbp
  11:	c3                   	ret    

Disassembly of section .text._ZNSt12_Vector_baseIiSaIiEE17_Vector_impl_dataC2EOS2_:

0000000000000000 <_ZNSt12_Vector_baseIiSaIiEE17_Vector_impl_dataC1EOS2_>:
   0:	f3 0f 1e fa          	endbr64 
   4:	55                   	push   %rbp
   5:	48 89 e5             	mov    %rsp,%rbp
   8:	48 89 7d f8          	mov    %rdi,-0x8(%rbp)
   c:	48 89 75 f0          	mov    %rsi,-0x10(%rbp)
  10:	48 8b 45 f0          	mov    -0x10(%rbp),%rax
  14:	48 8b 10             	mov    (%rax),%rdx
  17:	48 8b 45 f8          	mov    -0x8(%rbp),%rax
  1b:	48 89 10             	mov    %rdx,(%rax)
  1e:	48 8b 45 f0          	mov    -0x10(%rbp),%rax
  22:	48 8b 50 08          	mov    0x8(%rax),%rdx
  26:	48 8b 45 f8          	mov    -0x8(%rbp),%rax
  2a:	48 89 50 08          	mov    %rdx,0x8(%rax)
  2e:	48 8b 45 f0          	mov    -0x10(%rbp),%rax
  32:	48 8b 50 10          	mov    0x10(%rax),%rdx
  36:	48 8b 45 f8          	mov    -0x8(%rbp),%rax
  3a:	48 89 50 10          	mov    %rdx,0x10(%rax)
  3e:	48 8b 45 f0          	mov    -0x10(%rbp),%rax
  42:	48 c7 40 10 00 00 00 	movq   $0x0,0x10(%rax)
  49:	00 
  4a:	48 8b 45 f0          	mov    -0x10(%rbp),%rax
  4e:	48 8b 50 10          	mov    0x10(%rax),%rdx
  52:	48 8b 45 f0          	mov    -0x10(%rbp),%rax
  56:	48 89 50 08          	mov    %rdx,0x8(%rax)
  5a:	48 8b 45 f0          	mov    -0x10(%rbp),%rax
  5e:	48 8b 50 08          	mov    0x8(%rax),%rdx
  62:	48 8b 45 f0          	mov    -0x10(%rbp),%rax
  66:	48 89 10             	mov    %rdx,(%rax)
  69:	90                   	nop
  6a:	5d                   	pop    %rbp
  6b:	c3                   	ret    

Disassembly of section .text._ZNKSt12_Vector_baseISt6vectorIiSaIiEESaIS2_EE19_M_get_Tp_allocatorEv:

0000000000000000 <_ZNKSt12_Vector_baseISt6vectorIiSaIiEESaIS2_EE19_M_get_Tp_allocatorEv>:
   0:	f3 0f 1e fa          	endbr64 
   4:	55                   	push   %rbp
   5:	48 89 e5             	mov    %rsp,%rbp
   8:	48 89 7d f8          	mov    %rdi,-0x8(%rbp)
   c:	48 8b 45 f8          	mov    -0x8(%rbp),%rax
  10:	5d                   	pop    %rbp
  11:	c3                   	ret    

Disassembly of section .text._ZSt12__relocate_aIPSt6vectorIiSaIiEES3_SaIS2_EET0_T_S6_S5_RT1_:

0000000000000000 <_ZSt12__relocate_aIPSt6vectorIiSaIiEES3_SaIS2_EET0_T_S6_S5_RT1_>:
   0:	f3 0f 1e fa          	endbr64 
   4:	55                   	push   %rbp
   5:	48 89 e5             	mov    %rsp,%rbp
   8:	41 54                	push   %r12
   a:	53                   	push   %rbx
   b:	48 83 ec 20          	sub    $0x20,%rsp
   f:	48 89 7d e8          	mov    %rdi,-0x18(%rbp)
  13:	48 89 75 e0          	mov    %rsi,-0x20(%rbp)
  17:	48 89 55 d8          	mov    %rdx,-0x28(%rbp)
  1b:	48 89 4d d0          	mov    %rcx,-0x30(%rbp)
  1f:	48 8b 45 d8          	mov    -0x28(%rbp),%rax
  23:	48 89 c7             	mov    %rax,%rdi
  26:	e8 00 00 00 00       	call   2b <_ZSt12__relocate_aIPSt6vectorIiSaIiEES3_SaIS2_EET0_T_S6_S5_RT1_+0x2b>
  2b:	49 89 c4             	mov    %rax,%r12
  2e:	48 8b 45 e0          	mov    -0x20(%rbp),%rax
  32:	48 89 c7             	mov    %rax,%rdi
  35:	e8 00 00 00 00       	call   3a <_ZSt12__relocate_aIPSt6vectorIiSaIiEES3_SaIS2_EET0_T_S6_S5_RT1_+0x3a>
  3a:	48 89 c3             	mov    %rax,%rbx
  3d:	48 8b 45 e8          	mov    -0x18(%rbp),%rax
  41:	48 89 c7             	mov    %rax,%rdi
  44:	e8 00 00 00 00       	call   49 <_ZSt12__relocate_aIPSt6vectorIiSaIiEES3_SaIS2_EET0_T_S6_S5_RT1_+0x49>
  49:	48 89 c7             	mov    %rax,%rdi
  4c:	48 8b 45 d0          	mov    -0x30(%rbp),%rax
  50:	48 89 c1             	mov    %rax,%rcx
  53:	4c 89 e2             	mov    %r12,%rdx
  56:	48 89 de             	mov    %rbx,%rsi
  59:	e8 00 00 00 00       	call   5e <_ZSt12__relocate_aIPSt6vectorIiSaIiEES3_SaIS2_EET0_T_S6_S5_RT1_+0x5e>
  5e:	48 83 c4 20          	add    $0x20,%rsp
  62:	5b                   	pop    %rbx
  63:	41 5c                	pop    %r12
  65:	5d                   	pop    %rbp
  66:	c3                   	ret    

Disassembly of section .text._ZNK9__gnu_cxx13new_allocatorISt6vectorIiSaIiEEE8max_sizeEv:

0000000000000000 <_ZNK9__gnu_cxx13new_allocatorISt6vectorIiSaIiEEE8max_sizeEv>:
   0:	f3 0f 1e fa          	endbr64 
   4:	55                   	push   %rbp
   5:	48 89 e5             	mov    %rsp,%rbp
   8:	48 83 ec 10          	sub    $0x10,%rsp
   c:	48 89 7d f8          	mov    %rdi,-0x8(%rbp)
  10:	48 8b 45 f8          	mov    -0x8(%rbp),%rax
  14:	48 89 c7             	mov    %rax,%rdi
  17:	e8 00 00 00 00       	call   1c <_ZNK9__gnu_cxx13new_allocatorISt6vectorIiSaIiEEE8max_sizeEv+0x1c>
  1c:	c9                   	leave  
  1d:	c3                   	ret    

Disassembly of section .text._ZSt10_ConstructISt6vectorIiSaIiEEJRKS2_EEvPT_DpOT0_:

0000000000000000 <_ZSt10_ConstructISt6vectorIiSaIiEEJRKS2_EEvPT_DpOT0_>:
   0:	f3 0f 1e fa          	endbr64 
   4:	55                   	push   %rbp
   5:	48 89 e5             	mov    %rsp,%rbp
   8:	41 55                	push   %r13
   a:	41 54                	push   %r12
   c:	53                   	push   %rbx
   d:	48 83 ec 18          	sub    $0x18,%rsp
  11:	48 89 7d d8          	mov    %rdi,-0x28(%rbp)
  15:	48 89 75 d0          	mov    %rsi,-0x30(%rbp)
  19:	48 8b 45 d0          	mov    -0x30(%rbp),%rax
  1d:	48 89 c7             	mov    %rax,%rdi
  20:	e8 00 00 00 00       	call   25 <_ZSt10_ConstructISt6vectorIiSaIiEEJRKS2_EEvPT_DpOT0_+0x25>
  25:	49 89 c5             	mov    %rax,%r13
  28:	48 8b 5d d8          	mov    -0x28(%rbp),%rbx
  2c:	48 89 de             	mov    %rbx,%rsi
  2f:	bf 18 00 00 00       	mov    $0x18,%edi
  34:	e8 00 00 00 00       	call   39 <_ZSt10_ConstructISt6vectorIiSaIiEEJRKS2_EEvPT_DpOT0_+0x39>
  39:	49 89 c4             	mov    %rax,%r12
  3c:	4c 89 ee             	mov    %r13,%rsi
  3f:	4c 89 e7             	mov    %r12,%rdi
  42:	e8 00 00 00 00       	call   47 <_ZSt10_ConstructISt6vectorIiSaIiEEJRKS2_EEvPT_DpOT0_+0x47>
  47:	eb 1d                	jmp    66 <_ZSt10_ConstructISt6vectorIiSaIiEEJRKS2_EEvPT_DpOT0_+0x66>
  49:	f3 0f 1e fa          	endbr64 
  4d:	49 89 c5             	mov    %rax,%r13
  50:	48 89 de             	mov    %rbx,%rsi
  53:	4c 89 e7             	mov    %r12,%rdi
  56:	e8 00 00 00 00       	call   5b <_ZSt10_ConstructISt6vectorIiSaIiEEJRKS2_EEvPT_DpOT0_+0x5b>
  5b:	4c 89 e8             	mov    %r13,%rax
  5e:	48 89 c7             	mov    %rax,%rdi
  61:	e8 00 00 00 00       	call   66 <_ZSt10_ConstructISt6vectorIiSaIiEEJRKS2_EEvPT_DpOT0_+0x66>
  66:	48 83 c4 18          	add    $0x18,%rsp
  6a:	5b                   	pop    %rbx
  6b:	41 5c                	pop    %r12
  6d:	41 5d                	pop    %r13
  6f:	5d                   	pop    %rbp
  70:	c3                   	ret    

Disassembly of section .text._ZNSt20__uninitialized_copyILb1EE13__uninit_copyIN9__gnu_cxx17__normal_iteratorIPKiSt6vectorIiSaIiEEEEPiEET0_T_SC_SB_:

0000000000000000 <_ZNSt20__uninitialized_copyILb1EE13__uninit_copyIN9__gnu_cxx17__normal_iteratorIPKiSt6vectorIiSaIiEEEEPiEET0_T_SC_SB_>:
   0:	f3 0f 1e fa          	endbr64 
   4:	55                   	push   %rbp
   5:	48 89 e5             	mov    %rsp,%rbp
   8:	48 83 ec 20          	sub    $0x20,%rsp
   c:	48 89 7d f8          	mov    %rdi,-0x8(%rbp)
  10:	48 89 75 f0          	mov    %rsi,-0x10(%rbp)
  14:	48 89 55 e8          	mov    %rdx,-0x18(%rbp)
  18:	48 8b 55 e8          	mov    -0x18(%rbp),%rdx
  1c:	48 8b 4d f0          	mov    -0x10(%rbp),%rcx
  20:	48 8b 45 f8          	mov    -0x8(%rbp),%rax
  24:	48 89 ce             	mov    %rcx,%rsi
  27:	48 89 c7             	mov    %rax,%rdi
  2a:	e8 00 00 00 00       	call   2f <_ZNSt20__uninitialized_copyILb1EE13__uninit_copyIN9__gnu_cxx17__normal_iteratorIPKiSt6vectorIiSaIiEEEEPiEET0_T_SC_SB_+0x2f>
  2f:	c9                   	leave  
  30:	c3                   	ret    

Disassembly of section .text._ZNK9__gnu_cxx13new_allocatorI4HeapE8max_sizeEv:

0000000000000000 <_ZNK9__gnu_cxx13new_allocatorI4HeapE8max_sizeEv>:
   0:	f3 0f 1e fa          	endbr64 
   4:	55                   	push   %rbp
   5:	48 89 e5             	mov    %rsp,%rbp
   8:	48 83 ec 10          	sub    $0x10,%rsp
   c:	48 89 7d f8          	mov    %rdi,-0x8(%rbp)
  10:	48 8b 45 f8          	mov    -0x8(%rbp),%rax
  14:	48 89 c7             	mov    %rax,%rdi
  17:	e8 00 00 00 00       	call   1c <_ZNK9__gnu_cxx13new_allocatorI4HeapE8max_sizeEv+0x1c>
  1c:	c9                   	leave  
  1d:	c3                   	ret    

Disassembly of section .text._ZSt19__relocate_object_aI4HeapS0_SaIS0_EEvPT_PT0_RT1_:

0000000000000000 <_ZSt19__relocate_object_aI4HeapS0_SaIS0_EEvPT_PT0_RT1_>:
   0:	f3 0f 1e fa          	endbr64 
   4:	55                   	push   %rbp
   5:	48 89 e5             	mov    %rsp,%rbp
   8:	48 83 ec 20          	sub    $0x20,%rsp
   c:	48 89 7d f8          	mov    %rdi,-0x8(%rbp)
  10:	48 89 75 f0          	mov    %rsi,-0x10(%rbp)
  14:	48 89 55 e8          	mov    %rdx,-0x18(%rbp)
  18:	48 8b 45 f0          	mov    -0x10(%rbp),%rax
  1c:	48 89 c7             	mov    %rax,%rdi
  1f:	e8 00 00 00 00       	call   24 <_ZSt19__relocate_object_aI4HeapS0_SaIS0_EEvPT_PT0_RT1_+0x24>
  24:	48 89 c2             	mov    %rax,%rdx
  27:	48 8b 4d f8          	mov    -0x8(%rbp),%rcx
  2b:	48 8b 45 e8          	mov    -0x18(%rbp),%rax
  2f:	48 89 ce             	mov    %rcx,%rsi
  32:	48 89 c7             	mov    %rax,%rdi
  35:	e8 00 00 00 00       	call   3a <_ZSt19__relocate_object_aI4HeapS0_SaIS0_EEvPT_PT0_RT1_+0x3a>
  3a:	48 8b 45 f0          	mov    -0x10(%rbp),%rax
  3e:	48 89 c7             	mov    %rax,%rdi
  41:	e8 00 00 00 00       	call   46 <_ZSt19__relocate_object_aI4HeapS0_SaIS0_EEvPT_PT0_RT1_+0x46>
  46:	48 89 c2             	mov    %rax,%rdx
  49:	48 8b 45 e8          	mov    -0x18(%rbp),%rax
  4d:	48 89 d6             	mov    %rdx,%rsi
  50:	48 89 c7             	mov    %rax,%rdi
  53:	e8 00 00 00 00       	call   58 <_ZSt19__relocate_object_aI4HeapS0_SaIS0_EEvPT_PT0_RT1_+0x58>
  58:	90                   	nop
  59:	c9                   	leave  
  5a:	c3                   	ret    

Disassembly of section .text._ZSt12__miter_baseIPKiET_S2_:

0000000000000000 <_ZSt12__miter_baseIPKiET_S2_>:
   0:	f3 0f 1e fa          	endbr64 
   4:	55                   	push   %rbp
   5:	48 89 e5             	mov    %rsp,%rbp
   8:	48 89 7d f8          	mov    %rdi,-0x8(%rbp)
   c:	48 8b 45 f8          	mov    -0x8(%rbp),%rax
  10:	5d                   	pop    %rbp
  11:	c3                   	ret    

Disassembly of section .text._ZSt13__copy_move_aILb0EPKiPiET1_T0_S4_S3_:

0000000000000000 <_ZSt13__copy_move_aILb0EPKiPiET1_T0_S4_S3_>:
   0:	f3 0f 1e fa          	endbr64 
   4:	55                   	push   %rbp
   5:	48 89 e5             	mov    %rsp,%rbp
   8:	41 54                	push   %r12
   a:	53                   	push   %rbx
   b:	48 83 ec 20          	sub    $0x20,%rsp
   f:	48 89 7d e8          	mov    %rdi,-0x18(%rbp)
  13:	48 89 75 e0          	mov    %rsi,-0x20(%rbp)
  17:	48 89 55 d8          	mov    %rdx,-0x28(%rbp)
  1b:	48 8b 45 d8          	mov    -0x28(%rbp),%rax
  1f:	48 89 c7             	mov    %rax,%rdi
  22:	e8 00 00 00 00       	call   27 <_ZSt13__copy_move_aILb0EPKiPiET1_T0_S4_S3_+0x27>
  27:	49 89 c4             	mov    %rax,%r12
  2a:	48 8b 45 e0          	mov    -0x20(%rbp),%rax
  2e:	48 89 c7             	mov    %rax,%rdi
  31:	e8 00 00 00 00       	call   36 <_ZSt13__copy_move_aILb0EPKiPiET1_T0_S4_S3_+0x36>
  36:	48 89 c3             	mov    %rax,%rbx
  39:	48 8b 45 e8          	mov    -0x18(%rbp),%rax
  3d:	48 89 c7             	mov    %rax,%rdi
  40:	e8 00 00 00 00       	call   45 <_ZSt13__copy_move_aILb0EPKiPiET1_T0_S4_S3_+0x45>
  45:	4c 89 e2             	mov    %r12,%rdx
  48:	48 89 de             	mov    %rbx,%rsi
  4b:	48 89 c7             	mov    %rax,%rdi
  4e:	e8 00 00 00 00       	call   53 <_ZSt13__copy_move_aILb0EPKiPiET1_T0_S4_S3_+0x53>
  53:	48 89 c2             	mov    %rax,%rdx
  56:	48 8d 45 d8          	lea    -0x28(%rbp),%rax
  5a:	48 89 d6             	mov    %rdx,%rsi
  5d:	48 89 c7             	mov    %rax,%rdi
  60:	e8 00 00 00 00       	call   65 <_ZSt13__copy_move_aILb0EPKiPiET1_T0_S4_S3_+0x65>
  65:	48 83 c4 20          	add    $0x20,%rsp
  69:	5b                   	pop    %rbx
  6a:	41 5c                	pop    %r12
  6c:	5d                   	pop    %rbp
  6d:	c3                   	ret    

Disassembly of section .text._ZSt12__niter_baseIPSt6vectorIiSaIiEEET_S4_:

0000000000000000 <_ZSt12__niter_baseIPSt6vectorIiSaIiEEET_S4_>:
   0:	f3 0f 1e fa          	endbr64 
   4:	55                   	push   %rbp
   5:	48 89 e5             	mov    %rsp,%rbp
   8:	48 89 7d f8          	mov    %rdi,-0x8(%rbp)
   c:	48 8b 45 f8          	mov    -0x8(%rbp),%rax
  10:	5d                   	pop    %rbp
  11:	c3                   	ret    

Disassembly of section .text._ZSt14__relocate_a_1IPSt6vectorIiSaIiEES3_SaIS2_EET0_T_S6_S5_RT1_:

0000000000000000 <_ZSt14__relocate_a_1IPSt6vectorIiSaIiEES3_SaIS2_EET0_T_S6_S5_RT1_>:
   0:	f3 0f 1e fa          	endbr64 
   4:	55                   	push   %rbp
   5:	48 89 e5             	mov    %rsp,%rbp
   8:	53                   	push   %rbx
   9:	48 83 ec 38          	sub    $0x38,%rsp
   d:	48 89 7d d8          	mov    %rdi,-0x28(%rbp)
  11:	48 89 75 d0          	mov    %rsi,-0x30(%rbp)
  15:	48 89 55 c8          	mov    %rdx,-0x38(%rbp)
  19:	48 89 4d c0          	mov    %rcx,-0x40(%rbp)
  1d:	48 8b 45 c8          	mov    -0x38(%rbp),%rax
  21:	48 89 45 e8          	mov    %rax,-0x18(%rbp)
  25:	eb 3a                	jmp    61 <_ZSt14__relocate_a_1IPSt6vectorIiSaIiEES3_SaIS2_EET0_T_S6_S5_RT1_+0x61>
  27:	48 8b 45 d8          	mov    -0x28(%rbp),%rax
  2b:	48 89 c7             	mov    %rax,%rdi
  2e:	e8 00 00 00 00       	call   33 <_ZSt14__relocate_a_1IPSt6vectorIiSaIiEES3_SaIS2_EET0_T_S6_S5_RT1_+0x33>
  33:	48 89 c3             	mov    %rax,%rbx
  36:	48 8b 45 e8          	mov    -0x18(%rbp),%rax
  3a:	48 89 c7             	mov    %rax,%rdi
  3d:	e8 00 00 00 00       	call   42 <_ZSt14__relocate_a_1IPSt6vectorIiSaIiEES3_SaIS2_EET0_T_S6_S5_RT1_+0x42>
  42:	48 89 c1             	mov    %rax,%rcx
  45:	48 8b 45 c0          	mov    -0x40(%rbp),%rax
  49:	48 89 c2             	mov    %rax,%rdx
  4c:	48 89 de             	mov    %rbx,%rsi
  4f:	48 89 cf             	mov    %rcx,%rdi
  52:	e8 00 00 00 00       	call   57 <_ZSt14__relocate_a_1IPSt6vectorIiSaIiEES3_SaIS2_EET0_T_S6_S5_RT1_+0x57>
  57:	48 83 45 d8 18       	addq   $0x18,-0x28(%rbp)
  5c:	48 83 45 e8 18       	addq   $0x18,-0x18(%rbp)
  61:	48 8b 45 d8          	mov    -0x28(%rbp),%rax
  65:	48 3b 45 d0          	cmp    -0x30(%rbp),%rax
  69:	75 bc                	jne    27 <_ZSt14__relocate_a_1IPSt6vectorIiSaIiEES3_SaIS2_EET0_T_S6_S5_RT1_+0x27>
  6b:	48 8b 45 e8          	mov    -0x18(%rbp),%rax
  6f:	48 8b 5d f8          	mov    -0x8(%rbp),%rbx
  73:	c9                   	leave  
  74:	c3                   	ret    

Disassembly of section .text._ZSt7forwardIRKSt6vectorIiSaIiEEEOT_RNSt16remove_referenceIS5_E4typeE:

0000000000000000 <_ZSt7forwardIRKSt6vectorIiSaIiEEEOT_RNSt16remove_referenceIS5_E4typeE>:
   0:	f3 0f 1e fa          	endbr64 
   4:	55                   	push   %rbp
   5:	48 89 e5             	mov    %rsp,%rbp
   8:	48 89 7d f8          	mov    %rdi,-0x8(%rbp)
   c:	48 8b 45 f8          	mov    -0x8(%rbp),%rax
  10:	5d                   	pop    %rbp
  11:	c3                   	ret    

Disassembly of section .text._ZSt4copyIN9__gnu_cxx17__normal_iteratorIPKiSt6vectorIiSaIiEEEEPiET0_T_SA_S9_:

0000000000000000 <_ZSt4copyIN9__gnu_cxx17__normal_iteratorIPKiSt6vectorIiSaIiEEEEPiET0_T_SA_S9_>:
   0:	f3 0f 1e fa          	endbr64 
   4:	55                   	push   %rbp
   5:	48 89 e5             	mov    %rsp,%rbp
   8:	53                   	push   %rbx
   9:	48 83 ec 28          	sub    $0x28,%rsp
   d:	48 89 7d e8          	mov    %rdi,-0x18(%rbp)
  11:	48 89 75 e0          	mov    %rsi,-0x20(%rbp)
  15:	48 89 55 d8          	mov    %rdx,-0x28(%rbp)
  19:	48 8b 45 e0          	mov    -0x20(%rbp),%rax
  1d:	48 89 c7             	mov    %rax,%rdi
  20:	e8 00 00 00 00       	call   25 <_ZSt4copyIN9__gnu_cxx17__normal_iteratorIPKiSt6vectorIiSaIiEEEEPiET0_T_SA_S9_+0x25>
  25:	48 89 c3             	mov    %rax,%rbx
  28:	48 8b 45 e8          	mov    -0x18(%rbp),%rax
  2c:	48 89 c7             	mov    %rax,%rdi
  2f:	e8 00 00 00 00       	call   34 <_ZSt4copyIN9__gnu_cxx17__normal_iteratorIPKiSt6vectorIiSaIiEEEEPiET0_T_SA_S9_+0x34>
  34:	48 89 c1             	mov    %rax,%rcx
  37:	48 8b 45 d8          	mov    -0x28(%rbp),%rax
  3b:	48 89 c2             	mov    %rax,%rdx
  3e:	48 89 de             	mov    %rbx,%rsi
  41:	48 89 cf             	mov    %rcx,%rdi
  44:	e8 00 00 00 00       	call   49 <_ZSt4copyIN9__gnu_cxx17__normal_iteratorIPKiSt6vectorIiSaIiEEEEPiET0_T_SA_S9_+0x49>
  49:	48 8b 5d f8          	mov    -0x8(%rbp),%rbx
  4d:	c9                   	leave  
  4e:	c3                   	ret    

Disassembly of section .text._ZSt4moveIR4HeapEONSt16remove_referenceIT_E4typeEOS3_:

0000000000000000 <_ZSt4moveIR4HeapEONSt16remove_referenceIT_E4typeEOS3_>:
   0:	f3 0f 1e fa          	endbr64 
   4:	55                   	push   %rbp
   5:	48 89 e5             	mov    %rsp,%rbp
   8:	48 89 7d f8          	mov    %rdi,-0x8(%rbp)
   c:	48 8b 45 f8          	mov    -0x8(%rbp),%rax
  10:	5d                   	pop    %rbp
  11:	c3                   	ret    

Disassembly of section .text._ZNSt16allocator_traitsISaI4HeapEE9constructIS0_JS0_EEEvRS1_PT_DpOT0_:

0000000000000000 <_ZNSt16allocator_traitsISaI4HeapEE9constructIS0_JS0_EEEvRS1_PT_DpOT0_>:
   0:	f3 0f 1e fa          	endbr64 
   4:	55                   	push   %rbp
   5:	48 89 e5             	mov    %rsp,%rbp
   8:	48 83 ec 20          	sub    $0x20,%rsp
   c:	48 89 7d f8          	mov    %rdi,-0x8(%rbp)
  10:	48 89 75 f0          	mov    %rsi,-0x10(%rbp)
  14:	48 89 55 e8          	mov    %rdx,-0x18(%rbp)
  18:	48 8b 45 e8          	mov    -0x18(%rbp),%rax
  1c:	48 89 c7             	mov    %rax,%rdi
  1f:	e8 00 00 00 00       	call   24 <_ZNSt16allocator_traitsISaI4HeapEE9constructIS0_JS0_EEEvRS1_PT_DpOT0_+0x24>
  24:	48 89 c2             	mov    %rax,%rdx
  27:	48 8b 4d f0          	mov    -0x10(%rbp),%rcx
  2b:	48 8b 45 f8          	mov    -0x8(%rbp),%rax
  2f:	48 89 ce             	mov    %rcx,%rsi
  32:	48 89 c7             	mov    %rax,%rdi
  35:	e8 00 00 00 00       	call   3a <_ZNSt16allocator_traitsISaI4HeapEE9constructIS0_JS0_EEEvRS1_PT_DpOT0_+0x3a>
  3a:	90                   	nop
  3b:	c9                   	leave  
  3c:	c3                   	ret    

Disassembly of section .text._ZSt12__niter_baseIPKiET_S2_:

0000000000000000 <_ZSt12__niter_baseIPKiET_S2_>:
   0:	f3 0f 1e fa          	endbr64 
   4:	55                   	push   %rbp
   5:	48 89 e5             	mov    %rsp,%rbp
   8:	48 89 7d f8          	mov    %rdi,-0x8(%rbp)
   c:	48 8b 45 f8          	mov    -0x8(%rbp),%rax
  10:	5d                   	pop    %rbp
  11:	c3                   	ret    

Disassembly of section .text._ZSt14__copy_move_a1ILb0EPKiPiET1_T0_S4_S3_:

0000000000000000 <_ZSt14__copy_move_a1ILb0EPKiPiET1_T0_S4_S3_>:
   0:	f3 0f 1e fa          	endbr64 
   4:	55                   	push   %rbp
   5:	48 89 e5             	mov    %rsp,%rbp
   8:	48 83 ec 20          	sub    $0x20,%rsp
   c:	48 89 7d f8          	mov    %rdi,-0x8(%rbp)
  10:	48 89 75 f0          	mov    %rsi,-0x10(%rbp)
  14:	48 89 55 e8          	mov    %rdx,-0x18(%rbp)
  18:	48 8b 55 e8          	mov    -0x18(%rbp),%rdx
  1c:	48 8b 4d f0          	mov    -0x10(%rbp),%rcx
  20:	48 8b 45 f8          	mov    -0x8(%rbp),%rax
  24:	48 89 ce             	mov    %rcx,%rsi
  27:	48 89 c7             	mov    %rax,%rdi
  2a:	e8 00 00 00 00       	call   2f <_ZSt14__copy_move_a1ILb0EPKiPiET1_T0_S4_S3_+0x2f>
  2f:	c9                   	leave  
  30:	c3                   	ret    

Disassembly of section .text._ZSt12__niter_wrapIPiET_RKS1_S1_:

0000000000000000 <_ZSt12__niter_wrapIPiET_RKS1_S1_>:
   0:	f3 0f 1e fa          	endbr64 
   4:	55                   	push   %rbp
   5:	48 89 e5             	mov    %rsp,%rbp
   8:	48 89 7d f8          	mov    %rdi,-0x8(%rbp)
   c:	48 89 75 f0          	mov    %rsi,-0x10(%rbp)
  10:	48 8b 45 f0          	mov    -0x10(%rbp),%rax
  14:	5d                   	pop    %rbp
  15:	c3                   	ret    

Disassembly of section .text._ZSt19__relocate_object_aISt6vectorIiSaIiEES2_SaIS2_EEvPT_PT0_RT1_:

0000000000000000 <_ZSt19__relocate_object_aISt6vectorIiSaIiEES2_SaIS2_EEvPT_PT0_RT1_>:
   0:	f3 0f 1e fa          	endbr64 
   4:	55                   	push   %rbp
   5:	48 89 e5             	mov    %rsp,%rbp
   8:	48 83 ec 20          	sub    $0x20,%rsp
   c:	48 89 7d f8          	mov    %rdi,-0x8(%rbp)
  10:	48 89 75 f0          	mov    %rsi,-0x10(%rbp)
  14:	48 89 55 e8          	mov    %rdx,-0x18(%rbp)
  18:	48 8b 45 f0          	mov    -0x10(%rbp),%rax
  1c:	48 89 c7             	mov    %rax,%rdi
  1f:	e8 00 00 00 00       	call   24 <_ZSt19__relocate_object_aISt6vectorIiSaIiEES2_SaIS2_EEvPT_PT0_RT1_+0x24>
  24:	48 89 c2             	mov    %rax,%rdx
  27:	48 8b 4d f8          	mov    -0x8(%rbp),%rcx
  2b:	48 8b 45 e8          	mov    -0x18(%rbp),%rax
  2f:	48 89 ce             	mov    %rcx,%rsi
  32:	48 89 c7             	mov    %rax,%rdi
  35:	e8 00 00 00 00       	call   3a <_ZSt19__relocate_object_aISt6vectorIiSaIiEES2_SaIS2_EEvPT_PT0_RT1_+0x3a>
  3a:	48 8b 45 f0          	mov    -0x10(%rbp),%rax
  3e:	48 89 c7             	mov    %rax,%rdi
  41:	e8 00 00 00 00       	call   46 <_ZSt19__relocate_object_aISt6vectorIiSaIiEES2_SaIS2_EEvPT_PT0_RT1_+0x46>
  46:	48 89 c2             	mov    %rax,%rdx
  49:	48 8b 45 e8          	mov    -0x18(%rbp),%rax
  4d:	48 89 d6             	mov    %rdx,%rsi
  50:	48 89 c7             	mov    %rax,%rdi
  53:	e8 00 00 00 00       	call   58 <_ZSt19__relocate_object_aISt6vectorIiSaIiEES2_SaIS2_EEvPT_PT0_RT1_+0x58>
  58:	90                   	nop
  59:	c9                   	leave  
  5a:	c3                   	ret    

Disassembly of section .text._ZSt12__miter_baseIN9__gnu_cxx17__normal_iteratorIPKiSt6vectorIiSaIiEEEEET_S8_:

0000000000000000 <_ZSt12__miter_baseIN9__gnu_cxx17__normal_iteratorIPKiSt6vectorIiSaIiEEEEET_S8_>:
   0:	f3 0f 1e fa          	endbr64 
   4:	55                   	push   %rbp
   5:	48 89 e5             	mov    %rsp,%rbp
   8:	48 89 7d f8          	mov    %rdi,-0x8(%rbp)
   c:	48 8b 45 f8          	mov    -0x8(%rbp),%rax
  10:	5d                   	pop    %rbp
  11:	c3                   	ret    

Disassembly of section .text._ZSt13__copy_move_aILb0EN9__gnu_cxx17__normal_iteratorIPKiSt6vectorIiSaIiEEEEPiET1_T0_SA_S9_:

0000000000000000 <_ZSt13__copy_move_aILb0EN9__gnu_cxx17__normal_iteratorIPKiSt6vectorIiSaIiEEEEPiET1_T0_SA_S9_>:
   0:	f3 0f 1e fa          	endbr64 
   4:	55                   	push   %rbp
   5:	48 89 e5             	mov    %rsp,%rbp
   8:	41 54                	push   %r12
   a:	53                   	push   %rbx
   b:	48 83 ec 20          	sub    $0x20,%rsp
   f:	48 89 7d e8          	mov    %rdi,-0x18(%rbp)
  13:	48 89 75 e0          	mov    %rsi,-0x20(%rbp)
  17:	48 89 55 d8          	mov    %rdx,-0x28(%rbp)
  1b:	48 8b 45 d8          	mov    -0x28(%rbp),%rax
  1f:	48 89 c7             	mov    %rax,%rdi
  22:	e8 00 00 00 00       	call   27 <_ZSt13__copy_move_aILb0EN9__gnu_cxx17__normal_iteratorIPKiSt6vectorIiSaIiEEEEPiET1_T0_SA_S9_+0x27>
  27:	49 89 c4             	mov    %rax,%r12
  2a:	48 8b 45 e0          	mov    -0x20(%rbp),%rax
  2e:	48 89 c7             	mov    %rax,%rdi
  31:	e8 00 00 00 00       	call   36 <_ZSt13__copy_move_aILb0EN9__gnu_cxx17__normal_iteratorIPKiSt6vectorIiSaIiEEEEPiET1_T0_SA_S9_+0x36>
  36:	48 89 c3             	mov    %rax,%rbx
  39:	48 8b 45 e8          	mov    -0x18(%rbp),%rax
  3d:	48 89 c7             	mov    %rax,%rdi
  40:	e8 00 00 00 00       	call   45 <_ZSt13__copy_move_aILb0EN9__gnu_cxx17__normal_iteratorIPKiSt6vectorIiSaIiEEEEPiET1_T0_SA_S9_+0x45>
  45:	4c 89 e2             	mov    %r12,%rdx
  48:	48 89 de             	mov    %rbx,%rsi
  4b:	48 89 c7             	mov    %rax,%rdi
  4e:	e8 00 00 00 00       	call   53 <_ZSt13__copy_move_aILb0EN9__gnu_cxx17__normal_iteratorIPKiSt6vectorIiSaIiEEEEPiET1_T0_SA_S9_+0x53>
  53:	48 89 c2             	mov    %rax,%rdx
  56:	48 8d 45 d8          	lea    -0x28(%rbp),%rax
  5a:	48 89 d6             	mov    %rdx,%rsi
  5d:	48 89 c7             	mov    %rax,%rdi
  60:	e8 00 00 00 00       	call   65 <_ZSt13__copy_move_aILb0EN9__gnu_cxx17__normal_iteratorIPKiSt6vectorIiSaIiEEEEPiET1_T0_SA_S9_+0x65>
  65:	48 83 c4 20          	add    $0x20,%rsp
  69:	5b                   	pop    %rbx
  6a:	41 5c                	pop    %r12
  6c:	5d                   	pop    %rbp
  6d:	c3                   	ret    

Disassembly of section .text._ZSt7forwardI4HeapEOT_RNSt16remove_referenceIS1_E4typeE:

0000000000000000 <_ZSt7forwardI4HeapEOT_RNSt16remove_referenceIS1_E4typeE>:
   0:	f3 0f 1e fa          	endbr64 
   4:	55                   	push   %rbp
   5:	48 89 e5             	mov    %rsp,%rbp
   8:	48 89 7d f8          	mov    %rdi,-0x8(%rbp)
   c:	48 8b 45 f8          	mov    -0x8(%rbp),%rax
  10:	5d                   	pop    %rbp
  11:	c3                   	ret    

Disassembly of section .text._ZN4HeapC2EOS_:

0000000000000000 <_ZN4HeapC1EOS_>:
   0:	f3 0f 1e fa          	endbr64 
   4:	55                   	push   %rbp
   5:	48 89 e5             	mov    %rsp,%rbp
   8:	48 83 ec 10          	sub    $0x10,%rsp
   c:	48 89 7d f8          	mov    %rdi,-0x8(%rbp)
  10:	48 89 75 f0          	mov    %rsi,-0x10(%rbp)
  14:	48 8b 45 f8          	mov    -0x8(%rbp),%rax
  18:	48 8b 55 f0          	mov    -0x10(%rbp),%rdx
  1c:	48 89 d6             	mov    %rdx,%rsi
  1f:	48 89 c7             	mov    %rax,%rdi
  22:	e8 00 00 00 00       	call   27 <_ZN4HeapC1EOS_+0x27>
  27:	48 8b 45 f0          	mov    -0x10(%rbp),%rax
  2b:	8b 50 18             	mov    0x18(%rax),%edx
  2e:	48 8b 45 f8          	mov    -0x8(%rbp),%rax
  32:	89 50 18             	mov    %edx,0x18(%rax)
  35:	48 8b 45 f0          	mov    -0x10(%rbp),%rax
  39:	8b 50 1c             	mov    0x1c(%rax),%edx
  3c:	48 8b 45 f8          	mov    -0x8(%rbp),%rax
  40:	89 50 1c             	mov    %edx,0x1c(%rax)
  43:	90                   	nop
  44:	c9                   	leave  
  45:	c3                   	ret    

Disassembly of section .text._ZN9__gnu_cxx13new_allocatorI4HeapE9constructIS1_JS1_EEEvPT_DpOT0_:

0000000000000000 <_ZN9__gnu_cxx13new_allocatorI4HeapE9constructIS1_JS1_EEEvPT_DpOT0_>:
   0:	f3 0f 1e fa          	endbr64 
   4:	55                   	push   %rbp
   5:	48 89 e5             	mov    %rsp,%rbp
   8:	53                   	push   %rbx
   9:	48 83 ec 28          	sub    $0x28,%rsp
   d:	48 89 7d e8          	mov    %rdi,-0x18(%rbp)
  11:	48 89 75 e0          	mov    %rsi,-0x20(%rbp)
  15:	48 89 55 d8          	mov    %rdx,-0x28(%rbp)
  19:	48 8b 45 d8          	mov    -0x28(%rbp),%rax
  1d:	48 89 c7             	mov    %rax,%rdi
  20:	e8 00 00 00 00       	call   25 <_ZN9__gnu_cxx13new_allocatorI4HeapE9constructIS1_JS1_EEEvPT_DpOT0_+0x25>
  25:	48 89 c3             	mov    %rax,%rbx
  28:	48 8b 45 e0          	mov    -0x20(%rbp),%rax
  2c:	48 89 c6             	mov    %rax,%rsi
  2f:	bf 20 00 00 00       	mov    $0x20,%edi
  34:	e8 00 00 00 00       	call   39 <_ZN9__gnu_cxx13new_allocatorI4HeapE9constructIS1_JS1_EEEvPT_DpOT0_+0x39>
  39:	48 89 de             	mov    %rbx,%rsi
  3c:	48 89 c7             	mov    %rax,%rdi
  3f:	e8 00 00 00 00       	call   44 <_ZN9__gnu_cxx13new_allocatorI4HeapE9constructIS1_JS1_EEEvPT_DpOT0_+0x44>
  44:	90                   	nop
  45:	48 8b 5d f8          	mov    -0x8(%rbp),%rbx
  49:	c9                   	leave  
  4a:	c3                   	ret    

Disassembly of section .text._ZSt14__copy_move_a2ILb0EPKiPiET1_T0_S4_S3_:

0000000000000000 <_ZSt14__copy_move_a2ILb0EPKiPiET1_T0_S4_S3_>:
   0:	f3 0f 1e fa          	endbr64 
   4:	55                   	push   %rbp
   5:	48 89 e5             	mov    %rsp,%rbp
   8:	48 83 ec 20          	sub    $0x20,%rsp
   c:	48 89 7d f8          	mov    %rdi,-0x8(%rbp)
  10:	48 89 75 f0          	mov    %rsi,-0x10(%rbp)
  14:	48 89 55 e8          	mov    %rdx,-0x18(%rbp)
  18:	48 8b 55 e8          	mov    -0x18(%rbp),%rdx
  1c:	48 8b 4d f0          	mov    -0x10(%rbp),%rcx
  20:	48 8b 45 f8          	mov    -0x8(%rbp),%rax
  24:	48 89 ce             	mov    %rcx,%rsi
  27:	48 89 c7             	mov    %rax,%rdi
  2a:	e8 00 00 00 00       	call   2f <_ZSt14__copy_move_a2ILb0EPKiPiET1_T0_S4_S3_+0x2f>
  2f:	c9                   	leave  
  30:	c3                   	ret    

Disassembly of section .text._ZSt12__niter_baseIPKiSt6vectorIiSaIiEEET_N9__gnu_cxx17__normal_iteratorIS5_T0_EE:

0000000000000000 <_ZSt12__niter_baseIPKiSt6vectorIiSaIiEEET_N9__gnu_cxx17__normal_iteratorIS5_T0_EE>:
   0:	f3 0f 1e fa          	endbr64 
   4:	55                   	push   %rbp
   5:	48 89 e5             	mov    %rsp,%rbp
   8:	48 83 ec 10          	sub    $0x10,%rsp
   c:	48 89 7d f8          	mov    %rdi,-0x8(%rbp)
  10:	48 8d 45 f8          	lea    -0x8(%rbp),%rax
  14:	48 89 c7             	mov    %rax,%rdi
  17:	e8 00 00 00 00       	call   1c <_ZSt12__niter_baseIPKiSt6vectorIiSaIiEEET_N9__gnu_cxx17__normal_iteratorIS5_T0_EE+0x1c>
  1c:	48 8b 00             	mov    (%rax),%rax
  1f:	c9                   	leave  
  20:	c3                   	ret    

Disassembly of section .text._ZNSt11__copy_moveILb0ELb1ESt26random_access_iterator_tagE8__copy_mIiEEPT_PKS3_S6_S4_:

0000000000000000 <_ZNSt11__copy_moveILb0ELb1ESt26random_access_iterator_tagE8__copy_mIiEEPT_PKS3_S6_S4_>:
   0:	f3 0f 1e fa          	endbr64 
   4:	55                   	push   %rbp
   5:	48 89 e5             	mov    %rsp,%rbp
   8:	48 83 ec 30          	sub    $0x30,%rsp
   c:	48 89 7d e8          	mov    %rdi,-0x18(%rbp)
  10:	48 89 75 e0          	mov    %rsi,-0x20(%rbp)
  14:	48 89 55 d8          	mov    %rdx,-0x28(%rbp)
  18:	48 8b 45 e0          	mov    -0x20(%rbp),%rax
  1c:	48 2b 45 e8          	sub    -0x18(%rbp),%rax
  20:	48 c1 f8 02          	sar    $0x2,%rax
  24:	48 89 45 f8          	mov    %rax,-0x8(%rbp)
  28:	48 83 7d f8 00       	cmpq   $0x0,-0x8(%rbp)
  2d:	74 1f                	je     4e <_ZNSt11__copy_moveILb0ELb1ESt26random_access_iterator_tagE8__copy_mIiEEPT_PKS3_S6_S4_+0x4e>
  2f:	48 8b 45 f8          	mov    -0x8(%rbp),%rax
  33:	48 8d 14 85 00 00 00 	lea    0x0(,%rax,4),%rdx
  3a:	00 
  3b:	48 8b 4d e8          	mov    -0x18(%rbp),%rcx
  3f:	48 8b 45 d8          	mov    -0x28(%rbp),%rax
  43:	48 89 ce             	mov    %rcx,%rsi
  46:	48 89 c7             	mov    %rax,%rdi
  49:	e8 00 00 00 00       	call   4e <_ZNSt11__copy_moveILb0ELb1ESt26random_access_iterator_tagE8__copy_mIiEEPT_PKS3_S6_S4_+0x4e>
  4e:	48 8b 45 f8          	mov    -0x8(%rbp),%rax
  52:	48 8d 14 85 00 00 00 	lea    0x0(,%rax,4),%rdx
  59:	00 
  5a:	48 8b 45 d8          	mov    -0x28(%rbp),%rax
  5e:	48 01 d0             	add    %rdx,%rax
  61:	c9                   	leave  
  62:	c3                   	ret    

Disassembly of section .text._ZNK9__gnu_cxx17__normal_iteratorIPKiSt6vectorIiSaIiEEE4baseEv:

0000000000000000 <_ZNK9__gnu_cxx17__normal_iteratorIPKiSt6vectorIiSaIiEEE4baseEv>:
   0:	f3 0f 1e fa          	endbr64 
   4:	55                   	push   %rbp
   5:	48 89 e5             	mov    %rsp,%rbp
   8:	48 89 7d f8          	mov    %rdi,-0x8(%rbp)
   c:	48 8b 45 f8          	mov    -0x8(%rbp),%rax
  10:	5d                   	pop    %rbp
  11:	c3                   	ret    
